
ot_new.elf:     file format elf32-littlearm

Sections:
Idx Name          Size      VMA       LMA       File off  Algn
  0 .isr_vector   000000c0  08000000  08000000  00010000  2**0
                  CONTENTS, ALLOC, LOAD, READONLY, DATA
  1 .text         00006208  080000c0  080000c0  000100c0  2**2
                  CONTENTS, ALLOC, LOAD, READONLY, CODE
  2 .rodata       000002a8  080062c8  080062c8  000162c8  2**2
                  CONTENTS, ALLOC, LOAD, READONLY, DATA
  3 .ARM.extab    00000000  08006570  08006570  00020068  2**0
                  CONTENTS
  4 .ARM          00000000  08006570  08006570  00020068  2**0
                  CONTENTS
  5 .preinit_array 00000000  08006570  08006570  00020068  2**0
                  CONTENTS, ALLOC, LOAD, DATA
  6 .init_array   00000004  08006570  08006570  00016570  2**2
                  CONTENTS, ALLOC, LOAD, DATA
  7 .fini_array   00000004  08006574  08006574  00016574  2**2
                  CONTENTS, ALLOC, LOAD, DATA
  8 .data         00000068  20000000  08006578  00020000  2**2
                  CONTENTS, ALLOC, LOAD, DATA
  9 .bss          00000310  20000068  080065e0  00020068  2**2
                  ALLOC
 10 ._user_heap_stack 00000600  20000378  080065e0  00020378  2**0
                  ALLOC
 11 .ARM.attributes 00000028  00000000  00000000  00020068  2**0
                  CONTENTS, READONLY
 12 .comment      00000043  00000000  00000000  00020090  2**0
                  CONTENTS, READONLY
 13 .debug_info   000112c2  00000000  00000000  000200d3  2**0
                  CONTENTS, READONLY, DEBUGGING, OCTETS
 14 .debug_abbrev 00002825  00000000  00000000  00031395  2**0
                  CONTENTS, READONLY, DEBUGGING, OCTETS
 15 .debug_aranges 00000fc8  00000000  00000000  00033bc0  2**3
                  CONTENTS, READONLY, DEBUGGING, OCTETS
 16 .debug_rnglists 00000c7b  00000000  00000000  00034b88  2**0
                  CONTENTS, READONLY, DEBUGGING, OCTETS
 17 .debug_macro  0001145c  00000000  00000000  00035803  2**0
                  CONTENTS, READONLY, DEBUGGING, OCTETS
 18 .debug_line   000144ad  00000000  00000000  00046c5f  2**0
                  CONTENTS, READONLY, DEBUGGING, OCTETS
 19 .debug_str    00067610  00000000  00000000  0005b10c  2**0
                  CONTENTS, READONLY, DEBUGGING, OCTETS
 20 .debug_frame  00003dc4  00000000  00000000  000c271c  2**2
                  CONTENTS, READONLY, DEBUGGING, OCTETS
 21 .debug_line_str 0000008a  00000000  00000000  000c64e0  2**0
                  CONTENTS, READONLY, DEBUGGING, OCTETS

Disassembly of section .text:

080000c0 <__do_global_dtors_aux>:
 80000c0:	b510      	push	{r4, lr}
 80000c2:	4c06      	ldr	r4, [pc, #24]	; (80000dc <__do_global_dtors_aux+0x1c>)
 80000c4:	7823      	ldrb	r3, [r4, #0]
 80000c6:	2b00      	cmp	r3, #0
 80000c8:	d107      	bne.n	80000da <__do_global_dtors_aux+0x1a>
 80000ca:	4b05      	ldr	r3, [pc, #20]	; (80000e0 <__do_global_dtors_aux+0x20>)
 80000cc:	2b00      	cmp	r3, #0
 80000ce:	d002      	beq.n	80000d6 <__do_global_dtors_aux+0x16>
 80000d0:	4804      	ldr	r0, [pc, #16]	; (80000e4 <__do_global_dtors_aux+0x24>)
 80000d2:	e000      	b.n	80000d6 <__do_global_dtors_aux+0x16>
 80000d4:	bf00      	nop
 80000d6:	2301      	movs	r3, #1
 80000d8:	7023      	strb	r3, [r4, #0]
 80000da:	bd10      	pop	{r4, pc}
 80000dc:	20000068 	.word	0x20000068
 80000e0:	00000000 	.word	0x00000000
 80000e4:	080062b0 	.word	0x080062b0

080000e8 <frame_dummy>:
 80000e8:	4b04      	ldr	r3, [pc, #16]	; (80000fc <frame_dummy+0x14>)
 80000ea:	b510      	push	{r4, lr}
 80000ec:	2b00      	cmp	r3, #0
 80000ee:	d003      	beq.n	80000f8 <frame_dummy+0x10>
 80000f0:	4903      	ldr	r1, [pc, #12]	; (8000100 <frame_dummy+0x18>)
 80000f2:	4804      	ldr	r0, [pc, #16]	; (8000104 <frame_dummy+0x1c>)
 80000f4:	e000      	b.n	80000f8 <frame_dummy+0x10>
 80000f6:	bf00      	nop
 80000f8:	bd10      	pop	{r4, pc}
 80000fa:	46c0      	nop			; (mov r8, r8)
 80000fc:	00000000 	.word	0x00000000
 8000100:	2000006c 	.word	0x2000006c
 8000104:	080062b0 	.word	0x080062b0

08000108 <__gnu_thumb1_case_shi>:
 8000108:	b403      	push	{r0, r1}
 800010a:	4671      	mov	r1, lr
 800010c:	0849      	lsrs	r1, r1, #1
 800010e:	0040      	lsls	r0, r0, #1
 8000110:	0049      	lsls	r1, r1, #1
 8000112:	5e09      	ldrsh	r1, [r1, r0]
 8000114:	0049      	lsls	r1, r1, #1
 8000116:	448e      	add	lr, r1
 8000118:	bc03      	pop	{r0, r1}
 800011a:	4770      	bx	lr

0800011c <__udivsi3>:
 800011c:	2200      	movs	r2, #0
 800011e:	0843      	lsrs	r3, r0, #1
 8000120:	428b      	cmp	r3, r1
 8000122:	d374      	bcc.n	800020e <__udivsi3+0xf2>
 8000124:	0903      	lsrs	r3, r0, #4
 8000126:	428b      	cmp	r3, r1
 8000128:	d35f      	bcc.n	80001ea <__udivsi3+0xce>
 800012a:	0a03      	lsrs	r3, r0, #8
 800012c:	428b      	cmp	r3, r1
 800012e:	d344      	bcc.n	80001ba <__udivsi3+0x9e>
 8000130:	0b03      	lsrs	r3, r0, #12
 8000132:	428b      	cmp	r3, r1
 8000134:	d328      	bcc.n	8000188 <__udivsi3+0x6c>
 8000136:	0c03      	lsrs	r3, r0, #16
 8000138:	428b      	cmp	r3, r1
 800013a:	d30d      	bcc.n	8000158 <__udivsi3+0x3c>
 800013c:	22ff      	movs	r2, #255	; 0xff
 800013e:	0209      	lsls	r1, r1, #8
 8000140:	ba12      	rev	r2, r2
 8000142:	0c03      	lsrs	r3, r0, #16
 8000144:	428b      	cmp	r3, r1
 8000146:	d302      	bcc.n	800014e <__udivsi3+0x32>
 8000148:	1212      	asrs	r2, r2, #8
 800014a:	0209      	lsls	r1, r1, #8
 800014c:	d065      	beq.n	800021a <__udivsi3+0xfe>
 800014e:	0b03      	lsrs	r3, r0, #12
 8000150:	428b      	cmp	r3, r1
 8000152:	d319      	bcc.n	8000188 <__udivsi3+0x6c>
 8000154:	e000      	b.n	8000158 <__udivsi3+0x3c>
 8000156:	0a09      	lsrs	r1, r1, #8
 8000158:	0bc3      	lsrs	r3, r0, #15
 800015a:	428b      	cmp	r3, r1
 800015c:	d301      	bcc.n	8000162 <__udivsi3+0x46>
 800015e:	03cb      	lsls	r3, r1, #15
 8000160:	1ac0      	subs	r0, r0, r3
 8000162:	4152      	adcs	r2, r2
 8000164:	0b83      	lsrs	r3, r0, #14
 8000166:	428b      	cmp	r3, r1
 8000168:	d301      	bcc.n	800016e <__udivsi3+0x52>
 800016a:	038b      	lsls	r3, r1, #14
 800016c:	1ac0      	subs	r0, r0, r3
 800016e:	4152      	adcs	r2, r2
 8000170:	0b43      	lsrs	r3, r0, #13
 8000172:	428b      	cmp	r3, r1
 8000174:	d301      	bcc.n	800017a <__udivsi3+0x5e>
 8000176:	034b      	lsls	r3, r1, #13
 8000178:	1ac0      	subs	r0, r0, r3
 800017a:	4152      	adcs	r2, r2
 800017c:	0b03      	lsrs	r3, r0, #12
 800017e:	428b      	cmp	r3, r1
 8000180:	d301      	bcc.n	8000186 <__udivsi3+0x6a>
 8000182:	030b      	lsls	r3, r1, #12
 8000184:	1ac0      	subs	r0, r0, r3
 8000186:	4152      	adcs	r2, r2
 8000188:	0ac3      	lsrs	r3, r0, #11
 800018a:	428b      	cmp	r3, r1
 800018c:	d301      	bcc.n	8000192 <__udivsi3+0x76>
 800018e:	02cb      	lsls	r3, r1, #11
 8000190:	1ac0      	subs	r0, r0, r3
 8000192:	4152      	adcs	r2, r2
 8000194:	0a83      	lsrs	r3, r0, #10
 8000196:	428b      	cmp	r3, r1
 8000198:	d301      	bcc.n	800019e <__udivsi3+0x82>
 800019a:	028b      	lsls	r3, r1, #10
 800019c:	1ac0      	subs	r0, r0, r3
 800019e:	4152      	adcs	r2, r2
 80001a0:	0a43      	lsrs	r3, r0, #9
 80001a2:	428b      	cmp	r3, r1
 80001a4:	d301      	bcc.n	80001aa <__udivsi3+0x8e>
 80001a6:	024b      	lsls	r3, r1, #9
 80001a8:	1ac0      	subs	r0, r0, r3
 80001aa:	4152      	adcs	r2, r2
 80001ac:	0a03      	lsrs	r3, r0, #8
 80001ae:	428b      	cmp	r3, r1
 80001b0:	d301      	bcc.n	80001b6 <__udivsi3+0x9a>
 80001b2:	020b      	lsls	r3, r1, #8
 80001b4:	1ac0      	subs	r0, r0, r3
 80001b6:	4152      	adcs	r2, r2
 80001b8:	d2cd      	bcs.n	8000156 <__udivsi3+0x3a>
 80001ba:	09c3      	lsrs	r3, r0, #7
 80001bc:	428b      	cmp	r3, r1
 80001be:	d301      	bcc.n	80001c4 <__udivsi3+0xa8>
 80001c0:	01cb      	lsls	r3, r1, #7
 80001c2:	1ac0      	subs	r0, r0, r3
 80001c4:	4152      	adcs	r2, r2
 80001c6:	0983      	lsrs	r3, r0, #6
 80001c8:	428b      	cmp	r3, r1
 80001ca:	d301      	bcc.n	80001d0 <__udivsi3+0xb4>
 80001cc:	018b      	lsls	r3, r1, #6
 80001ce:	1ac0      	subs	r0, r0, r3
 80001d0:	4152      	adcs	r2, r2
 80001d2:	0943      	lsrs	r3, r0, #5
 80001d4:	428b      	cmp	r3, r1
 80001d6:	d301      	bcc.n	80001dc <__udivsi3+0xc0>
 80001d8:	014b      	lsls	r3, r1, #5
 80001da:	1ac0      	subs	r0, r0, r3
 80001dc:	4152      	adcs	r2, r2
 80001de:	0903      	lsrs	r3, r0, #4
 80001e0:	428b      	cmp	r3, r1
 80001e2:	d301      	bcc.n	80001e8 <__udivsi3+0xcc>
 80001e4:	010b      	lsls	r3, r1, #4
 80001e6:	1ac0      	subs	r0, r0, r3
 80001e8:	4152      	adcs	r2, r2
 80001ea:	08c3      	lsrs	r3, r0, #3
 80001ec:	428b      	cmp	r3, r1
 80001ee:	d301      	bcc.n	80001f4 <__udivsi3+0xd8>
 80001f0:	00cb      	lsls	r3, r1, #3
 80001f2:	1ac0      	subs	r0, r0, r3
 80001f4:	4152      	adcs	r2, r2
 80001f6:	0883      	lsrs	r3, r0, #2
 80001f8:	428b      	cmp	r3, r1
 80001fa:	d301      	bcc.n	8000200 <__udivsi3+0xe4>
 80001fc:	008b      	lsls	r3, r1, #2
 80001fe:	1ac0      	subs	r0, r0, r3
 8000200:	4152      	adcs	r2, r2
 8000202:	0843      	lsrs	r3, r0, #1
 8000204:	428b      	cmp	r3, r1
 8000206:	d301      	bcc.n	800020c <__udivsi3+0xf0>
 8000208:	004b      	lsls	r3, r1, #1
 800020a:	1ac0      	subs	r0, r0, r3
 800020c:	4152      	adcs	r2, r2
 800020e:	1a41      	subs	r1, r0, r1
 8000210:	d200      	bcs.n	8000214 <__udivsi3+0xf8>
 8000212:	4601      	mov	r1, r0
 8000214:	4152      	adcs	r2, r2
 8000216:	4610      	mov	r0, r2
 8000218:	4770      	bx	lr
 800021a:	e7ff      	b.n	800021c <__udivsi3+0x100>
 800021c:	b501      	push	{r0, lr}
 800021e:	2000      	movs	r0, #0
 8000220:	f000 f806 	bl	8000230 <__aeabi_idiv0>
 8000224:	bd02      	pop	{r1, pc}
 8000226:	46c0      	nop			; (mov r8, r8)

08000228 <__aeabi_uidivmod>:
 8000228:	2900      	cmp	r1, #0
 800022a:	d0f7      	beq.n	800021c <__udivsi3+0x100>
 800022c:	e776      	b.n	800011c <__udivsi3>
 800022e:	4770      	bx	lr

08000230 <__aeabi_idiv0>:
 8000230:	4770      	bx	lr
 8000232:	46c0      	nop			; (mov r8, r8)

08000234 <init_gesture>:
 8000234:	b590      	push	{r4, r7, lr}
 8000236:	b083      	sub	sp, #12
 8000238:	af00      	add	r7, sp, #0
 800023a:	1dfc      	adds	r4, r7, #7
 800023c:	2092      	movs	r0, #146	; 0x92
 800023e:	f000 fa63 	bl	8000708 <read8>
 8000242:	0003      	movs	r3, r0
 8000244:	7023      	strb	r3, [r4, #0]
 8000246:	1dfb      	adds	r3, r7, #7
 8000248:	781b      	ldrb	r3, [r3, #0]
 800024a:	2bab      	cmp	r3, #171	; 0xab
 800024c:	d001      	beq.n	8000252 <init_gesture+0x1e>
 800024e:	2300      	movs	r3, #0
 8000250:	e0a7      	b.n	80003a2 <init_gesture+0x16e>
 8000252:	2100      	movs	r1, #0
 8000254:	2080      	movs	r0, #128	; 0x80
 8000256:	f000 fa31 	bl	80006bc <write8>
 800025a:	1e03      	subs	r3, r0, #0
 800025c:	d101      	bne.n	8000262 <init_gesture+0x2e>
 800025e:	2300      	movs	r3, #0
 8000260:	e09f      	b.n	80003a2 <init_gesture+0x16e>
 8000262:	4b52      	ldr	r3, [pc, #328]	; (80003ac <init_gesture+0x178>)
 8000264:	2200      	movs	r2, #0
 8000266:	701a      	strb	r2, [r3, #0]
 8000268:	4b51      	ldr	r3, [pc, #324]	; (80003b0 <init_gesture+0x17c>)
 800026a:	2200      	movs	r2, #0
 800026c:	701a      	strb	r2, [r3, #0]
 800026e:	21ff      	movs	r1, #255	; 0xff
 8000270:	2083      	movs	r0, #131	; 0x83
 8000272:	f000 fa23 	bl	80006bc <write8>
 8000276:	1e03      	subs	r3, r0, #0
 8000278:	d101      	bne.n	800027e <init_gesture+0x4a>
 800027a:	2300      	movs	r3, #0
 800027c:	e091      	b.n	80003a2 <init_gesture+0x16e>
 800027e:	218f      	movs	r1, #143	; 0x8f
 8000280:	20a6      	movs	r0, #166	; 0xa6
 8000282:	f000 fa1b 	bl	80006bc <write8>
 8000286:	1e03      	subs	r3, r0, #0
 8000288:	d101      	bne.n	800028e <init_gesture+0x5a>
 800028a:	2300      	movs	r3, #0
 800028c:	e089      	b.n	80003a2 <init_gesture+0x16e>
 800028e:	218f      	movs	r1, #143	; 0x8f
 8000290:	208e      	movs	r0, #142	; 0x8e
 8000292:	f000 fa13 	bl	80006bc <write8>
 8000296:	1e03      	subs	r3, r0, #0
 8000298:	d101      	bne.n	800029e <init_gesture+0x6a>
 800029a:	2300      	movs	r3, #0
 800029c:	e081      	b.n	80003a2 <init_gesture+0x16e>
 800029e:	1dfc      	adds	r4, r7, #7
 80002a0:	20ab      	movs	r0, #171	; 0xab
 80002a2:	f000 fa31 	bl	8000708 <read8>
 80002a6:	0003      	movs	r3, r0
 80002a8:	7023      	strb	r3, [r4, #0]
 80002aa:	1dfb      	adds	r3, r7, #7
 80002ac:	1dfa      	adds	r2, r7, #7
 80002ae:	7812      	ldrb	r2, [r2, #0]
 80002b0:	2102      	movs	r1, #2
 80002b2:	430a      	orrs	r2, r1
 80002b4:	701a      	strb	r2, [r3, #0]
 80002b6:	1dfb      	adds	r3, r7, #7
 80002b8:	781b      	ldrb	r3, [r3, #0]
 80002ba:	0019      	movs	r1, r3
 80002bc:	20ab      	movs	r0, #171	; 0xab
 80002be:	f000 f9fd 	bl	80006bc <write8>
 80002c2:	1dfc      	adds	r4, r7, #7
 80002c4:	20ab      	movs	r0, #171	; 0xab
 80002c6:	f000 fa1f 	bl	8000708 <read8>
 80002ca:	0003      	movs	r3, r0
 80002cc:	7023      	strb	r3, [r4, #0]
 80002ce:	1dfb      	adds	r3, r7, #7
 80002d0:	1dfa      	adds	r2, r7, #7
 80002d2:	7812      	ldrb	r2, [r2, #0]
 80002d4:	2101      	movs	r1, #1
 80002d6:	430a      	orrs	r2, r1
 80002d8:	701a      	strb	r2, [r3, #0]
 80002da:	1dfb      	adds	r3, r7, #7
 80002dc:	781b      	ldrb	r3, [r3, #0]
 80002de:	0019      	movs	r1, r3
 80002e0:	20ab      	movs	r0, #171	; 0xab
 80002e2:	f000 f9eb 	bl	80006bc <write8>
 80002e6:	4b32      	ldr	r3, [pc, #200]	; (80003b0 <init_gesture+0x17c>)
 80002e8:	2201      	movs	r2, #1
 80002ea:	701a      	strb	r2, [r3, #0]
 80002ec:	1dfc      	adds	r4, r7, #7
 80002ee:	2080      	movs	r0, #128	; 0x80
 80002f0:	f000 fa0a 	bl	8000708 <read8>
 80002f4:	0003      	movs	r3, r0
 80002f6:	7023      	strb	r3, [r4, #0]
 80002f8:	1dfb      	adds	r3, r7, #7
 80002fa:	1dfa      	adds	r2, r7, #7
 80002fc:	7812      	ldrb	r2, [r2, #0]
 80002fe:	2101      	movs	r1, #1
 8000300:	430a      	orrs	r2, r1
 8000302:	701a      	strb	r2, [r3, #0]
 8000304:	1dfb      	adds	r3, r7, #7
 8000306:	781b      	ldrb	r3, [r3, #0]
 8000308:	0019      	movs	r1, r3
 800030a:	2080      	movs	r0, #128	; 0x80
 800030c:	f000 f9d6 	bl	80006bc <write8>
 8000310:	1dfc      	adds	r4, r7, #7
 8000312:	2080      	movs	r0, #128	; 0x80
 8000314:	f000 f9f8 	bl	8000708 <read8>
 8000318:	0003      	movs	r3, r0
 800031a:	7023      	strb	r3, [r4, #0]
 800031c:	1dfb      	adds	r3, r7, #7
 800031e:	1dfa      	adds	r2, r7, #7
 8000320:	7812      	ldrb	r2, [r2, #0]
 8000322:	2168      	movs	r1, #104	; 0x68
 8000324:	430a      	orrs	r2, r1
 8000326:	701a      	strb	r2, [r3, #0]
 8000328:	1dfb      	adds	r3, r7, #7
 800032a:	781b      	ldrb	r3, [r3, #0]
 800032c:	0019      	movs	r1, r3
 800032e:	2080      	movs	r0, #128	; 0x80
 8000330:	f000 f9c4 	bl	80006bc <write8>
 8000334:	1dfc      	adds	r4, r7, #7
 8000336:	2080      	movs	r0, #128	; 0x80
 8000338:	f000 f9e6 	bl	8000708 <read8>
 800033c:	0003      	movs	r3, r0
 800033e:	7023      	strb	r3, [r4, #0]
 8000340:	1dfb      	adds	r3, r7, #7
 8000342:	22fc      	movs	r2, #252	; 0xfc
 8000344:	701a      	strb	r2, [r3, #0]
 8000346:	1dfb      	adds	r3, r7, #7
 8000348:	781b      	ldrb	r3, [r3, #0]
 800034a:	0019      	movs	r1, r3
 800034c:	2081      	movs	r0, #129	; 0x81
 800034e:	f000 f9b5 	bl	80006bc <write8>
 8000352:	2100      	movs	r1, #0
 8000354:	2081      	movs	r0, #129	; 0x81
 8000356:	f000 f9b1 	bl	80006bc <write8>
 800035a:	4b16      	ldr	r3, [pc, #88]	; (80003b4 <init_gesture+0x180>)
 800035c:	781b      	ldrb	r3, [r3, #0]
 800035e:	2b64      	cmp	r3, #100	; 0x64
 8000360:	d902      	bls.n	8000368 <init_gesture+0x134>
 8000362:	4b14      	ldr	r3, [pc, #80]	; (80003b4 <init_gesture+0x180>)
 8000364:	2264      	movs	r2, #100	; 0x64
 8000366:	701a      	strb	r2, [r3, #0]
 8000368:	4b12      	ldr	r3, [pc, #72]	; (80003b4 <init_gesture+0x180>)
 800036a:	781b      	ldrb	r3, [r3, #0]
 800036c:	001a      	movs	r2, r3
 800036e:	2364      	movs	r3, #100	; 0x64
 8000370:	1a9a      	subs	r2, r3, r2
 8000372:	4b11      	ldr	r3, [pc, #68]	; (80003b8 <init_gesture+0x184>)
 8000374:	601a      	str	r2, [r3, #0]
 8000376:	200a      	movs	r0, #10
 8000378:	f002 fd76 	bl	8002e68 <HAL_Delay>
 800037c:	1dfc      	adds	r4, r7, #7
 800037e:	2080      	movs	r0, #128	; 0x80
 8000380:	f000 f9c2 	bl	8000708 <read8>
 8000384:	0003      	movs	r3, r0
 8000386:	7023      	strb	r3, [r4, #0]
 8000388:	1dfb      	adds	r3, r7, #7
 800038a:	1dfa      	adds	r2, r7, #7
 800038c:	7812      	ldrb	r2, [r2, #0]
 800038e:	2101      	movs	r1, #1
 8000390:	430a      	orrs	r2, r1
 8000392:	701a      	strb	r2, [r3, #0]
 8000394:	1dfb      	adds	r3, r7, #7
 8000396:	781b      	ldrb	r3, [r3, #0]
 8000398:	0019      	movs	r1, r3
 800039a:	2080      	movs	r0, #128	; 0x80
 800039c:	f000 f98e 	bl	80006bc <write8>
 80003a0:	2301      	movs	r3, #1
 80003a2:	0018      	movs	r0, r3
 80003a4:	46bd      	mov	sp, r7
 80003a6:	b003      	add	sp, #12
 80003a8:	bd90      	pop	{r4, r7, pc}
 80003aa:	46c0      	nop			; (mov r8, r8)
 80003ac:	20000085 	.word	0x20000085
 80003b0:	20000084 	.word	0x20000084
 80003b4:	20000002 	.word	0x20000002
 80003b8:	20000098 	.word	0x20000098

080003bc <gestureFIFOAvailable>:
 80003bc:	b590      	push	{r4, r7, lr}
 80003be:	b083      	sub	sp, #12
 80003c0:	af00      	add	r7, sp, #0
 80003c2:	1dfc      	adds	r4, r7, #7
 80003c4:	20af      	movs	r0, #175	; 0xaf
 80003c6:	f000 f99f 	bl	8000708 <read8>
 80003ca:	0003      	movs	r3, r0
 80003cc:	7023      	strb	r3, [r4, #0]
 80003ce:	1dfb      	adds	r3, r7, #7
 80003d0:	781b      	ldrb	r3, [r3, #0]
 80003d2:	2201      	movs	r2, #1
 80003d4:	4013      	ands	r3, r2
 80003d6:	d101      	bne.n	80003dc <gestureFIFOAvailable+0x20>
 80003d8:	2300      	movs	r3, #0
 80003da:	e00d      	b.n	80003f8 <gestureFIFOAvailable+0x3c>
 80003dc:	1dfc      	adds	r4, r7, #7
 80003de:	20ae      	movs	r0, #174	; 0xae
 80003e0:	f000 f992 	bl	8000708 <read8>
 80003e4:	0003      	movs	r3, r0
 80003e6:	7023      	strb	r3, [r4, #0]
 80003e8:	1dfb      	adds	r3, r7, #7
 80003ea:	781b      	ldrb	r3, [r3, #0]
 80003ec:	2b00      	cmp	r3, #0
 80003ee:	d101      	bne.n	80003f4 <gestureFIFOAvailable+0x38>
 80003f0:	2300      	movs	r3, #0
 80003f2:	e001      	b.n	80003f8 <gestureFIFOAvailable+0x3c>
 80003f4:	1dfb      	adds	r3, r7, #7
 80003f6:	781b      	ldrb	r3, [r3, #0]
 80003f8:	0018      	movs	r0, r3
 80003fa:	46bd      	mov	sp, r7
 80003fc:	b003      	add	sp, #12
 80003fe:	bd90      	pop	{r4, r7, pc}

08000400 <readGesture>:
 8000400:	b580      	push	{r7, lr}
 8000402:	b082      	sub	sp, #8
 8000404:	af00      	add	r7, sp, #0
 8000406:	1dfb      	adds	r3, r7, #7
 8000408:	4a05      	ldr	r2, [pc, #20]	; (8000420 <readGesture+0x20>)
 800040a:	7812      	ldrb	r2, [r2, #0]
 800040c:	701a      	strb	r2, [r3, #0]
 800040e:	4b04      	ldr	r3, [pc, #16]	; (8000420 <readGesture+0x20>)
 8000410:	22ff      	movs	r2, #255	; 0xff
 8000412:	701a      	strb	r2, [r3, #0]
 8000414:	1dfb      	adds	r3, r7, #7
 8000416:	781b      	ldrb	r3, [r3, #0]
 8000418:	0018      	movs	r0, r3
 800041a:	46bd      	mov	sp, r7
 800041c:	b002      	add	sp, #8
 800041e:	bd80      	pop	{r7, pc}
 8000420:	20000086 	.word	0x20000086

08000424 <handleGesture>:
 8000424:	b5f0      	push	{r4, r5, r6, r7, lr}
 8000426:	b0ab      	sub	sp, #172	; 0xac
 8000428:	af04      	add	r7, sp, #16
 800042a:	2393      	movs	r3, #147	; 0x93
 800042c:	18fb      	adds	r3, r7, r3
 800042e:	2250      	movs	r2, #80	; 0x50
 8000430:	701a      	strb	r2, [r3, #0]
 8000432:	2592      	movs	r5, #146	; 0x92
 8000434:	197c      	adds	r4, r7, r5
 8000436:	f7ff ffc1 	bl	80003bc <gestureFIFOAvailable>
 800043a:	0003      	movs	r3, r0
 800043c:	7023      	strb	r3, [r4, #0]
 800043e:	197b      	adds	r3, r7, r5
 8000440:	781b      	ldrb	r3, [r3, #0]
 8000442:	2b00      	cmp	r3, #0
 8000444:	d101      	bne.n	800044a <handleGesture+0x26>
 8000446:	2300      	movs	r3, #0
 8000448:	e0da      	b.n	8000600 <handleGesture+0x1dc>
 800044a:	4b6f      	ldr	r3, [pc, #444]	; (8000608 <handleGesture+0x1e4>)
 800044c:	8819      	ldrh	r1, [r3, #0]
 800044e:	2392      	movs	r3, #146	; 0x92
 8000450:	18fb      	adds	r3, r7, r3
 8000452:	781b      	ldrb	r3, [r3, #0]
 8000454:	b29b      	uxth	r3, r3
 8000456:	009b      	lsls	r3, r3, #2
 8000458:	b29b      	uxth	r3, r3
 800045a:	486c      	ldr	r0, [pc, #432]	; (800060c <handleGesture+0x1e8>)
 800045c:	220a      	movs	r2, #10
 800045e:	9202      	str	r2, [sp, #8]
 8000460:	9301      	str	r3, [sp, #4]
 8000462:	1d3b      	adds	r3, r7, #4
 8000464:	9300      	str	r3, [sp, #0]
 8000466:	2301      	movs	r3, #1
 8000468:	22fc      	movs	r2, #252	; 0xfc
 800046a:	f003 f989 	bl	8003780 <HAL_I2C_Mem_Read>
 800046e:	1e03      	subs	r3, r0, #0
 8000470:	d001      	beq.n	8000476 <handleGesture+0x52>
 8000472:	2300      	movs	r3, #0
 8000474:	e0c4      	b.n	8000600 <handleGesture+0x1dc>
 8000476:	2300      	movs	r3, #0
 8000478:	2294      	movs	r2, #148	; 0x94
 800047a:	18ba      	adds	r2, r7, r2
 800047c:	6013      	str	r3, [r2, #0]
 800047e:	e0b3      	b.n	80005e8 <handleGesture+0x1c4>
 8000480:	2491      	movs	r4, #145	; 0x91
 8000482:	193b      	adds	r3, r7, r4
 8000484:	1d39      	adds	r1, r7, #4
 8000486:	2094      	movs	r0, #148	; 0x94
 8000488:	183a      	adds	r2, r7, r0
 800048a:	6812      	ldr	r2, [r2, #0]
 800048c:	188a      	adds	r2, r1, r2
 800048e:	7812      	ldrb	r2, [r2, #0]
 8000490:	701a      	strb	r2, [r3, #0]
 8000492:	183b      	adds	r3, r7, r0
 8000494:	681b      	ldr	r3, [r3, #0]
 8000496:	1c5a      	adds	r2, r3, #1
 8000498:	2590      	movs	r5, #144	; 0x90
 800049a:	197b      	adds	r3, r7, r5
 800049c:	1d39      	adds	r1, r7, #4
 800049e:	5c8a      	ldrb	r2, [r1, r2]
 80004a0:	701a      	strb	r2, [r3, #0]
 80004a2:	183b      	adds	r3, r7, r0
 80004a4:	681b      	ldr	r3, [r3, #0]
 80004a6:	1c9a      	adds	r2, r3, #2
 80004a8:	268f      	movs	r6, #143	; 0x8f
 80004aa:	19bb      	adds	r3, r7, r6
 80004ac:	1d39      	adds	r1, r7, #4
 80004ae:	5c8a      	ldrb	r2, [r1, r2]
 80004b0:	701a      	strb	r2, [r3, #0]
 80004b2:	183b      	adds	r3, r7, r0
 80004b4:	681b      	ldr	r3, [r3, #0]
 80004b6:	1cda      	adds	r2, r3, #3
 80004b8:	208e      	movs	r0, #142	; 0x8e
 80004ba:	183b      	adds	r3, r7, r0
 80004bc:	1d39      	adds	r1, r7, #4
 80004be:	5c8a      	ldrb	r2, [r1, r2]
 80004c0:	701a      	strb	r2, [r3, #0]
 80004c2:	193a      	adds	r2, r7, r4
 80004c4:	2193      	movs	r1, #147	; 0x93
 80004c6:	187b      	adds	r3, r7, r1
 80004c8:	7812      	ldrb	r2, [r2, #0]
 80004ca:	781b      	ldrb	r3, [r3, #0]
 80004cc:	429a      	cmp	r2, r3
 80004ce:	d262      	bcs.n	8000596 <handleGesture+0x172>
 80004d0:	197a      	adds	r2, r7, r5
 80004d2:	187b      	adds	r3, r7, r1
 80004d4:	7812      	ldrb	r2, [r2, #0]
 80004d6:	781b      	ldrb	r3, [r3, #0]
 80004d8:	429a      	cmp	r2, r3
 80004da:	d25c      	bcs.n	8000596 <handleGesture+0x172>
 80004dc:	19ba      	adds	r2, r7, r6
 80004de:	187b      	adds	r3, r7, r1
 80004e0:	7812      	ldrb	r2, [r2, #0]
 80004e2:	781b      	ldrb	r3, [r3, #0]
 80004e4:	429a      	cmp	r2, r3
 80004e6:	d256      	bcs.n	8000596 <handleGesture+0x172>
 80004e8:	183a      	adds	r2, r7, r0
 80004ea:	187b      	adds	r3, r7, r1
 80004ec:	7812      	ldrb	r2, [r2, #0]
 80004ee:	781b      	ldrb	r3, [r3, #0]
 80004f0:	429a      	cmp	r2, r3
 80004f2:	d250      	bcs.n	8000596 <handleGesture+0x172>
 80004f4:	4b46      	ldr	r3, [pc, #280]	; (8000610 <handleGesture+0x1ec>)
 80004f6:	2201      	movs	r2, #1
 80004f8:	701a      	strb	r2, [r3, #0]
 80004fa:	4b46      	ldr	r3, [pc, #280]	; (8000614 <handleGesture+0x1f0>)
 80004fc:	681b      	ldr	r3, [r3, #0]
 80004fe:	2b00      	cmp	r3, #0
 8000500:	d103      	bne.n	800050a <handleGesture+0xe6>
 8000502:	4b45      	ldr	r3, [pc, #276]	; (8000618 <handleGesture+0x1f4>)
 8000504:	681b      	ldr	r3, [r3, #0]
 8000506:	2b00      	cmp	r3, #0
 8000508:	d067      	beq.n	80005da <handleGesture+0x1b6>
 800050a:	4b42      	ldr	r3, [pc, #264]	; (8000614 <handleGesture+0x1f0>)
 800050c:	681a      	ldr	r2, [r3, #0]
 800050e:	4b43      	ldr	r3, [pc, #268]	; (800061c <handleGesture+0x1f8>)
 8000510:	681b      	ldr	r3, [r3, #0]
 8000512:	1ad3      	subs	r3, r2, r3
 8000514:	2188      	movs	r1, #136	; 0x88
 8000516:	187a      	adds	r2, r7, r1
 8000518:	6013      	str	r3, [r2, #0]
 800051a:	4b3f      	ldr	r3, [pc, #252]	; (8000618 <handleGesture+0x1f4>)
 800051c:	681a      	ldr	r2, [r3, #0]
 800051e:	4b40      	ldr	r3, [pc, #256]	; (8000620 <handleGesture+0x1fc>)
 8000520:	681b      	ldr	r3, [r3, #0]
 8000522:	1ad3      	subs	r3, r2, r3
 8000524:	2284      	movs	r2, #132	; 0x84
 8000526:	18ba      	adds	r2, r7, r2
 8000528:	6013      	str	r3, [r2, #0]
 800052a:	4b3e      	ldr	r3, [pc, #248]	; (8000624 <handleGesture+0x200>)
 800052c:	681b      	ldr	r3, [r3, #0]
 800052e:	425b      	negs	r3, r3
 8000530:	187a      	adds	r2, r7, r1
 8000532:	6812      	ldr	r2, [r2, #0]
 8000534:	429a      	cmp	r2, r3
 8000536:	da02      	bge.n	800053e <handleGesture+0x11a>
 8000538:	4b3b      	ldr	r3, [pc, #236]	; (8000628 <handleGesture+0x204>)
 800053a:	2202      	movs	r2, #2
 800053c:	701a      	strb	r2, [r3, #0]
 800053e:	4b39      	ldr	r3, [pc, #228]	; (8000624 <handleGesture+0x200>)
 8000540:	681b      	ldr	r3, [r3, #0]
 8000542:	2288      	movs	r2, #136	; 0x88
 8000544:	18ba      	adds	r2, r7, r2
 8000546:	6812      	ldr	r2, [r2, #0]
 8000548:	429a      	cmp	r2, r3
 800054a:	dd02      	ble.n	8000552 <handleGesture+0x12e>
 800054c:	4b36      	ldr	r3, [pc, #216]	; (8000628 <handleGesture+0x204>)
 800054e:	2203      	movs	r2, #3
 8000550:	701a      	strb	r2, [r3, #0]
 8000552:	4b34      	ldr	r3, [pc, #208]	; (8000624 <handleGesture+0x200>)
 8000554:	681b      	ldr	r3, [r3, #0]
 8000556:	425b      	negs	r3, r3
 8000558:	2284      	movs	r2, #132	; 0x84
 800055a:	18ba      	adds	r2, r7, r2
 800055c:	6812      	ldr	r2, [r2, #0]
 800055e:	429a      	cmp	r2, r3
 8000560:	da02      	bge.n	8000568 <handleGesture+0x144>
 8000562:	4b31      	ldr	r3, [pc, #196]	; (8000628 <handleGesture+0x204>)
 8000564:	2201      	movs	r2, #1
 8000566:	701a      	strb	r2, [r3, #0]
 8000568:	4b2e      	ldr	r3, [pc, #184]	; (8000624 <handleGesture+0x200>)
 800056a:	681b      	ldr	r3, [r3, #0]
 800056c:	2284      	movs	r2, #132	; 0x84
 800056e:	18ba      	adds	r2, r7, r2
 8000570:	6812      	ldr	r2, [r2, #0]
 8000572:	429a      	cmp	r2, r3
 8000574:	dd02      	ble.n	800057c <handleGesture+0x158>
 8000576:	4b2c      	ldr	r3, [pc, #176]	; (8000628 <handleGesture+0x204>)
 8000578:	2200      	movs	r2, #0
 800057a:	701a      	strb	r2, [r3, #0]
 800057c:	4b27      	ldr	r3, [pc, #156]	; (800061c <handleGesture+0x1f8>)
 800057e:	2200      	movs	r2, #0
 8000580:	601a      	str	r2, [r3, #0]
 8000582:	4b27      	ldr	r3, [pc, #156]	; (8000620 <handleGesture+0x1fc>)
 8000584:	2200      	movs	r2, #0
 8000586:	601a      	str	r2, [r3, #0]
 8000588:	4b22      	ldr	r3, [pc, #136]	; (8000614 <handleGesture+0x1f0>)
 800058a:	2200      	movs	r2, #0
 800058c:	601a      	str	r2, [r3, #0]
 800058e:	4b22      	ldr	r3, [pc, #136]	; (8000618 <handleGesture+0x1f4>)
 8000590:	2200      	movs	r2, #0
 8000592:	601a      	str	r2, [r3, #0]
 8000594:	e021      	b.n	80005da <handleGesture+0x1b6>
 8000596:	238e      	movs	r3, #142	; 0x8e
 8000598:	18fb      	adds	r3, r7, r3
 800059a:	781a      	ldrb	r2, [r3, #0]
 800059c:	238f      	movs	r3, #143	; 0x8f
 800059e:	18fb      	adds	r3, r7, r3
 80005a0:	781b      	ldrb	r3, [r3, #0]
 80005a2:	1ad2      	subs	r2, r2, r3
 80005a4:	4b1d      	ldr	r3, [pc, #116]	; (800061c <handleGesture+0x1f8>)
 80005a6:	601a      	str	r2, [r3, #0]
 80005a8:	2391      	movs	r3, #145	; 0x91
 80005aa:	18fb      	adds	r3, r7, r3
 80005ac:	781a      	ldrb	r2, [r3, #0]
 80005ae:	2390      	movs	r3, #144	; 0x90
 80005b0:	18fb      	adds	r3, r7, r3
 80005b2:	781b      	ldrb	r3, [r3, #0]
 80005b4:	1ad2      	subs	r2, r2, r3
 80005b6:	4b1a      	ldr	r3, [pc, #104]	; (8000620 <handleGesture+0x1fc>)
 80005b8:	601a      	str	r2, [r3, #0]
 80005ba:	4b15      	ldr	r3, [pc, #84]	; (8000610 <handleGesture+0x1ec>)
 80005bc:	781b      	ldrb	r3, [r3, #0]
 80005be:	2b00      	cmp	r3, #0
 80005c0:	d00c      	beq.n	80005dc <handleGesture+0x1b8>
 80005c2:	4b13      	ldr	r3, [pc, #76]	; (8000610 <handleGesture+0x1ec>)
 80005c4:	2200      	movs	r2, #0
 80005c6:	701a      	strb	r2, [r3, #0]
 80005c8:	4b14      	ldr	r3, [pc, #80]	; (800061c <handleGesture+0x1f8>)
 80005ca:	681a      	ldr	r2, [r3, #0]
 80005cc:	4b11      	ldr	r3, [pc, #68]	; (8000614 <handleGesture+0x1f0>)
 80005ce:	601a      	str	r2, [r3, #0]
 80005d0:	4b13      	ldr	r3, [pc, #76]	; (8000620 <handleGesture+0x1fc>)
 80005d2:	681a      	ldr	r2, [r3, #0]
 80005d4:	4b10      	ldr	r3, [pc, #64]	; (8000618 <handleGesture+0x1f4>)
 80005d6:	601a      	str	r2, [r3, #0]
 80005d8:	e000      	b.n	80005dc <handleGesture+0x1b8>
 80005da:	46c0      	nop			; (mov r8, r8)
 80005dc:	2294      	movs	r2, #148	; 0x94
 80005de:	18bb      	adds	r3, r7, r2
 80005e0:	681b      	ldr	r3, [r3, #0]
 80005e2:	3304      	adds	r3, #4
 80005e4:	18ba      	adds	r2, r7, r2
 80005e6:	6013      	str	r3, [r2, #0]
 80005e8:	2394      	movs	r3, #148	; 0x94
 80005ea:	18fb      	adds	r3, r7, r3
 80005ec:	681b      	ldr	r3, [r3, #0]
 80005ee:	1cda      	adds	r2, r3, #3
 80005f0:	2392      	movs	r3, #146	; 0x92
 80005f2:	18fb      	adds	r3, r7, r3
 80005f4:	781b      	ldrb	r3, [r3, #0]
 80005f6:	009b      	lsls	r3, r3, #2
 80005f8:	429a      	cmp	r2, r3
 80005fa:	da00      	bge.n	80005fe <handleGesture+0x1da>
 80005fc:	e740      	b.n	8000480 <handleGesture+0x5c>
 80005fe:	e718      	b.n	8000432 <handleGesture+0xe>
 8000600:	0018      	movs	r0, r3
 8000602:	46bd      	mov	sp, r7
 8000604:	b027      	add	sp, #156	; 0x9c
 8000606:	bdf0      	pop	{r4, r5, r6, r7, pc}
 8000608:	20000000 	.word	0x20000000
 800060c:	200000b4 	.word	0x200000b4
 8000610:	20000087 	.word	0x20000087
 8000614:	20000090 	.word	0x20000090
 8000618:	20000094 	.word	0x20000094
 800061c:	20000088 	.word	0x20000088
 8000620:	2000008c 	.word	0x2000008c
 8000624:	20000098 	.word	0x20000098
 8000628:	20000086 	.word	0x20000086

0800062c <gestureAvailable>:
 800062c:	b590      	push	{r4, r7, lr}
 800062e:	b083      	sub	sp, #12
 8000630:	af00      	add	r7, sp, #0
 8000632:	1dfc      	adds	r4, r7, #7
 8000634:	2080      	movs	r0, #128	; 0x80
 8000636:	f000 f867 	bl	8000708 <read8>
 800063a:	0003      	movs	r3, r0
 800063c:	7023      	strb	r3, [r4, #0]
 800063e:	1dfb      	adds	r3, r7, #7
 8000640:	781b      	ldrb	r3, [r3, #0]
 8000642:	2240      	movs	r2, #64	; 0x40
 8000644:	4013      	ands	r3, r2
 8000646:	d003      	beq.n	8000650 <gestureAvailable+0x24>
 8000648:	4b1b      	ldr	r3, [pc, #108]	; (80006b8 <gestureAvailable+0x8c>)
 800064a:	2201      	movs	r2, #1
 800064c:	701a      	strb	r2, [r3, #0]
 800064e:	e019      	b.n	8000684 <gestureAvailable+0x58>
 8000650:	1dfb      	adds	r3, r7, #7
 8000652:	1dfa      	adds	r2, r7, #7
 8000654:	7812      	ldrb	r2, [r2, #0]
 8000656:	2141      	movs	r1, #65	; 0x41
 8000658:	430a      	orrs	r2, r1
 800065a:	701a      	strb	r2, [r3, #0]
 800065c:	1dfb      	adds	r3, r7, #7
 800065e:	781b      	ldrb	r3, [r3, #0]
 8000660:	0019      	movs	r1, r3
 8000662:	2080      	movs	r0, #128	; 0x80
 8000664:	f000 f82a 	bl	80006bc <write8>
 8000668:	1dfc      	adds	r4, r7, #7
 800066a:	2080      	movs	r0, #128	; 0x80
 800066c:	f000 f84c 	bl	8000708 <read8>
 8000670:	0003      	movs	r3, r0
 8000672:	7023      	strb	r3, [r4, #0]
 8000674:	1dfb      	adds	r3, r7, #7
 8000676:	781b      	ldrb	r3, [r3, #0]
 8000678:	2240      	movs	r2, #64	; 0x40
 800067a:	4013      	ands	r3, r2
 800067c:	d002      	beq.n	8000684 <gestureAvailable+0x58>
 800067e:	4b0e      	ldr	r3, [pc, #56]	; (80006b8 <gestureAvailable+0x8c>)
 8000680:	2201      	movs	r2, #1
 8000682:	701a      	strb	r2, [r3, #0]
 8000684:	2380      	movs	r3, #128	; 0x80
 8000686:	021a      	lsls	r2, r3, #8
 8000688:	2390      	movs	r3, #144	; 0x90
 800068a:	05db      	lsls	r3, r3, #23
 800068c:	0011      	movs	r1, r2
 800068e:	0018      	movs	r0, r3
 8000690:	f002 fe5c 	bl	800334c <HAL_GPIO_ReadPin>
 8000694:	1e03      	subs	r3, r0, #0
 8000696:	d001      	beq.n	800069c <gestureAvailable+0x70>
 8000698:	2300      	movs	r3, #0
 800069a:	e008      	b.n	80006ae <gestureAvailable+0x82>
 800069c:	f7ff fe8e 	bl	80003bc <gestureFIFOAvailable>
 80006a0:	1e03      	subs	r3, r0, #0
 80006a2:	d101      	bne.n	80006a8 <gestureAvailable+0x7c>
 80006a4:	2300      	movs	r3, #0
 80006a6:	e002      	b.n	80006ae <gestureAvailable+0x82>
 80006a8:	f7ff febc 	bl	8000424 <handleGesture>
 80006ac:	2301      	movs	r3, #1
 80006ae:	0018      	movs	r0, r3
 80006b0:	46bd      	mov	sp, r7
 80006b2:	b003      	add	sp, #12
 80006b4:	bd90      	pop	{r4, r7, pc}
 80006b6:	46c0      	nop			; (mov r8, r8)
 80006b8:	20000084 	.word	0x20000084

080006bc <write8>:
 80006bc:	b580      	push	{r7, lr}
 80006be:	b086      	sub	sp, #24
 80006c0:	af04      	add	r7, sp, #16
 80006c2:	0002      	movs	r2, r0
 80006c4:	1dfb      	adds	r3, r7, #7
 80006c6:	701a      	strb	r2, [r3, #0]
 80006c8:	1dbb      	adds	r3, r7, #6
 80006ca:	1c0a      	adds	r2, r1, #0
 80006cc:	701a      	strb	r2, [r3, #0]
 80006ce:	4b0c      	ldr	r3, [pc, #48]	; (8000700 <write8+0x44>)
 80006d0:	8819      	ldrh	r1, [r3, #0]
 80006d2:	1dfb      	adds	r3, r7, #7
 80006d4:	781b      	ldrb	r3, [r3, #0]
 80006d6:	b29a      	uxth	r2, r3
 80006d8:	480a      	ldr	r0, [pc, #40]	; (8000704 <write8+0x48>)
 80006da:	230a      	movs	r3, #10
 80006dc:	9302      	str	r3, [sp, #8]
 80006de:	2301      	movs	r3, #1
 80006e0:	9301      	str	r3, [sp, #4]
 80006e2:	1dbb      	adds	r3, r7, #6
 80006e4:	9300      	str	r3, [sp, #0]
 80006e6:	2301      	movs	r3, #1
 80006e8:	f002 ff1c 	bl	8003524 <HAL_I2C_Mem_Write>
 80006ec:	1e03      	subs	r3, r0, #0
 80006ee:	d001      	beq.n	80006f4 <write8+0x38>
 80006f0:	2300      	movs	r3, #0
 80006f2:	e000      	b.n	80006f6 <write8+0x3a>
 80006f4:	2301      	movs	r3, #1
 80006f6:	0018      	movs	r0, r3
 80006f8:	46bd      	mov	sp, r7
 80006fa:	b002      	add	sp, #8
 80006fc:	bd80      	pop	{r7, pc}
 80006fe:	46c0      	nop			; (mov r8, r8)
 8000700:	20000000 	.word	0x20000000
 8000704:	200000b4 	.word	0x200000b4

08000708 <read8>:
 8000708:	b580      	push	{r7, lr}
 800070a:	b088      	sub	sp, #32
 800070c:	af04      	add	r7, sp, #16
 800070e:	0002      	movs	r2, r0
 8000710:	1dfb      	adds	r3, r7, #7
 8000712:	701a      	strb	r2, [r3, #0]
 8000714:	4b0d      	ldr	r3, [pc, #52]	; (800074c <read8+0x44>)
 8000716:	8819      	ldrh	r1, [r3, #0]
 8000718:	1dfb      	adds	r3, r7, #7
 800071a:	781b      	ldrb	r3, [r3, #0]
 800071c:	b29a      	uxth	r2, r3
 800071e:	480c      	ldr	r0, [pc, #48]	; (8000750 <read8+0x48>)
 8000720:	230a      	movs	r3, #10
 8000722:	9302      	str	r3, [sp, #8]
 8000724:	2301      	movs	r3, #1
 8000726:	9301      	str	r3, [sp, #4]
 8000728:	230f      	movs	r3, #15
 800072a:	18fb      	adds	r3, r7, r3
 800072c:	9300      	str	r3, [sp, #0]
 800072e:	2301      	movs	r3, #1
 8000730:	f003 f826 	bl	8003780 <HAL_I2C_Mem_Read>
 8000734:	1e03      	subs	r3, r0, #0
 8000736:	d001      	beq.n	800073c <read8+0x34>
 8000738:	2300      	movs	r3, #0
 800073a:	e002      	b.n	8000742 <read8+0x3a>
 800073c:	230f      	movs	r3, #15
 800073e:	18fb      	adds	r3, r7, r3
 8000740:	781b      	ldrb	r3, [r3, #0]
 8000742:	0018      	movs	r0, r3
 8000744:	46bd      	mov	sp, r7
 8000746:	b004      	add	sp, #16
 8000748:	bd80      	pop	{r7, pc}
 800074a:	46c0      	nop			; (mov r8, r8)
 800074c:	20000000 	.word	0x20000000
 8000750:	200000b4 	.word	0x200000b4

08000754 <lcd_init>:
 8000754:	b580      	push	{r7, lr}
 8000756:	af00      	add	r7, sp, #0
 8000758:	201e      	movs	r0, #30
 800075a:	f002 fb85 	bl	8002e68 <HAL_Delay>
 800075e:	2390      	movs	r3, #144	; 0x90
 8000760:	05db      	lsls	r3, r3, #23
 8000762:	2200      	movs	r2, #0
 8000764:	2101      	movs	r1, #1
 8000766:	0018      	movs	r0, r3
 8000768:	f002 fe0d 	bl	8003386 <HAL_GPIO_WritePin>
 800076c:	2390      	movs	r3, #144	; 0x90
 800076e:	05db      	lsls	r3, r3, #23
 8000770:	2201      	movs	r2, #1
 8000772:	2102      	movs	r1, #2
 8000774:	0018      	movs	r0, r3
 8000776:	f002 fe06 	bl	8003386 <HAL_GPIO_WritePin>
 800077a:	2390      	movs	r3, #144	; 0x90
 800077c:	05db      	lsls	r3, r3, #23
 800077e:	2200      	movs	r2, #0
 8000780:	2104      	movs	r1, #4
 8000782:	0018      	movs	r0, r3
 8000784:	f002 fdff 	bl	8003386 <HAL_GPIO_WritePin>
 8000788:	2390      	movs	r3, #144	; 0x90
 800078a:	05db      	lsls	r3, r3, #23
 800078c:	2200      	movs	r2, #0
 800078e:	2108      	movs	r1, #8
 8000790:	0018      	movs	r0, r3
 8000792:	f002 fdf8 	bl	8003386 <HAL_GPIO_WritePin>
 8000796:	2390      	movs	r3, #144	; 0x90
 8000798:	05db      	lsls	r3, r3, #23
 800079a:	2200      	movs	r2, #0
 800079c:	2120      	movs	r1, #32
 800079e:	0018      	movs	r0, r3
 80007a0:	f002 fdf1 	bl	8003386 <HAL_GPIO_WritePin>
 80007a4:	2390      	movs	r3, #144	; 0x90
 80007a6:	05db      	lsls	r3, r3, #23
 80007a8:	2201      	movs	r2, #1
 80007aa:	2110      	movs	r1, #16
 80007ac:	0018      	movs	r0, r3
 80007ae:	f002 fdea 	bl	8003386 <HAL_GPIO_WritePin>
 80007b2:	2390      	movs	r3, #144	; 0x90
 80007b4:	05db      	lsls	r3, r3, #23
 80007b6:	2200      	movs	r2, #0
 80007b8:	2110      	movs	r1, #16
 80007ba:	0018      	movs	r0, r3
 80007bc:	f002 fde3 	bl	8003386 <HAL_GPIO_WritePin>
 80007c0:	2032      	movs	r0, #50	; 0x32
 80007c2:	f002 fb51 	bl	8002e68 <HAL_Delay>
 80007c6:	2128      	movs	r1, #40	; 0x28
 80007c8:	2000      	movs	r0, #0
 80007ca:	f000 f822 	bl	8000812 <lcd_write>
 80007ce:	2001      	movs	r0, #1
 80007d0:	f002 fb4a 	bl	8002e68 <HAL_Delay>
 80007d4:	210c      	movs	r1, #12
 80007d6:	2000      	movs	r0, #0
 80007d8:	f000 f81b 	bl	8000812 <lcd_write>
 80007dc:	2001      	movs	r0, #1
 80007de:	f002 fb43 	bl	8002e68 <HAL_Delay>
 80007e2:	2106      	movs	r1, #6
 80007e4:	2000      	movs	r0, #0
 80007e6:	f000 f814 	bl	8000812 <lcd_write>
 80007ea:	2001      	movs	r0, #1
 80007ec:	f002 fb3c 	bl	8002e68 <HAL_Delay>
 80007f0:	2101      	movs	r1, #1
 80007f2:	2000      	movs	r0, #0
 80007f4:	f000 f80d 	bl	8000812 <lcd_write>
 80007f8:	2001      	movs	r0, #1
 80007fa:	f002 fb35 	bl	8002e68 <HAL_Delay>
 80007fe:	2180      	movs	r1, #128	; 0x80
 8000800:	2000      	movs	r0, #0
 8000802:	f000 f806 	bl	8000812 <lcd_write>
 8000806:	2001      	movs	r0, #1
 8000808:	f002 fb2e 	bl	8002e68 <HAL_Delay>
 800080c:	46c0      	nop			; (mov r8, r8)
 800080e:	46bd      	mov	sp, r7
 8000810:	bd80      	pop	{r7, pc}

08000812 <lcd_write>:
 8000812:	b580      	push	{r7, lr}
 8000814:	b082      	sub	sp, #8
 8000816:	af00      	add	r7, sp, #0
 8000818:	0002      	movs	r2, r0
 800081a:	1dfb      	adds	r3, r7, #7
 800081c:	701a      	strb	r2, [r3, #0]
 800081e:	1dbb      	adds	r3, r7, #6
 8000820:	1c0a      	adds	r2, r1, #0
 8000822:	701a      	strb	r2, [r3, #0]
 8000824:	2002      	movs	r0, #2
 8000826:	f002 fb1f 	bl	8002e68 <HAL_Delay>
 800082a:	1dfb      	adds	r3, r7, #7
 800082c:	781b      	ldrb	r3, [r3, #0]
 800082e:	2b00      	cmp	r3, #0
 8000830:	d007      	beq.n	8000842 <lcd_write+0x30>
 8000832:	2390      	movs	r3, #144	; 0x90
 8000834:	05db      	lsls	r3, r3, #23
 8000836:	2201      	movs	r2, #1
 8000838:	2120      	movs	r1, #32
 800083a:	0018      	movs	r0, r3
 800083c:	f002 fda3 	bl	8003386 <HAL_GPIO_WritePin>
 8000840:	e006      	b.n	8000850 <lcd_write+0x3e>
 8000842:	2390      	movs	r3, #144	; 0x90
 8000844:	05db      	lsls	r3, r3, #23
 8000846:	2200      	movs	r2, #0
 8000848:	2120      	movs	r1, #32
 800084a:	0018      	movs	r0, r3
 800084c:	f002 fd9b 	bl	8003386 <HAL_GPIO_WritePin>
 8000850:	1dbb      	adds	r3, r7, #6
 8000852:	781b      	ldrb	r3, [r3, #0]
 8000854:	b25b      	sxtb	r3, r3
 8000856:	2b00      	cmp	r3, #0
 8000858:	da07      	bge.n	800086a <lcd_write+0x58>
 800085a:	2390      	movs	r3, #144	; 0x90
 800085c:	05db      	lsls	r3, r3, #23
 800085e:	2201      	movs	r2, #1
 8000860:	2108      	movs	r1, #8
 8000862:	0018      	movs	r0, r3
 8000864:	f002 fd8f 	bl	8003386 <HAL_GPIO_WritePin>
 8000868:	e006      	b.n	8000878 <lcd_write+0x66>
 800086a:	2390      	movs	r3, #144	; 0x90
 800086c:	05db      	lsls	r3, r3, #23
 800086e:	2200      	movs	r2, #0
 8000870:	2108      	movs	r1, #8
 8000872:	0018      	movs	r0, r3
 8000874:	f002 fd87 	bl	8003386 <HAL_GPIO_WritePin>
 8000878:	1dbb      	adds	r3, r7, #6
 800087a:	781b      	ldrb	r3, [r3, #0]
 800087c:	2240      	movs	r2, #64	; 0x40
 800087e:	4013      	ands	r3, r2
 8000880:	d007      	beq.n	8000892 <lcd_write+0x80>
 8000882:	2390      	movs	r3, #144	; 0x90
 8000884:	05db      	lsls	r3, r3, #23
 8000886:	2201      	movs	r2, #1
 8000888:	2104      	movs	r1, #4
 800088a:	0018      	movs	r0, r3
 800088c:	f002 fd7b 	bl	8003386 <HAL_GPIO_WritePin>
 8000890:	e006      	b.n	80008a0 <lcd_write+0x8e>
 8000892:	2390      	movs	r3, #144	; 0x90
 8000894:	05db      	lsls	r3, r3, #23
 8000896:	2200      	movs	r2, #0
 8000898:	2104      	movs	r1, #4
 800089a:	0018      	movs	r0, r3
 800089c:	f002 fd73 	bl	8003386 <HAL_GPIO_WritePin>
 80008a0:	1dbb      	adds	r3, r7, #6
 80008a2:	781b      	ldrb	r3, [r3, #0]
 80008a4:	2220      	movs	r2, #32
 80008a6:	4013      	ands	r3, r2
 80008a8:	d007      	beq.n	80008ba <lcd_write+0xa8>
 80008aa:	2390      	movs	r3, #144	; 0x90
 80008ac:	05db      	lsls	r3, r3, #23
 80008ae:	2201      	movs	r2, #1
 80008b0:	2102      	movs	r1, #2
 80008b2:	0018      	movs	r0, r3
 80008b4:	f002 fd67 	bl	8003386 <HAL_GPIO_WritePin>
 80008b8:	e006      	b.n	80008c8 <lcd_write+0xb6>
 80008ba:	2390      	movs	r3, #144	; 0x90
 80008bc:	05db      	lsls	r3, r3, #23
 80008be:	2200      	movs	r2, #0
 80008c0:	2102      	movs	r1, #2
 80008c2:	0018      	movs	r0, r3
 80008c4:	f002 fd5f 	bl	8003386 <HAL_GPIO_WritePin>
 80008c8:	1dbb      	adds	r3, r7, #6
 80008ca:	781b      	ldrb	r3, [r3, #0]
 80008cc:	2210      	movs	r2, #16
 80008ce:	4013      	ands	r3, r2
 80008d0:	d007      	beq.n	80008e2 <lcd_write+0xd0>
 80008d2:	2390      	movs	r3, #144	; 0x90
 80008d4:	05db      	lsls	r3, r3, #23
 80008d6:	2201      	movs	r2, #1
 80008d8:	2101      	movs	r1, #1
 80008da:	0018      	movs	r0, r3
 80008dc:	f002 fd53 	bl	8003386 <HAL_GPIO_WritePin>
 80008e0:	e006      	b.n	80008f0 <lcd_write+0xde>
 80008e2:	2390      	movs	r3, #144	; 0x90
 80008e4:	05db      	lsls	r3, r3, #23
 80008e6:	2200      	movs	r2, #0
 80008e8:	2101      	movs	r1, #1
 80008ea:	0018      	movs	r0, r3
 80008ec:	f002 fd4b 	bl	8003386 <HAL_GPIO_WritePin>
 80008f0:	2390      	movs	r3, #144	; 0x90
 80008f2:	05db      	lsls	r3, r3, #23
 80008f4:	2201      	movs	r2, #1
 80008f6:	2110      	movs	r1, #16
 80008f8:	0018      	movs	r0, r3
 80008fa:	f002 fd44 	bl	8003386 <HAL_GPIO_WritePin>
 80008fe:	2390      	movs	r3, #144	; 0x90
 8000900:	05db      	lsls	r3, r3, #23
 8000902:	2200      	movs	r2, #0
 8000904:	2110      	movs	r1, #16
 8000906:	0018      	movs	r0, r3
 8000908:	f002 fd3d 	bl	8003386 <HAL_GPIO_WritePin>
 800090c:	1dbb      	adds	r3, r7, #6
 800090e:	781b      	ldrb	r3, [r3, #0]
 8000910:	2208      	movs	r2, #8
 8000912:	4013      	ands	r3, r2
 8000914:	d007      	beq.n	8000926 <lcd_write+0x114>
 8000916:	2390      	movs	r3, #144	; 0x90
 8000918:	05db      	lsls	r3, r3, #23
 800091a:	2201      	movs	r2, #1
 800091c:	2108      	movs	r1, #8
 800091e:	0018      	movs	r0, r3
 8000920:	f002 fd31 	bl	8003386 <HAL_GPIO_WritePin>
 8000924:	e006      	b.n	8000934 <lcd_write+0x122>
 8000926:	2390      	movs	r3, #144	; 0x90
 8000928:	05db      	lsls	r3, r3, #23
 800092a:	2200      	movs	r2, #0
 800092c:	2108      	movs	r1, #8
 800092e:	0018      	movs	r0, r3
 8000930:	f002 fd29 	bl	8003386 <HAL_GPIO_WritePin>
 8000934:	1dbb      	adds	r3, r7, #6
 8000936:	781b      	ldrb	r3, [r3, #0]
 8000938:	2204      	movs	r2, #4
 800093a:	4013      	ands	r3, r2
 800093c:	d007      	beq.n	800094e <lcd_write+0x13c>
 800093e:	2390      	movs	r3, #144	; 0x90
 8000940:	05db      	lsls	r3, r3, #23
 8000942:	2201      	movs	r2, #1
 8000944:	2104      	movs	r1, #4
 8000946:	0018      	movs	r0, r3
 8000948:	f002 fd1d 	bl	8003386 <HAL_GPIO_WritePin>
 800094c:	e006      	b.n	800095c <lcd_write+0x14a>
 800094e:	2390      	movs	r3, #144	; 0x90
 8000950:	05db      	lsls	r3, r3, #23
 8000952:	2200      	movs	r2, #0
 8000954:	2104      	movs	r1, #4
 8000956:	0018      	movs	r0, r3
 8000958:	f002 fd15 	bl	8003386 <HAL_GPIO_WritePin>
 800095c:	1dbb      	adds	r3, r7, #6
 800095e:	781b      	ldrb	r3, [r3, #0]
 8000960:	2202      	movs	r2, #2
 8000962:	4013      	ands	r3, r2
 8000964:	d007      	beq.n	8000976 <lcd_write+0x164>
 8000966:	2390      	movs	r3, #144	; 0x90
 8000968:	05db      	lsls	r3, r3, #23
 800096a:	2201      	movs	r2, #1
 800096c:	2102      	movs	r1, #2
 800096e:	0018      	movs	r0, r3
 8000970:	f002 fd09 	bl	8003386 <HAL_GPIO_WritePin>
 8000974:	e006      	b.n	8000984 <lcd_write+0x172>
 8000976:	2390      	movs	r3, #144	; 0x90
 8000978:	05db      	lsls	r3, r3, #23
 800097a:	2200      	movs	r2, #0
 800097c:	2102      	movs	r1, #2
 800097e:	0018      	movs	r0, r3
 8000980:	f002 fd01 	bl	8003386 <HAL_GPIO_WritePin>
 8000984:	1dbb      	adds	r3, r7, #6
 8000986:	781b      	ldrb	r3, [r3, #0]
 8000988:	2201      	movs	r2, #1
 800098a:	4013      	ands	r3, r2
 800098c:	d007      	beq.n	800099e <lcd_write+0x18c>
 800098e:	2390      	movs	r3, #144	; 0x90
 8000990:	05db      	lsls	r3, r3, #23
 8000992:	2201      	movs	r2, #1
 8000994:	2101      	movs	r1, #1
 8000996:	0018      	movs	r0, r3
 8000998:	f002 fcf5 	bl	8003386 <HAL_GPIO_WritePin>
 800099c:	e006      	b.n	80009ac <lcd_write+0x19a>
 800099e:	2390      	movs	r3, #144	; 0x90
 80009a0:	05db      	lsls	r3, r3, #23
 80009a2:	2200      	movs	r2, #0
 80009a4:	2101      	movs	r1, #1
 80009a6:	0018      	movs	r0, r3
 80009a8:	f002 fced 	bl	8003386 <HAL_GPIO_WritePin>
 80009ac:	2390      	movs	r3, #144	; 0x90
 80009ae:	05db      	lsls	r3, r3, #23
 80009b0:	2201      	movs	r2, #1
 80009b2:	2110      	movs	r1, #16
 80009b4:	0018      	movs	r0, r3
 80009b6:	f002 fce6 	bl	8003386 <HAL_GPIO_WritePin>
 80009ba:	2390      	movs	r3, #144	; 0x90
 80009bc:	05db      	lsls	r3, r3, #23
 80009be:	2200      	movs	r2, #0
 80009c0:	2110      	movs	r1, #16
 80009c2:	0018      	movs	r0, r3
 80009c4:	f002 fcdf 	bl	8003386 <HAL_GPIO_WritePin>
 80009c8:	46c0      	nop			; (mov r8, r8)
 80009ca:	46bd      	mov	sp, r7
 80009cc:	b002      	add	sp, #8
 80009ce:	bd80      	pop	{r7, pc}

080009d0 <lcd_puts>:
 80009d0:	b580      	push	{r7, lr}
 80009d2:	b082      	sub	sp, #8
 80009d4:	af00      	add	r7, sp, #0
 80009d6:	603a      	str	r2, [r7, #0]
 80009d8:	1dfb      	adds	r3, r7, #7
 80009da:	1c02      	adds	r2, r0, #0
 80009dc:	701a      	strb	r2, [r3, #0]
 80009de:	1dbb      	adds	r3, r7, #6
 80009e0:	1c0a      	adds	r2, r1, #0
 80009e2:	701a      	strb	r2, [r3, #0]
 80009e4:	1dfb      	adds	r3, r7, #7
 80009e6:	781b      	ldrb	r3, [r3, #0]
 80009e8:	2b03      	cmp	r3, #3
 80009ea:	d023      	beq.n	8000a34 <lcd_puts+0x64>
 80009ec:	dc37      	bgt.n	8000a5e <lcd_puts+0x8e>
 80009ee:	2b02      	cmp	r3, #2
 80009f0:	d017      	beq.n	8000a22 <lcd_puts+0x52>
 80009f2:	dc34      	bgt.n	8000a5e <lcd_puts+0x8e>
 80009f4:	2b00      	cmp	r3, #0
 80009f6:	d002      	beq.n	80009fe <lcd_puts+0x2e>
 80009f8:	2b01      	cmp	r3, #1
 80009fa:	d009      	beq.n	8000a10 <lcd_puts+0x40>
 80009fc:	e023      	b.n	8000a46 <lcd_puts+0x76>
 80009fe:	1dbb      	adds	r3, r7, #6
 8000a00:	781b      	ldrb	r3, [r3, #0]
 8000a02:	3b80      	subs	r3, #128	; 0x80
 8000a04:	b2db      	uxtb	r3, r3
 8000a06:	0019      	movs	r1, r3
 8000a08:	2000      	movs	r0, #0
 8000a0a:	f7ff ff02 	bl	8000812 <lcd_write>
 8000a0e:	e01a      	b.n	8000a46 <lcd_puts+0x76>
 8000a10:	1dbb      	adds	r3, r7, #6
 8000a12:	781b      	ldrb	r3, [r3, #0]
 8000a14:	3b40      	subs	r3, #64	; 0x40
 8000a16:	b2db      	uxtb	r3, r3
 8000a18:	0019      	movs	r1, r3
 8000a1a:	2000      	movs	r0, #0
 8000a1c:	f7ff fef9 	bl	8000812 <lcd_write>
 8000a20:	e011      	b.n	8000a46 <lcd_puts+0x76>
 8000a22:	1dbb      	adds	r3, r7, #6
 8000a24:	781b      	ldrb	r3, [r3, #0]
 8000a26:	3b6c      	subs	r3, #108	; 0x6c
 8000a28:	b2db      	uxtb	r3, r3
 8000a2a:	0019      	movs	r1, r3
 8000a2c:	2000      	movs	r0, #0
 8000a2e:	f7ff fef0 	bl	8000812 <lcd_write>
 8000a32:	e008      	b.n	8000a46 <lcd_puts+0x76>
 8000a34:	1dbb      	adds	r3, r7, #6
 8000a36:	781b      	ldrb	r3, [r3, #0]
 8000a38:	3b2c      	subs	r3, #44	; 0x2c
 8000a3a:	b2db      	uxtb	r3, r3
 8000a3c:	0019      	movs	r1, r3
 8000a3e:	2000      	movs	r0, #0
 8000a40:	f7ff fee7 	bl	8000812 <lcd_write>
 8000a44:	46c0      	nop			; (mov r8, r8)
 8000a46:	e00a      	b.n	8000a5e <lcd_puts+0x8e>
 8000a48:	683b      	ldr	r3, [r7, #0]
 8000a4a:	781b      	ldrb	r3, [r3, #0]
 8000a4c:	b25b      	sxtb	r3, r3
 8000a4e:	b2db      	uxtb	r3, r3
 8000a50:	0019      	movs	r1, r3
 8000a52:	2001      	movs	r0, #1
 8000a54:	f7ff fedd 	bl	8000812 <lcd_write>
 8000a58:	683b      	ldr	r3, [r7, #0]
 8000a5a:	3301      	adds	r3, #1
 8000a5c:	603b      	str	r3, [r7, #0]
 8000a5e:	683b      	ldr	r3, [r7, #0]
 8000a60:	781b      	ldrb	r3, [r3, #0]
 8000a62:	b25b      	sxtb	r3, r3
 8000a64:	2b00      	cmp	r3, #0
 8000a66:	d1ef      	bne.n	8000a48 <lcd_puts+0x78>
 8000a68:	46c0      	nop			; (mov r8, r8)
 8000a6a:	46c0      	nop			; (mov r8, r8)
 8000a6c:	46bd      	mov	sp, r7
 8000a6e:	b002      	add	sp, #8
 8000a70:	bd80      	pop	{r7, pc}
	...

08000a74 <clr_data>:
 8000a74:	b580      	push	{r7, lr}
 8000a76:	b082      	sub	sp, #8
 8000a78:	af00      	add	r7, sp, #0
 8000a7a:	0002      	movs	r2, r0
 8000a7c:	1dfb      	adds	r3, r7, #7
 8000a7e:	701a      	strb	r2, [r3, #0]
 8000a80:	1dfb      	adds	r3, r7, #7
 8000a82:	781b      	ldrb	r3, [r3, #0]
 8000a84:	2b0a      	cmp	r3, #10
 8000a86:	d900      	bls.n	8000a8a <clr_data+0x16>
 8000a88:	e0c8      	b.n	8000c1c <clr_data+0x1a8>
 8000a8a:	009a      	lsls	r2, r3, #2
 8000a8c:	4b65      	ldr	r3, [pc, #404]	; (8000c24 <clr_data+0x1b0>)
 8000a8e:	18d3      	adds	r3, r2, r3
 8000a90:	681b      	ldr	r3, [r3, #0]
 8000a92:	469f      	mov	pc, r3
 8000a94:	4b64      	ldr	r3, [pc, #400]	; (8000c28 <clr_data+0x1b4>)
 8000a96:	001a      	movs	r2, r3
 8000a98:	2107      	movs	r1, #7
 8000a9a:	2001      	movs	r0, #1
 8000a9c:	f7ff ff98 	bl	80009d0 <lcd_puts>
 8000aa0:	4b61      	ldr	r3, [pc, #388]	; (8000c28 <clr_data+0x1b4>)
 8000aa2:	001a      	movs	r2, r3
 8000aa4:	2108      	movs	r1, #8
 8000aa6:	2001      	movs	r0, #1
 8000aa8:	f7ff ff92 	bl	80009d0 <lcd_puts>
 8000aac:	4b5e      	ldr	r3, [pc, #376]	; (8000c28 <clr_data+0x1b4>)
 8000aae:	001a      	movs	r2, r3
 8000ab0:	2109      	movs	r1, #9
 8000ab2:	2001      	movs	r0, #1
 8000ab4:	f7ff ff8c 	bl	80009d0 <lcd_puts>
 8000ab8:	e0b0      	b.n	8000c1c <clr_data+0x1a8>
 8000aba:	4b5b      	ldr	r3, [pc, #364]	; (8000c28 <clr_data+0x1b4>)
 8000abc:	001a      	movs	r2, r3
 8000abe:	2107      	movs	r1, #7
 8000ac0:	2002      	movs	r0, #2
 8000ac2:	f7ff ff85 	bl	80009d0 <lcd_puts>
 8000ac6:	e0a9      	b.n	8000c1c <clr_data+0x1a8>
 8000ac8:	4b57      	ldr	r3, [pc, #348]	; (8000c28 <clr_data+0x1b4>)
 8000aca:	001a      	movs	r2, r3
 8000acc:	2107      	movs	r1, #7
 8000ace:	2003      	movs	r0, #3
 8000ad0:	f7ff ff7e 	bl	80009d0 <lcd_puts>
 8000ad4:	4b54      	ldr	r3, [pc, #336]	; (8000c28 <clr_data+0x1b4>)
 8000ad6:	001a      	movs	r2, r3
 8000ad8:	2108      	movs	r1, #8
 8000ada:	2003      	movs	r0, #3
 8000adc:	f7ff ff78 	bl	80009d0 <lcd_puts>
 8000ae0:	4b51      	ldr	r3, [pc, #324]	; (8000c28 <clr_data+0x1b4>)
 8000ae2:	001a      	movs	r2, r3
 8000ae4:	2109      	movs	r1, #9
 8000ae6:	2003      	movs	r0, #3
 8000ae8:	f7ff ff72 	bl	80009d0 <lcd_puts>
 8000aec:	e096      	b.n	8000c1c <clr_data+0x1a8>
 8000aee:	4b4e      	ldr	r3, [pc, #312]	; (8000c28 <clr_data+0x1b4>)
 8000af0:	001a      	movs	r2, r3
 8000af2:	2111      	movs	r1, #17
 8000af4:	2001      	movs	r0, #1
 8000af6:	f7ff ff6b 	bl	80009d0 <lcd_puts>
 8000afa:	4b4b      	ldr	r3, [pc, #300]	; (8000c28 <clr_data+0x1b4>)
 8000afc:	001a      	movs	r2, r3
 8000afe:	2112      	movs	r1, #18
 8000b00:	2001      	movs	r0, #1
 8000b02:	f7ff ff65 	bl	80009d0 <lcd_puts>
 8000b06:	4b48      	ldr	r3, [pc, #288]	; (8000c28 <clr_data+0x1b4>)
 8000b08:	001a      	movs	r2, r3
 8000b0a:	2113      	movs	r1, #19
 8000b0c:	2001      	movs	r0, #1
 8000b0e:	f7ff ff5f 	bl	80009d0 <lcd_puts>
 8000b12:	e083      	b.n	8000c1c <clr_data+0x1a8>
 8000b14:	4b44      	ldr	r3, [pc, #272]	; (8000c28 <clr_data+0x1b4>)
 8000b16:	001a      	movs	r2, r3
 8000b18:	2111      	movs	r1, #17
 8000b1a:	2002      	movs	r0, #2
 8000b1c:	f7ff ff58 	bl	80009d0 <lcd_puts>
 8000b20:	4b41      	ldr	r3, [pc, #260]	; (8000c28 <clr_data+0x1b4>)
 8000b22:	001a      	movs	r2, r3
 8000b24:	2112      	movs	r1, #18
 8000b26:	2002      	movs	r0, #2
 8000b28:	f7ff ff52 	bl	80009d0 <lcd_puts>
 8000b2c:	4b3e      	ldr	r3, [pc, #248]	; (8000c28 <clr_data+0x1b4>)
 8000b2e:	001a      	movs	r2, r3
 8000b30:	2113      	movs	r1, #19
 8000b32:	2002      	movs	r0, #2
 8000b34:	f7ff ff4c 	bl	80009d0 <lcd_puts>
 8000b38:	e070      	b.n	8000c1c <clr_data+0x1a8>
 8000b3a:	4b3c      	ldr	r3, [pc, #240]	; (8000c2c <clr_data+0x1b8>)
 8000b3c:	001a      	movs	r2, r3
 8000b3e:	2111      	movs	r1, #17
 8000b40:	2003      	movs	r0, #3
 8000b42:	f7ff ff45 	bl	80009d0 <lcd_puts>
 8000b46:	4b39      	ldr	r3, [pc, #228]	; (8000c2c <clr_data+0x1b8>)
 8000b48:	001a      	movs	r2, r3
 8000b4a:	2112      	movs	r1, #18
 8000b4c:	2003      	movs	r0, #3
 8000b4e:	f7ff ff3f 	bl	80009d0 <lcd_puts>
 8000b52:	4b36      	ldr	r3, [pc, #216]	; (8000c2c <clr_data+0x1b8>)
 8000b54:	001a      	movs	r2, r3
 8000b56:	2113      	movs	r1, #19
 8000b58:	2003      	movs	r0, #3
 8000b5a:	f7ff ff39 	bl	80009d0 <lcd_puts>
 8000b5e:	e05d      	b.n	8000c1c <clr_data+0x1a8>
 8000b60:	4b32      	ldr	r3, [pc, #200]	; (8000c2c <clr_data+0x1b8>)
 8000b62:	001a      	movs	r2, r3
 8000b64:	210a      	movs	r1, #10
 8000b66:	2000      	movs	r0, #0
 8000b68:	f7ff ff32 	bl	80009d0 <lcd_puts>
 8000b6c:	4b2f      	ldr	r3, [pc, #188]	; (8000c2c <clr_data+0x1b8>)
 8000b6e:	001a      	movs	r2, r3
 8000b70:	210b      	movs	r1, #11
 8000b72:	2000      	movs	r0, #0
 8000b74:	f7ff ff2c 	bl	80009d0 <lcd_puts>
 8000b78:	4b2c      	ldr	r3, [pc, #176]	; (8000c2c <clr_data+0x1b8>)
 8000b7a:	001a      	movs	r2, r3
 8000b7c:	210c      	movs	r1, #12
 8000b7e:	2000      	movs	r0, #0
 8000b80:	f7ff ff26 	bl	80009d0 <lcd_puts>
 8000b84:	4b29      	ldr	r3, [pc, #164]	; (8000c2c <clr_data+0x1b8>)
 8000b86:	001a      	movs	r2, r3
 8000b88:	210d      	movs	r1, #13
 8000b8a:	2000      	movs	r0, #0
 8000b8c:	f7ff ff20 	bl	80009d0 <lcd_puts>
 8000b90:	4b26      	ldr	r3, [pc, #152]	; (8000c2c <clr_data+0x1b8>)
 8000b92:	001a      	movs	r2, r3
 8000b94:	210e      	movs	r1, #14
 8000b96:	2000      	movs	r0, #0
 8000b98:	f7ff ff1a 	bl	80009d0 <lcd_puts>
 8000b9c:	4b23      	ldr	r3, [pc, #140]	; (8000c2c <clr_data+0x1b8>)
 8000b9e:	001a      	movs	r2, r3
 8000ba0:	210f      	movs	r1, #15
 8000ba2:	2000      	movs	r0, #0
 8000ba4:	f7ff ff14 	bl	80009d0 <lcd_puts>
 8000ba8:	e038      	b.n	8000c1c <clr_data+0x1a8>
 8000baa:	4b20      	ldr	r3, [pc, #128]	; (8000c2c <clr_data+0x1b8>)
 8000bac:	001a      	movs	r2, r3
 8000bae:	210a      	movs	r1, #10
 8000bb0:	2001      	movs	r0, #1
 8000bb2:	f7ff ff0d 	bl	80009d0 <lcd_puts>
 8000bb6:	4b1d      	ldr	r3, [pc, #116]	; (8000c2c <clr_data+0x1b8>)
 8000bb8:	001a      	movs	r2, r3
 8000bba:	210a      	movs	r1, #10
 8000bbc:	2001      	movs	r0, #1
 8000bbe:	f7ff ff07 	bl	80009d0 <lcd_puts>
 8000bc2:	4b1a      	ldr	r3, [pc, #104]	; (8000c2c <clr_data+0x1b8>)
 8000bc4:	001a      	movs	r2, r3
 8000bc6:	210a      	movs	r1, #10
 8000bc8:	2001      	movs	r0, #1
 8000bca:	f7ff ff01 	bl	80009d0 <lcd_puts>
 8000bce:	e025      	b.n	8000c1c <clr_data+0x1a8>
 8000bd0:	4b16      	ldr	r3, [pc, #88]	; (8000c2c <clr_data+0x1b8>)
 8000bd2:	001a      	movs	r2, r3
 8000bd4:	210a      	movs	r1, #10
 8000bd6:	2002      	movs	r0, #2
 8000bd8:	f7ff fefa 	bl	80009d0 <lcd_puts>
 8000bdc:	4b13      	ldr	r3, [pc, #76]	; (8000c2c <clr_data+0x1b8>)
 8000bde:	001a      	movs	r2, r3
 8000be0:	210a      	movs	r1, #10
 8000be2:	2002      	movs	r0, #2
 8000be4:	f7ff fef4 	bl	80009d0 <lcd_puts>
 8000be8:	4b10      	ldr	r3, [pc, #64]	; (8000c2c <clr_data+0x1b8>)
 8000bea:	001a      	movs	r2, r3
 8000bec:	210a      	movs	r1, #10
 8000bee:	2002      	movs	r0, #2
 8000bf0:	f7ff feee 	bl	80009d0 <lcd_puts>
 8000bf4:	e012      	b.n	8000c1c <clr_data+0x1a8>
 8000bf6:	4b0d      	ldr	r3, [pc, #52]	; (8000c2c <clr_data+0x1b8>)
 8000bf8:	001a      	movs	r2, r3
 8000bfa:	210a      	movs	r1, #10
 8000bfc:	2003      	movs	r0, #3
 8000bfe:	f7ff fee7 	bl	80009d0 <lcd_puts>
 8000c02:	4b0a      	ldr	r3, [pc, #40]	; (8000c2c <clr_data+0x1b8>)
 8000c04:	001a      	movs	r2, r3
 8000c06:	210a      	movs	r1, #10
 8000c08:	2003      	movs	r0, #3
 8000c0a:	f7ff fee1 	bl	80009d0 <lcd_puts>
 8000c0e:	4b07      	ldr	r3, [pc, #28]	; (8000c2c <clr_data+0x1b8>)
 8000c10:	001a      	movs	r2, r3
 8000c12:	210a      	movs	r1, #10
 8000c14:	2003      	movs	r0, #3
 8000c16:	f7ff fedb 	bl	80009d0 <lcd_puts>
 8000c1a:	46c0      	nop			; (mov r8, r8)
 8000c1c:	46c0      	nop			; (mov r8, r8)
 8000c1e:	46bd      	mov	sp, r7
 8000c20:	b002      	add	sp, #8
 8000c22:	bd80      	pop	{r7, pc}
 8000c24:	08006438 	.word	0x08006438
 8000c28:	080062c8 	.word	0x080062c8
 8000c2c:	080062cc 	.word	0x080062cc

08000c30 <clr_select>:
 8000c30:	b580      	push	{r7, lr}
 8000c32:	af00      	add	r7, sp, #0
 8000c34:	4b13      	ldr	r3, [pc, #76]	; (8000c84 <clr_select+0x54>)
 8000c36:	001a      	movs	r2, r3
 8000c38:	2100      	movs	r1, #0
 8000c3a:	2001      	movs	r0, #1
 8000c3c:	f7ff fec8 	bl	80009d0 <lcd_puts>
 8000c40:	4b10      	ldr	r3, [pc, #64]	; (8000c84 <clr_select+0x54>)
 8000c42:	001a      	movs	r2, r3
 8000c44:	2100      	movs	r1, #0
 8000c46:	2002      	movs	r0, #2
 8000c48:	f7ff fec2 	bl	80009d0 <lcd_puts>
 8000c4c:	4b0d      	ldr	r3, [pc, #52]	; (8000c84 <clr_select+0x54>)
 8000c4e:	001a      	movs	r2, r3
 8000c50:	2100      	movs	r1, #0
 8000c52:	2003      	movs	r0, #3
 8000c54:	f7ff febc 	bl	80009d0 <lcd_puts>
 8000c58:	4b0a      	ldr	r3, [pc, #40]	; (8000c84 <clr_select+0x54>)
 8000c5a:	001a      	movs	r2, r3
 8000c5c:	210a      	movs	r1, #10
 8000c5e:	2001      	movs	r0, #1
 8000c60:	f7ff feb6 	bl	80009d0 <lcd_puts>
 8000c64:	4b07      	ldr	r3, [pc, #28]	; (8000c84 <clr_select+0x54>)
 8000c66:	001a      	movs	r2, r3
 8000c68:	210a      	movs	r1, #10
 8000c6a:	2002      	movs	r0, #2
 8000c6c:	f7ff feb0 	bl	80009d0 <lcd_puts>
 8000c70:	4b04      	ldr	r3, [pc, #16]	; (8000c84 <clr_select+0x54>)
 8000c72:	001a      	movs	r2, r3
 8000c74:	210a      	movs	r1, #10
 8000c76:	2003      	movs	r0, #3
 8000c78:	f7ff feaa 	bl	80009d0 <lcd_puts>
 8000c7c:	46c0      	nop			; (mov r8, r8)
 8000c7e:	46bd      	mov	sp, r7
 8000c80:	bd80      	pop	{r7, pc}
 8000c82:	46c0      	nop			; (mov r8, r8)
 8000c84:	080062cc 	.word	0x080062cc

08000c88 <lcd_clear>:
 8000c88:	b580      	push	{r7, lr}
 8000c8a:	af00      	add	r7, sp, #0
 8000c8c:	2101      	movs	r1, #1
 8000c8e:	2000      	movs	r0, #0
 8000c90:	f7ff fdbf 	bl	8000812 <lcd_write>
 8000c94:	46c0      	nop			; (mov r8, r8)
 8000c96:	46bd      	mov	sp, r7
 8000c98:	bd80      	pop	{r7, pc}
	...

08000c9c <clock_page>:
 8000c9c:	b580      	push	{r7, lr}
 8000c9e:	af00      	add	r7, sp, #0
 8000ca0:	f7ff fff2 	bl	8000c88 <lcd_clear>
 8000ca4:	4b0d      	ldr	r3, [pc, #52]	; (8000cdc <clock_page+0x40>)
 8000ca6:	001a      	movs	r2, r3
 8000ca8:	2101      	movs	r1, #1
 8000caa:	2000      	movs	r0, #0
 8000cac:	f7ff fe90 	bl	80009d0 <lcd_puts>
 8000cb0:	4b0b      	ldr	r3, [pc, #44]	; (8000ce0 <clock_page+0x44>)
 8000cb2:	001a      	movs	r2, r3
 8000cb4:	2103      	movs	r1, #3
 8000cb6:	2001      	movs	r0, #1
 8000cb8:	f7ff fe8a 	bl	80009d0 <lcd_puts>
 8000cbc:	4b09      	ldr	r3, [pc, #36]	; (8000ce4 <clock_page+0x48>)
 8000cbe:	001a      	movs	r2, r3
 8000cc0:	2103      	movs	r1, #3
 8000cc2:	2002      	movs	r0, #2
 8000cc4:	f7ff fe84 	bl	80009d0 <lcd_puts>
 8000cc8:	4b07      	ldr	r3, [pc, #28]	; (8000ce8 <clock_page+0x4c>)
 8000cca:	001a      	movs	r2, r3
 8000ccc:	2103      	movs	r1, #3
 8000cce:	2003      	movs	r0, #3
 8000cd0:	f7ff fe7e 	bl	80009d0 <lcd_puts>
 8000cd4:	46c0      	nop			; (mov r8, r8)
 8000cd6:	46bd      	mov	sp, r7
 8000cd8:	bd80      	pop	{r7, pc}
 8000cda:	46c0      	nop			; (mov r8, r8)
 8000cdc:	0800632c 	.word	0x0800632c
 8000ce0:	08006340 	.word	0x08006340
 8000ce4:	08006348 	.word	0x08006348
 8000ce8:	08006350 	.word	0x08006350

08000cec <Total_Time_Print>:
 8000cec:	b5f0      	push	{r4, r5, r6, r7, lr}
 8000cee:	b087      	sub	sp, #28
 8000cf0:	af00      	add	r7, sp, #0
 8000cf2:	6078      	str	r0, [r7, #4]
 8000cf4:	687b      	ldr	r3, [r7, #4]
 8000cf6:	617b      	str	r3, [r7, #20]
 8000cf8:	697b      	ldr	r3, [r7, #20]
 8000cfa:	22e1      	movs	r2, #225	; 0xe1
 8000cfc:	0111      	lsls	r1, r2, #4
 8000cfe:	0018      	movs	r0, r3
 8000d00:	f7ff fa0c 	bl	800011c <__udivsi3>
 8000d04:	0003      	movs	r3, r0
 8000d06:	001a      	movs	r2, r3
 8000d08:	2413      	movs	r4, #19
 8000d0a:	193b      	adds	r3, r7, r4
 8000d0c:	701a      	strb	r2, [r3, #0]
 8000d0e:	697b      	ldr	r3, [r7, #20]
 8000d10:	22e1      	movs	r2, #225	; 0xe1
 8000d12:	0111      	lsls	r1, r2, #4
 8000d14:	0018      	movs	r0, r3
 8000d16:	f7ff fa87 	bl	8000228 <__aeabi_uidivmod>
 8000d1a:	000b      	movs	r3, r1
 8000d1c:	617b      	str	r3, [r7, #20]
 8000d1e:	697b      	ldr	r3, [r7, #20]
 8000d20:	213c      	movs	r1, #60	; 0x3c
 8000d22:	0018      	movs	r0, r3
 8000d24:	f7ff f9fa 	bl	800011c <__udivsi3>
 8000d28:	0003      	movs	r3, r0
 8000d2a:	001a      	movs	r2, r3
 8000d2c:	2512      	movs	r5, #18
 8000d2e:	197b      	adds	r3, r7, r5
 8000d30:	701a      	strb	r2, [r3, #0]
 8000d32:	697b      	ldr	r3, [r7, #20]
 8000d34:	213c      	movs	r1, #60	; 0x3c
 8000d36:	0018      	movs	r0, r3
 8000d38:	f7ff fa76 	bl	8000228 <__aeabi_uidivmod>
 8000d3c:	000b      	movs	r3, r1
 8000d3e:	617b      	str	r3, [r7, #20]
 8000d40:	2611      	movs	r6, #17
 8000d42:	19bb      	adds	r3, r7, r6
 8000d44:	697a      	ldr	r2, [r7, #20]
 8000d46:	701a      	strb	r2, [r3, #0]
 8000d48:	193b      	adds	r3, r7, r4
 8000d4a:	781a      	ldrb	r2, [r3, #0]
 8000d4c:	4914      	ldr	r1, [pc, #80]	; (8000da0 <Total_Time_Print+0xb4>)
 8000d4e:	240c      	movs	r4, #12
 8000d50:	193b      	adds	r3, r7, r4
 8000d52:	0018      	movs	r0, r3
 8000d54:	f004 fe06 	bl	8005964 <siprintf>
 8000d58:	193b      	adds	r3, r7, r4
 8000d5a:	001a      	movs	r2, r3
 8000d5c:	2100      	movs	r1, #0
 8000d5e:	2001      	movs	r0, #1
 8000d60:	f7ff fe36 	bl	80009d0 <lcd_puts>
 8000d64:	197b      	adds	r3, r7, r5
 8000d66:	781a      	ldrb	r2, [r3, #0]
 8000d68:	490d      	ldr	r1, [pc, #52]	; (8000da0 <Total_Time_Print+0xb4>)
 8000d6a:	193b      	adds	r3, r7, r4
 8000d6c:	0018      	movs	r0, r3
 8000d6e:	f004 fdf9 	bl	8005964 <siprintf>
 8000d72:	193b      	adds	r3, r7, r4
 8000d74:	001a      	movs	r2, r3
 8000d76:	2100      	movs	r1, #0
 8000d78:	2002      	movs	r0, #2
 8000d7a:	f7ff fe29 	bl	80009d0 <lcd_puts>
 8000d7e:	19bb      	adds	r3, r7, r6
 8000d80:	781a      	ldrb	r2, [r3, #0]
 8000d82:	4907      	ldr	r1, [pc, #28]	; (8000da0 <Total_Time_Print+0xb4>)
 8000d84:	193b      	adds	r3, r7, r4
 8000d86:	0018      	movs	r0, r3
 8000d88:	f004 fdec 	bl	8005964 <siprintf>
 8000d8c:	193b      	adds	r3, r7, r4
 8000d8e:	001a      	movs	r2, r3
 8000d90:	2100      	movs	r1, #0
 8000d92:	2003      	movs	r0, #3
 8000d94:	f7ff fe1c 	bl	80009d0 <lcd_puts>
 8000d98:	46c0      	nop			; (mov r8, r8)
 8000d9a:	46bd      	mov	sp, r7
 8000d9c:	b007      	add	sp, #28
 8000d9e:	bdf0      	pop	{r4, r5, r6, r7, pc}
 8000da0:	080062f0 	.word	0x080062f0

08000da4 <home_page>:
 8000da4:	b580      	push	{r7, lr}
 8000da6:	af00      	add	r7, sp, #0
 8000da8:	f7ff ff6e 	bl	8000c88 <lcd_clear>
 8000dac:	4b0a      	ldr	r3, [pc, #40]	; (8000dd8 <home_page+0x34>)
 8000dae:	001a      	movs	r2, r3
 8000db0:	2103      	movs	r1, #3
 8000db2:	2000      	movs	r0, #0
 8000db4:	f7ff fe0c 	bl	80009d0 <lcd_puts>
 8000db8:	4b08      	ldr	r3, [pc, #32]	; (8000ddc <home_page+0x38>)
 8000dba:	001a      	movs	r2, r3
 8000dbc:	2103      	movs	r1, #3
 8000dbe:	2002      	movs	r0, #2
 8000dc0:	f7ff fe06 	bl	80009d0 <lcd_puts>
 8000dc4:	4b06      	ldr	r3, [pc, #24]	; (8000de0 <home_page+0x3c>)
 8000dc6:	001a      	movs	r2, r3
 8000dc8:	2105      	movs	r1, #5
 8000dca:	2003      	movs	r0, #3
 8000dcc:	f7ff fe00 	bl	80009d0 <lcd_puts>
 8000dd0:	46c0      	nop			; (mov r8, r8)
 8000dd2:	46bd      	mov	sp, r7
 8000dd4:	bd80      	pop	{r7, pc}
 8000dd6:	46c0      	nop			; (mov r8, r8)
 8000dd8:	08006358 	.word	0x08006358
 8000ddc:	08006368 	.word	0x08006368
 8000de0:	08006378 	.word	0x08006378

08000de4 <HAL_TIM_PeriodElapsedCallback>:
// 		tt_cnt++;
// 	}
// }

void HAL_TIM_PeriodElapsedCallback(TIM_HandleTypeDef *htim)
{
 8000de4:	b580      	push	{r7, lr}
 8000de6:	b082      	sub	sp, #8
 8000de8:	af00      	add	r7, sp, #0
 8000dea:	6078      	str	r0, [r7, #4]

	if (htim == &htim6)
 8000dec:	687a      	ldr	r2, [r7, #4]
 8000dee:	4b10      	ldr	r3, [pc, #64]	; (8000e30 <HAL_TIM_PeriodElapsedCallback+0x4c>)
 8000df0:	429a      	cmp	r2, r3
 8000df2:	d104      	bne.n	8000dfe <HAL_TIM_PeriodElapsedCallback+0x1a>
	{
		//    HAL_GPIO_TogglePin(GPIOA, GPIO_PIN_5);
		tt_cnt++;
 8000df4:	4b0f      	ldr	r3, [pc, #60]	; (8000e34 <HAL_TIM_PeriodElapsedCallback+0x50>)
 8000df6:	681b      	ldr	r3, [r3, #0]
 8000df8:	1c5a      	adds	r2, r3, #1
 8000dfa:	4b0e      	ldr	r3, [pc, #56]	; (8000e34 <HAL_TIM_PeriodElapsedCallback+0x50>)
 8000dfc:	601a      	str	r2, [r3, #0]

	/* NOTE : This function should not be modified, when the callback is needed,
			  the HAL_TIM_PeriodElapsedCallback could be implemented in the user file
	 */

	if (htim == &htim14)
 8000dfe:	687a      	ldr	r2, [r7, #4]
 8000e00:	4b0d      	ldr	r3, [pc, #52]	; (8000e38 <HAL_TIM_PeriodElapsedCallback+0x54>)
 8000e02:	429a      	cmp	r2, r3
 8000e04:	d10f      	bne.n	8000e26 <HAL_TIM_PeriodElapsedCallback+0x42>
	{
		if (HAL_GPIO_ReadPin(S_PRV_GPIO_Port, S_PRV_Pin) == GPIO_PIN_RESET)
 8000e06:	2380      	movs	r3, #128	; 0x80
 8000e08:	011b      	lsls	r3, r3, #4
 8000e0a:	4a0c      	ldr	r2, [pc, #48]	; (8000e3c <HAL_TIM_PeriodElapsedCallback+0x58>)
 8000e0c:	0019      	movs	r1, r3
 8000e0e:	0010      	movs	r0, r2
 8000e10:	f002 fa9c 	bl	800334c <HAL_GPIO_ReadPin>
 8000e14:	1e03      	subs	r3, r0, #0
 8000e16:	d106      	bne.n	8000e26 <HAL_TIM_PeriodElapsedCallback+0x42>
		{

			but_state = true;
 8000e18:	4b09      	ldr	r3, [pc, #36]	; (8000e40 <HAL_TIM_PeriodElapsedCallback+0x5c>)
 8000e1a:	2201      	movs	r2, #1
 8000e1c:	701a      	strb	r2, [r3, #0]
			HAL_TIM_Base_Stop_IT(&htim14);
 8000e1e:	4b06      	ldr	r3, [pc, #24]	; (8000e38 <HAL_TIM_PeriodElapsedCallback+0x54>)
 8000e20:	0018      	movs	r0, r3
 8000e22:	f003 ff3b 	bl	8004c9c <HAL_TIM_Base_Stop_IT>
		}
	}
}
 8000e26:	46c0      	nop			; (mov r8, r8)
 8000e28:	46bd      	mov	sp, r7
 8000e2a:	b002      	add	sp, #8
 8000e2c:	bd80      	pop	{r7, pc}
 8000e2e:	46c0      	nop			; (mov r8, r8)
 8000e30:	20000108 	.word	0x20000108
 8000e34:	200000a4 	.word	0x200000a4
 8000e38:	20000150 	.word	0x20000150
 8000e3c:	48000400 	.word	0x48000400
 8000e40:	20000220 	.word	0x20000220

08000e44 <update_key_press>:
	lcd_puts(3, 2, buffer); // x = 2, y = 3
}

uint8_t chk_cmd = 0;
uint8_t update_key_press()
{
 8000e44:	b580      	push	{r7, lr}
 8000e46:	af00      	add	r7, sp, #0
	if (key_pressed.prv)
 8000e48:	4b4c      	ldr	r3, [pc, #304]	; (8000f7c <update_key_press+0x138>)
 8000e4a:	781b      	ldrb	r3, [r3, #0]
 8000e4c:	07db      	lsls	r3, r3, #31
 8000e4e:	0fdb      	lsrs	r3, r3, #31
 8000e50:	b2db      	uxtb	r3, r3
 8000e52:	2b00      	cmp	r3, #0
 8000e54:	d00e      	beq.n	8000e74 <update_key_press+0x30>
	{
		current_pos.key_number = _prv;
 8000e56:	4b4a      	ldr	r3, [pc, #296]	; (8000f80 <update_key_press+0x13c>)
 8000e58:	785a      	ldrb	r2, [r3, #1]
 8000e5a:	2107      	movs	r1, #7
 8000e5c:	438a      	bics	r2, r1
 8000e5e:	705a      	strb	r2, [r3, #1]
		key_pressed.prv = 0;
 8000e60:	4a46      	ldr	r2, [pc, #280]	; (8000f7c <update_key_press+0x138>)
 8000e62:	7813      	ldrb	r3, [r2, #0]
 8000e64:	2101      	movs	r1, #1
 8000e66:	438b      	bics	r3, r1
 8000e68:	7013      	strb	r3, [r2, #0]
		chk_cmd = 1;
 8000e6a:	4b46      	ldr	r3, [pc, #280]	; (8000f84 <update_key_press+0x140>)
 8000e6c:	2201      	movs	r2, #1
 8000e6e:	701a      	strb	r2, [r3, #0]
		return _prv;
 8000e70:	2300      	movs	r3, #0
 8000e72:	e080      	b.n	8000f76 <update_key_press+0x132>
	}
	else if (key_pressed.nxt)
 8000e74:	4b41      	ldr	r3, [pc, #260]	; (8000f7c <update_key_press+0x138>)
 8000e76:	781b      	ldrb	r3, [r3, #0]
 8000e78:	079b      	lsls	r3, r3, #30
 8000e7a:	0fdb      	lsrs	r3, r3, #31
 8000e7c:	b2db      	uxtb	r3, r3
 8000e7e:	2b00      	cmp	r3, #0
 8000e80:	d011      	beq.n	8000ea6 <update_key_press+0x62>
	{
		key_pressed.nxt = 0;
 8000e82:	4a3e      	ldr	r2, [pc, #248]	; (8000f7c <update_key_press+0x138>)
 8000e84:	7813      	ldrb	r3, [r2, #0]
 8000e86:	2102      	movs	r1, #2
 8000e88:	438b      	bics	r3, r1
 8000e8a:	7013      	strb	r3, [r2, #0]
		chk_cmd = 1;
 8000e8c:	4b3d      	ldr	r3, [pc, #244]	; (8000f84 <update_key_press+0x140>)
 8000e8e:	2201      	movs	r2, #1
 8000e90:	701a      	strb	r2, [r3, #0]
		current_pos.key_number = _nxt;
 8000e92:	4b3b      	ldr	r3, [pc, #236]	; (8000f80 <update_key_press+0x13c>)
 8000e94:	785a      	ldrb	r2, [r3, #1]
 8000e96:	2107      	movs	r1, #7
 8000e98:	438a      	bics	r2, r1
 8000e9a:	1c11      	adds	r1, r2, #0
 8000e9c:	2201      	movs	r2, #1
 8000e9e:	430a      	orrs	r2, r1
 8000ea0:	705a      	strb	r2, [r3, #1]

		return _nxt;
 8000ea2:	2301      	movs	r3, #1
 8000ea4:	e067      	b.n	8000f76 <update_key_press+0x132>
	}
	else if (key_pressed.depth)
 8000ea6:	4b35      	ldr	r3, [pc, #212]	; (8000f7c <update_key_press+0x138>)
 8000ea8:	781b      	ldrb	r3, [r3, #0]
 8000eaa:	075b      	lsls	r3, r3, #29
 8000eac:	0fdb      	lsrs	r3, r3, #31
 8000eae:	b2db      	uxtb	r3, r3
 8000eb0:	2b00      	cmp	r3, #0
 8000eb2:	d027      	beq.n	8000f04 <update_key_press+0xc0>
		// 		else
		// 			lcd_puts(3, 17, (int8_t *)"OFF");

		// 		return _depth;

		key_pressed.depth = 0;
 8000eb4:	4a31      	ldr	r2, [pc, #196]	; (8000f7c <update_key_press+0x138>)
 8000eb6:	7813      	ldrb	r3, [r2, #0]
 8000eb8:	2104      	movs	r1, #4
 8000eba:	438b      	bics	r3, r1
 8000ebc:	7013      	strb	r3, [r2, #0]
		current_pos.key_number = _depth;
 8000ebe:	4b30      	ldr	r3, [pc, #192]	; (8000f80 <update_key_press+0x13c>)
 8000ec0:	785a      	ldrb	r2, [r3, #1]
 8000ec2:	2107      	movs	r1, #7
 8000ec4:	438a      	bics	r2, r1
 8000ec6:	1c11      	adds	r1, r2, #0
 8000ec8:	2202      	movs	r2, #2
 8000eca:	430a      	orrs	r2, r1
 8000ecc:	705a      	strb	r2, [r3, #1]
		// data_reg.endo = !data_reg.endo;
		clr_data(endo);
 8000ece:	2005      	movs	r0, #5
 8000ed0:	f7ff fdd0 	bl	8000a74 <clr_data>
		clr_select();
 8000ed4:	f7ff feac 	bl	8000c30 <clr_select>
		//		lcd_puts(3, 10, (int8_t *)">");

		if (data_reg.endo)
 8000ed8:	4b2b      	ldr	r3, [pc, #172]	; (8000f88 <update_key_press+0x144>)
 8000eda:	781b      	ldrb	r3, [r3, #0]
 8000edc:	2240      	movs	r2, #64	; 0x40
 8000ede:	4013      	ands	r3, r2
 8000ee0:	b2db      	uxtb	r3, r3
 8000ee2:	2b00      	cmp	r3, #0
 8000ee4:	d006      	beq.n	8000ef4 <update_key_press+0xb0>
			lcd_puts(2, 17, (int8_t *)"ON");
 8000ee6:	4b29      	ldr	r3, [pc, #164]	; (8000f8c <update_key_press+0x148>)
 8000ee8:	001a      	movs	r2, r3
 8000eea:	2111      	movs	r1, #17
 8000eec:	2002      	movs	r0, #2
 8000eee:	f7ff fd6f 	bl	80009d0 <lcd_puts>
 8000ef2:	e005      	b.n	8000f00 <update_key_press+0xbc>
		else
			lcd_puts(2, 17, (int8_t *)"OFF");
 8000ef4:	4b26      	ldr	r3, [pc, #152]	; (8000f90 <update_key_press+0x14c>)
 8000ef6:	001a      	movs	r2, r3
 8000ef8:	2111      	movs	r1, #17
 8000efa:	2002      	movs	r0, #2
 8000efc:	f7ff fd68 	bl	80009d0 <lcd_puts>

		return _depth;
 8000f00:	2302      	movs	r3, #2
 8000f02:	e038      	b.n	8000f76 <update_key_press+0x132>
	}
	else if (key_pressed.pos)
 8000f04:	4b1d      	ldr	r3, [pc, #116]	; (8000f7c <update_key_press+0x138>)
 8000f06:	781b      	ldrb	r3, [r3, #0]
 8000f08:	071b      	lsls	r3, r3, #28
 8000f0a:	0fdb      	lsrs	r3, r3, #31
 8000f0c:	b2db      	uxtb	r3, r3
 8000f0e:	2b00      	cmp	r3, #0
 8000f10:	d014      	beq.n	8000f3c <update_key_press+0xf8>
	{
		key_pressed.pos = 0;
 8000f12:	4a1a      	ldr	r2, [pc, #104]	; (8000f7c <update_key_press+0x138>)
 8000f14:	7813      	ldrb	r3, [r2, #0]
 8000f16:	2108      	movs	r1, #8
 8000f18:	438b      	bics	r3, r1
 8000f1a:	7013      	strb	r3, [r2, #0]
		current_pos.key_number = _pos;
 8000f1c:	4b18      	ldr	r3, [pc, #96]	; (8000f80 <update_key_press+0x13c>)
 8000f1e:	785a      	ldrb	r2, [r3, #1]
 8000f20:	2107      	movs	r1, #7
 8000f22:	438a      	bics	r2, r1
 8000f24:	1c11      	adds	r1, r2, #0
 8000f26:	2204      	movs	r2, #4
 8000f28:	430a      	orrs	r2, r1
 8000f2a:	705a      	strb	r2, [r3, #1]
		last_ps = _pos;
 8000f2c:	4b19      	ldr	r3, [pc, #100]	; (8000f94 <update_key_press+0x150>)
 8000f2e:	2204      	movs	r2, #4
 8000f30:	701a      	strb	r2, [r3, #0]
		chk_cmd = 0;
 8000f32:	4b14      	ldr	r3, [pc, #80]	; (8000f84 <update_key_press+0x140>)
 8000f34:	2200      	movs	r2, #0
 8000f36:	701a      	strb	r2, [r3, #0]
		return _pos;
 8000f38:	2304      	movs	r3, #4
 8000f3a:	e01c      	b.n	8000f76 <update_key_press+0x132>
	}
	else if (key_pressed.neg)
 8000f3c:	4b0f      	ldr	r3, [pc, #60]	; (8000f7c <update_key_press+0x138>)
 8000f3e:	781b      	ldrb	r3, [r3, #0]
 8000f40:	06db      	lsls	r3, r3, #27
 8000f42:	0fdb      	lsrs	r3, r3, #31
 8000f44:	b2db      	uxtb	r3, r3
 8000f46:	2b00      	cmp	r3, #0
 8000f48:	d014      	beq.n	8000f74 <update_key_press+0x130>
	{
		key_pressed.neg = 0;
 8000f4a:	4a0c      	ldr	r2, [pc, #48]	; (8000f7c <update_key_press+0x138>)
 8000f4c:	7813      	ldrb	r3, [r2, #0]
 8000f4e:	2110      	movs	r1, #16
 8000f50:	438b      	bics	r3, r1
 8000f52:	7013      	strb	r3, [r2, #0]
		current_pos.key_number = _neg;
 8000f54:	4b0a      	ldr	r3, [pc, #40]	; (8000f80 <update_key_press+0x13c>)
 8000f56:	785a      	ldrb	r2, [r3, #1]
 8000f58:	2107      	movs	r1, #7
 8000f5a:	438a      	bics	r2, r1
 8000f5c:	1c11      	adds	r1, r2, #0
 8000f5e:	2203      	movs	r2, #3
 8000f60:	430a      	orrs	r2, r1
 8000f62:	705a      	strb	r2, [r3, #1]
		last_ps = _neg;
 8000f64:	4b0b      	ldr	r3, [pc, #44]	; (8000f94 <update_key_press+0x150>)
 8000f66:	2203      	movs	r2, #3
 8000f68:	701a      	strb	r2, [r3, #0]
		chk_cmd = 0;
 8000f6a:	4b06      	ldr	r3, [pc, #24]	; (8000f84 <update_key_press+0x140>)
 8000f6c:	2200      	movs	r2, #0
 8000f6e:	701a      	strb	r2, [r3, #0]
		return _neg;
 8000f70:	2303      	movs	r3, #3
 8000f72:	e000      	b.n	8000f76 <update_key_press+0x132>
	}

	return 0;
 8000f74:	2300      	movs	r3, #0
}
 8000f76:	0018      	movs	r0, r3
 8000f78:	46bd      	mov	sp, r7
 8000f7a:	bd80      	pop	{r7, pc}
 8000f7c:	200000ac 	.word	0x200000ac
 8000f80:	20000004 	.word	0x20000004
 8000f84:	20000221 	.word	0x20000221
 8000f88:	20000008 	.word	0x20000008
 8000f8c:	0800638c 	.word	0x0800638c
 8000f90:	08006390 	.word	0x08006390
 8000f94:	200000a8 	.word	0x200000a8

08000f98 <set_data_positive>:
//	current_pos.position_cursor =  sensor;
//	data_reg.sensor = !data_reg.sensor;
//
// }
void set_data_positive()
{
 8000f98:	b580      	push	{r7, lr}
 8000f9a:	af00      	add	r7, sp, #0
	if (pg2_fc == 0)
 8000f9c:	4b56      	ldr	r3, [pc, #344]	; (80010f8 <set_data_positive+0x160>)
 8000f9e:	781b      	ldrb	r3, [r3, #0]
 8000fa0:	2b00      	cmp	r3, #0
 8000fa2:	d16a      	bne.n	800107a <set_data_positive+0xe2>
	{
		switch (current_pos.position_cursor)
 8000fa4:	4b55      	ldr	r3, [pc, #340]	; (80010fc <set_data_positive+0x164>)
 8000fa6:	781b      	ldrb	r3, [r3, #0]
 8000fa8:	b25b      	sxtb	r3, r3
 8000faa:	2b07      	cmp	r3, #7
 8000fac:	d900      	bls.n	8000fb0 <set_data_positive+0x18>
 8000fae:	e0a0      	b.n	80010f2 <set_data_positive+0x15a>
 8000fb0:	009a      	lsls	r2, r3, #2
 8000fb2:	4b53      	ldr	r3, [pc, #332]	; (8001100 <set_data_positive+0x168>)
 8000fb4:	18d3      	adds	r3, r2, r3
 8000fb6:	681b      	ldr	r3, [r3, #0]
 8000fb8:	469f      	mov	pc, r3
		{
		case intensity:
			if (!data_reg.depth)
 8000fba:	4b52      	ldr	r3, [pc, #328]	; (8001104 <set_data_positive+0x16c>)
 8000fbc:	781b      	ldrb	r3, [r3, #0]
 8000fbe:	227f      	movs	r2, #127	; 0x7f
 8000fc0:	4393      	bics	r3, r2
 8000fc2:	b2db      	uxtb	r3, r3
 8000fc4:	2b00      	cmp	r3, #0
 8000fc6:	d125      	bne.n	8001014 <set_data_positive+0x7c>
			{
				data_reg.intensity++;
 8000fc8:	4b4e      	ldr	r3, [pc, #312]	; (8001104 <set_data_positive+0x16c>)
 8000fca:	781b      	ldrb	r3, [r3, #0]
 8000fcc:	071b      	lsls	r3, r3, #28
 8000fce:	0f1b      	lsrs	r3, r3, #28
 8000fd0:	b2db      	uxtb	r3, r3
 8000fd2:	3301      	adds	r3, #1
 8000fd4:	1c1a      	adds	r2, r3, #0
 8000fd6:	230f      	movs	r3, #15
 8000fd8:	4013      	ands	r3, r2
 8000fda:	b2da      	uxtb	r2, r3
 8000fdc:	4b49      	ldr	r3, [pc, #292]	; (8001104 <set_data_positive+0x16c>)
 8000fde:	210f      	movs	r1, #15
 8000fe0:	400a      	ands	r2, r1
 8000fe2:	0010      	movs	r0, r2
 8000fe4:	781a      	ldrb	r2, [r3, #0]
 8000fe6:	210f      	movs	r1, #15
 8000fe8:	438a      	bics	r2, r1
 8000fea:	1c11      	adds	r1, r2, #0
 8000fec:	1c02      	adds	r2, r0, #0
 8000fee:	430a      	orrs	r2, r1
 8000ff0:	701a      	strb	r2, [r3, #0]
				if (data_reg.intensity >= 10)
 8000ff2:	4b44      	ldr	r3, [pc, #272]	; (8001104 <set_data_positive+0x16c>)
 8000ff4:	781b      	ldrb	r3, [r3, #0]
 8000ff6:	071b      	lsls	r3, r3, #28
 8000ff8:	0f1b      	lsrs	r3, r3, #28
 8000ffa:	b2db      	uxtb	r3, r3
 8000ffc:	2b09      	cmp	r3, #9
 8000ffe:	d800      	bhi.n	8001002 <set_data_positive+0x6a>
 8001000:	e074      	b.n	80010ec <set_data_positive+0x154>
				{
					data_reg.intensity = 10;
 8001002:	4b40      	ldr	r3, [pc, #256]	; (8001104 <set_data_positive+0x16c>)
 8001004:	781a      	ldrb	r2, [r3, #0]
 8001006:	210f      	movs	r1, #15
 8001008:	438a      	bics	r2, r1
 800100a:	1c11      	adds	r1, r2, #0
 800100c:	220a      	movs	r2, #10
 800100e:	430a      	orrs	r2, r1
 8001010:	701a      	strb	r2, [r3, #0]
			{
				//				data_reg.intensity = 10;
				depth_press = 1;
			}

			break;
 8001012:	e06b      	b.n	80010ec <set_data_positive+0x154>
				depth_press = 1;
 8001014:	4b3c      	ldr	r3, [pc, #240]	; (8001108 <set_data_positive+0x170>)
 8001016:	2201      	movs	r2, #1
 8001018:	701a      	strb	r2, [r3, #0]
			break;
 800101a:	e067      	b.n	80010ec <set_data_positive+0x154>
		case color:
			// if (!data_reg.depth)
			// {
			data_reg.color++;
 800101c:	4b39      	ldr	r3, [pc, #228]	; (8001104 <set_data_positive+0x16c>)
 800101e:	785b      	ldrb	r3, [r3, #1]
 8001020:	b25b      	sxtb	r3, r3
 8001022:	b2db      	uxtb	r3, r3
 8001024:	3301      	adds	r3, #1
 8001026:	b2db      	uxtb	r3, r3
 8001028:	b25a      	sxtb	r2, r3
 800102a:	4b36      	ldr	r3, [pc, #216]	; (8001104 <set_data_positive+0x16c>)
 800102c:	705a      	strb	r2, [r3, #1]
			if (data_reg.color > 1)
 800102e:	4b35      	ldr	r3, [pc, #212]	; (8001104 <set_data_positive+0x16c>)
 8001030:	785b      	ldrb	r3, [r3, #1]
 8001032:	b25b      	sxtb	r3, r3
 8001034:	2b01      	cmp	r3, #1
 8001036:	dd5b      	ble.n	80010f0 <set_data_positive+0x158>
			{
				data_reg.color = 1;
 8001038:	4b32      	ldr	r3, [pc, #200]	; (8001104 <set_data_positive+0x16c>)
 800103a:	2201      	movs	r2, #1
 800103c:	705a      	strb	r2, [r3, #1]
			}
			// }

			break;
 800103e:	e057      	b.n	80010f0 <set_data_positive+0x158>
		case sensor:
			data_reg.sensor = on;
 8001040:	4b30      	ldr	r3, [pc, #192]	; (8001104 <set_data_positive+0x16c>)
 8001042:	781a      	ldrb	r2, [r3, #0]
 8001044:	2110      	movs	r1, #16
 8001046:	430a      	orrs	r2, r1
 8001048:	701a      	strb	r2, [r3, #0]
			break;
 800104a:	e052      	b.n	80010f2 <set_data_positive+0x15a>
		case lamp:
			data_reg.lamp = on;
 800104c:	4b2d      	ldr	r3, [pc, #180]	; (8001104 <set_data_positive+0x16c>)
 800104e:	781a      	ldrb	r2, [r3, #0]
 8001050:	2120      	movs	r1, #32
 8001052:	430a      	orrs	r2, r1
 8001054:	701a      	strb	r2, [r3, #0]
			break;
 8001056:	e04c      	b.n	80010f2 <set_data_positive+0x15a>
		case endo:
			data_reg.endo = on;
 8001058:	4b2a      	ldr	r3, [pc, #168]	; (8001104 <set_data_positive+0x16c>)
 800105a:	781a      	ldrb	r2, [r3, #0]
 800105c:	2140      	movs	r1, #64	; 0x40
 800105e:	430a      	orrs	r2, r1
 8001060:	701a      	strb	r2, [r3, #0]
			break;
 8001062:	e046      	b.n	80010f2 <set_data_positive+0x15a>
		case depth:
			data_reg.depth = on;
 8001064:	4b27      	ldr	r3, [pc, #156]	; (8001104 <set_data_positive+0x16c>)
 8001066:	781a      	ldrb	r2, [r3, #0]
 8001068:	2180      	movs	r1, #128	; 0x80
 800106a:	4249      	negs	r1, r1
 800106c:	430a      	orrs	r2, r1
 800106e:	701a      	strb	r2, [r3, #0]
			//			last_inten = data_reg.intensity;
			break;
 8001070:	e03f      	b.n	80010f2 <set_data_positive+0x15a>
		case 7:
			pg2_fc = on;
 8001072:	4b21      	ldr	r3, [pc, #132]	; (80010f8 <set_data_positive+0x160>)
 8001074:	2201      	movs	r2, #1
 8001076:	701a      	strb	r2, [r3, #0]
			break;
 8001078:	e03b      	b.n	80010f2 <set_data_positive+0x15a>
		}
	}

	else
	{
		switch (current_pos.position_cursor)
 800107a:	4b20      	ldr	r3, [pc, #128]	; (80010fc <set_data_positive+0x164>)
 800107c:	781b      	ldrb	r3, [r3, #0]
 800107e:	b25b      	sxtb	r3, r3
 8001080:	2b07      	cmp	r3, #7
 8001082:	d008      	beq.n	8001096 <set_data_positive+0xfe>
 8001084:	dc35      	bgt.n	80010f2 <set_data_positive+0x15a>
 8001086:	2b03      	cmp	r3, #3
 8001088:	d026      	beq.n	80010d8 <set_data_positive+0x140>
 800108a:	dc32      	bgt.n	80010f2 <set_data_positive+0x15a>
 800108c:	2b01      	cmp	r3, #1
 800108e:	d00f      	beq.n	80010b0 <set_data_positive+0x118>
 8001090:	2b02      	cmp	r3, #2
 8001092:	d017      	beq.n	80010c4 <set_data_positive+0x12c>
			pg3_md = off;
			pg3_wd = on;
			break;
		}
	}
}
 8001094:	e02d      	b.n	80010f2 <set_data_positive+0x15a>
			pg2_fc = on;
 8001096:	4b18      	ldr	r3, [pc, #96]	; (80010f8 <set_data_positive+0x160>)
 8001098:	2201      	movs	r2, #1
 800109a:	701a      	strb	r2, [r3, #0]
			pg3_sm = off;
 800109c:	4b1b      	ldr	r3, [pc, #108]	; (800110c <set_data_positive+0x174>)
 800109e:	2200      	movs	r2, #0
 80010a0:	701a      	strb	r2, [r3, #0]
			pg3_md = off;
 80010a2:	4b1b      	ldr	r3, [pc, #108]	; (8001110 <set_data_positive+0x178>)
 80010a4:	2200      	movs	r2, #0
 80010a6:	701a      	strb	r2, [r3, #0]
			pg3_wd = off;
 80010a8:	4b1a      	ldr	r3, [pc, #104]	; (8001114 <set_data_positive+0x17c>)
 80010aa:	2200      	movs	r2, #0
 80010ac:	701a      	strb	r2, [r3, #0]
			break;
 80010ae:	e020      	b.n	80010f2 <set_data_positive+0x15a>
			pg3_sm = on;
 80010b0:	4b16      	ldr	r3, [pc, #88]	; (800110c <set_data_positive+0x174>)
 80010b2:	2201      	movs	r2, #1
 80010b4:	701a      	strb	r2, [r3, #0]
			pg3_md = off;
 80010b6:	4b16      	ldr	r3, [pc, #88]	; (8001110 <set_data_positive+0x178>)
 80010b8:	2200      	movs	r2, #0
 80010ba:	701a      	strb	r2, [r3, #0]
			pg3_wd = off;
 80010bc:	4b15      	ldr	r3, [pc, #84]	; (8001114 <set_data_positive+0x17c>)
 80010be:	2200      	movs	r2, #0
 80010c0:	701a      	strb	r2, [r3, #0]
			break;
 80010c2:	e016      	b.n	80010f2 <set_data_positive+0x15a>
			pg3_sm = off;
 80010c4:	4b11      	ldr	r3, [pc, #68]	; (800110c <set_data_positive+0x174>)
 80010c6:	2200      	movs	r2, #0
 80010c8:	701a      	strb	r2, [r3, #0]
			pg3_md = on;
 80010ca:	4b11      	ldr	r3, [pc, #68]	; (8001110 <set_data_positive+0x178>)
 80010cc:	2201      	movs	r2, #1
 80010ce:	701a      	strb	r2, [r3, #0]
			pg3_wd = off;
 80010d0:	4b10      	ldr	r3, [pc, #64]	; (8001114 <set_data_positive+0x17c>)
 80010d2:	2200      	movs	r2, #0
 80010d4:	701a      	strb	r2, [r3, #0]
			break;
 80010d6:	e00c      	b.n	80010f2 <set_data_positive+0x15a>
			pg3_sm = off;
 80010d8:	4b0c      	ldr	r3, [pc, #48]	; (800110c <set_data_positive+0x174>)
 80010da:	2200      	movs	r2, #0
 80010dc:	701a      	strb	r2, [r3, #0]
			pg3_md = off;
 80010de:	4b0c      	ldr	r3, [pc, #48]	; (8001110 <set_data_positive+0x178>)
 80010e0:	2200      	movs	r2, #0
 80010e2:	701a      	strb	r2, [r3, #0]
			pg3_wd = on;
 80010e4:	4b0b      	ldr	r3, [pc, #44]	; (8001114 <set_data_positive+0x17c>)
 80010e6:	2201      	movs	r2, #1
 80010e8:	701a      	strb	r2, [r3, #0]
			break;
 80010ea:	e002      	b.n	80010f2 <set_data_positive+0x15a>
			break;
 80010ec:	46c0      	nop			; (mov r8, r8)
 80010ee:	e000      	b.n	80010f2 <set_data_positive+0x15a>
			break;
 80010f0:	46c0      	nop			; (mov r8, r8)
}
 80010f2:	46c0      	nop			; (mov r8, r8)
 80010f4:	46bd      	mov	sp, r7
 80010f6:	bd80      	pop	{r7, pc}
 80010f8:	2000009f 	.word	0x2000009f
 80010fc:	20000004 	.word	0x20000004
 8001100:	08006464 	.word	0x08006464
 8001104:	20000008 	.word	0x20000008
 8001108:	2000009c 	.word	0x2000009c
 800110c:	200000a0 	.word	0x200000a0
 8001110:	200000a1 	.word	0x200000a1
 8001114:	200000a2 	.word	0x200000a2

08001118 <set_data_negative>:

void set_data_negative()
{
 8001118:	b580      	push	{r7, lr}
 800111a:	af00      	add	r7, sp, #0
	if (pg2_fc == 0)
 800111c:	4b51      	ldr	r3, [pc, #324]	; (8001264 <set_data_negative+0x14c>)
 800111e:	781b      	ldrb	r3, [r3, #0]
 8001120:	2b00      	cmp	r3, #0
 8001122:	d000      	beq.n	8001126 <set_data_negative+0xe>
 8001124:	e079      	b.n	800121a <set_data_negative+0x102>
	{

		switch (current_pos.position_cursor)
 8001126:	4b50      	ldr	r3, [pc, #320]	; (8001268 <set_data_negative+0x150>)
 8001128:	781b      	ldrb	r3, [r3, #0]
 800112a:	b25b      	sxtb	r3, r3
 800112c:	2b07      	cmp	r3, #7
 800112e:	d900      	bls.n	8001132 <set_data_negative+0x1a>
 8001130:	e094      	b.n	800125c <set_data_negative+0x144>
 8001132:	009a      	lsls	r2, r3, #2
 8001134:	4b4d      	ldr	r3, [pc, #308]	; (800126c <set_data_negative+0x154>)
 8001136:	18d3      	adds	r3, r2, r3
 8001138:	681b      	ldr	r3, [r3, #0]
 800113a:	469f      	mov	pc, r3
		{
		case intensity:
			if (!data_reg.depth)
 800113c:	4b4c      	ldr	r3, [pc, #304]	; (8001270 <set_data_negative+0x158>)
 800113e:	781b      	ldrb	r3, [r3, #0]
 8001140:	227f      	movs	r2, #127	; 0x7f
 8001142:	4393      	bics	r3, r2
 8001144:	b2db      	uxtb	r3, r3
 8001146:	2b00      	cmp	r3, #0
 8001148:	d125      	bne.n	8001196 <set_data_negative+0x7e>
			{
				data_reg.intensity--;
 800114a:	4b49      	ldr	r3, [pc, #292]	; (8001270 <set_data_negative+0x158>)
 800114c:	781b      	ldrb	r3, [r3, #0]
 800114e:	071b      	lsls	r3, r3, #28
 8001150:	0f1b      	lsrs	r3, r3, #28
 8001152:	b2db      	uxtb	r3, r3
 8001154:	330f      	adds	r3, #15
 8001156:	1c1a      	adds	r2, r3, #0
 8001158:	230f      	movs	r3, #15
 800115a:	4013      	ands	r3, r2
 800115c:	b2da      	uxtb	r2, r3
 800115e:	4b44      	ldr	r3, [pc, #272]	; (8001270 <set_data_negative+0x158>)
 8001160:	210f      	movs	r1, #15
 8001162:	400a      	ands	r2, r1
 8001164:	0010      	movs	r0, r2
 8001166:	781a      	ldrb	r2, [r3, #0]
 8001168:	210f      	movs	r1, #15
 800116a:	438a      	bics	r2, r1
 800116c:	1c11      	adds	r1, r2, #0
 800116e:	1c02      	adds	r2, r0, #0
 8001170:	430a      	orrs	r2, r1
 8001172:	701a      	strb	r2, [r3, #0]
				if (data_reg.intensity <= 1)
 8001174:	4b3e      	ldr	r3, [pc, #248]	; (8001270 <set_data_negative+0x158>)
 8001176:	781b      	ldrb	r3, [r3, #0]
 8001178:	071b      	lsls	r3, r3, #28
 800117a:	0f1b      	lsrs	r3, r3, #28
 800117c:	b2db      	uxtb	r3, r3
 800117e:	2b01      	cmp	r3, #1
 8001180:	d900      	bls.n	8001184 <set_data_negative+0x6c>
 8001182:	e068      	b.n	8001256 <set_data_negative+0x13e>
				{
					data_reg.intensity = 1;
 8001184:	4b3a      	ldr	r3, [pc, #232]	; (8001270 <set_data_negative+0x158>)
 8001186:	781a      	ldrb	r2, [r3, #0]
 8001188:	210f      	movs	r1, #15
 800118a:	438a      	bics	r2, r1
 800118c:	1c11      	adds	r1, r2, #0
 800118e:	2201      	movs	r2, #1
 8001190:	430a      	orrs	r2, r1
 8001192:	701a      	strb	r2, [r3, #0]
			}
			else
			{
				depth_press = 1;
			}
			break;
 8001194:	e05f      	b.n	8001256 <set_data_negative+0x13e>
				depth_press = 1;
 8001196:	4b37      	ldr	r3, [pc, #220]	; (8001274 <set_data_negative+0x15c>)
 8001198:	2201      	movs	r2, #1
 800119a:	701a      	strb	r2, [r3, #0]
			break;
 800119c:	e05b      	b.n	8001256 <set_data_negative+0x13e>
		case color:
			// if (!data_reg.depth)
			// {
			data_reg.color--;
 800119e:	4b34      	ldr	r3, [pc, #208]	; (8001270 <set_data_negative+0x158>)
 80011a0:	785b      	ldrb	r3, [r3, #1]
 80011a2:	b25b      	sxtb	r3, r3
 80011a4:	b2db      	uxtb	r3, r3
 80011a6:	3b01      	subs	r3, #1
 80011a8:	b2db      	uxtb	r3, r3
 80011aa:	b25a      	sxtb	r2, r3
 80011ac:	4b30      	ldr	r3, [pc, #192]	; (8001270 <set_data_negative+0x158>)
 80011ae:	705a      	strb	r2, [r3, #1]
			if (data_reg.color < -1)
 80011b0:	4b2f      	ldr	r3, [pc, #188]	; (8001270 <set_data_negative+0x158>)
 80011b2:	785b      	ldrb	r3, [r3, #1]
 80011b4:	b25b      	sxtb	r3, r3
 80011b6:	3301      	adds	r3, #1
 80011b8:	da4f      	bge.n	800125a <set_data_negative+0x142>
			{
				data_reg.color = -1;
 80011ba:	4b2d      	ldr	r3, [pc, #180]	; (8001270 <set_data_negative+0x158>)
 80011bc:	22ff      	movs	r2, #255	; 0xff
 80011be:	705a      	strb	r2, [r3, #1]
			}
			// }
			break;
 80011c0:	e04b      	b.n	800125a <set_data_negative+0x142>
		case sensor:
			data_reg.sensor = off;
 80011c2:	4b2b      	ldr	r3, [pc, #172]	; (8001270 <set_data_negative+0x158>)
 80011c4:	781a      	ldrb	r2, [r3, #0]
 80011c6:	2110      	movs	r1, #16
 80011c8:	438a      	bics	r2, r1
 80011ca:	701a      	strb	r2, [r3, #0]
			break;
 80011cc:	e046      	b.n	800125c <set_data_negative+0x144>
		case lamp:
			data_reg.lamp = off;
 80011ce:	4b28      	ldr	r3, [pc, #160]	; (8001270 <set_data_negative+0x158>)
 80011d0:	781a      	ldrb	r2, [r3, #0]
 80011d2:	2120      	movs	r1, #32
 80011d4:	438a      	bics	r2, r1
 80011d6:	701a      	strb	r2, [r3, #0]
			break;
 80011d8:	e040      	b.n	800125c <set_data_negative+0x144>
		case endo:
			data_reg.endo = off;
 80011da:	4b25      	ldr	r3, [pc, #148]	; (8001270 <set_data_negative+0x158>)
 80011dc:	781a      	ldrb	r2, [r3, #0]
 80011de:	2140      	movs	r1, #64	; 0x40
 80011e0:	438a      	bics	r2, r1
 80011e2:	701a      	strb	r2, [r3, #0]
			data_reg.intensity = data_reg.intensity;
 80011e4:	4b22      	ldr	r3, [pc, #136]	; (8001270 <set_data_negative+0x158>)
 80011e6:	781b      	ldrb	r3, [r3, #0]
 80011e8:	071b      	lsls	r3, r3, #28
 80011ea:	0f1b      	lsrs	r3, r3, #28
 80011ec:	b2da      	uxtb	r2, r3
 80011ee:	4b20      	ldr	r3, [pc, #128]	; (8001270 <set_data_negative+0x158>)
 80011f0:	210f      	movs	r1, #15
 80011f2:	400a      	ands	r2, r1
 80011f4:	0010      	movs	r0, r2
 80011f6:	781a      	ldrb	r2, [r3, #0]
 80011f8:	210f      	movs	r1, #15
 80011fa:	438a      	bics	r2, r1
 80011fc:	1c11      	adds	r1, r2, #0
 80011fe:	1c02      	adds	r2, r0, #0
 8001200:	430a      	orrs	r2, r1
 8001202:	701a      	strb	r2, [r3, #0]
			break;
 8001204:	e02a      	b.n	800125c <set_data_negative+0x144>
		case depth:
			data_reg.depth = off;
 8001206:	4b1a      	ldr	r3, [pc, #104]	; (8001270 <set_data_negative+0x158>)
 8001208:	781a      	ldrb	r2, [r3, #0]
 800120a:	217f      	movs	r1, #127	; 0x7f
 800120c:	400a      	ands	r2, r1
 800120e:	701a      	strb	r2, [r3, #0]
			break;
 8001210:	e024      	b.n	800125c <set_data_negative+0x144>
		case 7:
			pg2_fc = off;
 8001212:	4b14      	ldr	r3, [pc, #80]	; (8001264 <set_data_negative+0x14c>)
 8001214:	2200      	movs	r2, #0
 8001216:	701a      	strb	r2, [r3, #0]
			break;
 8001218:	e020      	b.n	800125c <set_data_negative+0x144>
		}
	}

	else
	{
		switch (current_pos.position_cursor)
 800121a:	4b13      	ldr	r3, [pc, #76]	; (8001268 <set_data_negative+0x150>)
 800121c:	781b      	ldrb	r3, [r3, #0]
 800121e:	b25b      	sxtb	r3, r3
 8001220:	2b07      	cmp	r3, #7
 8001222:	d008      	beq.n	8001236 <set_data_negative+0x11e>
 8001224:	dc1a      	bgt.n	800125c <set_data_negative+0x144>
 8001226:	2b03      	cmp	r3, #3
 8001228:	d011      	beq.n	800124e <set_data_negative+0x136>
 800122a:	dc17      	bgt.n	800125c <set_data_negative+0x144>
 800122c:	2b01      	cmp	r3, #1
 800122e:	d006      	beq.n	800123e <set_data_negative+0x126>
 8001230:	2b02      	cmp	r3, #2
 8001232:	d008      	beq.n	8001246 <set_data_negative+0x12e>
		case 3:
			pg3_wd = off;
			break;
		}
	}
}
 8001234:	e012      	b.n	800125c <set_data_negative+0x144>
			pg2_fc = off;
 8001236:	4b0b      	ldr	r3, [pc, #44]	; (8001264 <set_data_negative+0x14c>)
 8001238:	2200      	movs	r2, #0
 800123a:	701a      	strb	r2, [r3, #0]
			break;
 800123c:	e00e      	b.n	800125c <set_data_negative+0x144>
			pg3_sm = off;
 800123e:	4b0e      	ldr	r3, [pc, #56]	; (8001278 <set_data_negative+0x160>)
 8001240:	2200      	movs	r2, #0
 8001242:	701a      	strb	r2, [r3, #0]
			break;
 8001244:	e00a      	b.n	800125c <set_data_negative+0x144>
			pg3_md = off;
 8001246:	4b0d      	ldr	r3, [pc, #52]	; (800127c <set_data_negative+0x164>)
 8001248:	2200      	movs	r2, #0
 800124a:	701a      	strb	r2, [r3, #0]
			break;
 800124c:	e006      	b.n	800125c <set_data_negative+0x144>
			pg3_wd = off;
 800124e:	4b0c      	ldr	r3, [pc, #48]	; (8001280 <set_data_negative+0x168>)
 8001250:	2200      	movs	r2, #0
 8001252:	701a      	strb	r2, [r3, #0]
			break;
 8001254:	e002      	b.n	800125c <set_data_negative+0x144>
			break;
 8001256:	46c0      	nop			; (mov r8, r8)
 8001258:	e000      	b.n	800125c <set_data_negative+0x144>
			break;
 800125a:	46c0      	nop			; (mov r8, r8)
}
 800125c:	46c0      	nop			; (mov r8, r8)
 800125e:	46bd      	mov	sp, r7
 8001260:	bd80      	pop	{r7, pc}
 8001262:	46c0      	nop			; (mov r8, r8)
 8001264:	2000009f 	.word	0x2000009f
 8001268:	20000004 	.word	0x20000004
 800126c:	08006484 	.word	0x08006484
 8001270:	20000008 	.word	0x20000008
 8001274:	2000009c 	.word	0x2000009c
 8001278:	200000a0 	.word	0x200000a0
 800127c:	200000a1 	.word	0x200000a1
 8001280:	200000a2 	.word	0x200000a2

08001284 <update_new_data>:

void update_new_data()
{
 8001284:	b580      	push	{r7, lr}
 8001286:	af00      	add	r7, sp, #0
	switch (current_pos.key_number)
 8001288:	4b43      	ldr	r3, [pc, #268]	; (8001398 <update_new_data+0x114>)
 800128a:	785b      	ldrb	r3, [r3, #1]
 800128c:	075b      	lsls	r3, r3, #29
 800128e:	0f5b      	lsrs	r3, r3, #29
 8001290:	b2db      	uxtb	r3, r3
 8001292:	2b04      	cmp	r3, #4
 8001294:	d900      	bls.n	8001298 <update_new_data+0x14>
 8001296:	e07c      	b.n	8001392 <update_new_data+0x10e>
 8001298:	009a      	lsls	r2, r3, #2
 800129a:	4b40      	ldr	r3, [pc, #256]	; (800139c <update_new_data+0x118>)
 800129c:	18d3      	adds	r3, r2, r3
 800129e:	681b      	ldr	r3, [r3, #0]
 80012a0:	469f      	mov	pc, r3
	{
	case _prv:
		current_pos.position_cursor--;
 80012a2:	4b3d      	ldr	r3, [pc, #244]	; (8001398 <update_new_data+0x114>)
 80012a4:	781b      	ldrb	r3, [r3, #0]
 80012a6:	b25b      	sxtb	r3, r3
 80012a8:	b2db      	uxtb	r3, r3
 80012aa:	3b01      	subs	r3, #1
 80012ac:	b2db      	uxtb	r3, r3
 80012ae:	b25a      	sxtb	r2, r3
 80012b0:	4b39      	ldr	r3, [pc, #228]	; (8001398 <update_new_data+0x114>)
 80012b2:	701a      	strb	r2, [r3, #0]
		if (!data_reg.sensor)
 80012b4:	4b3a      	ldr	r3, [pc, #232]	; (80013a0 <update_new_data+0x11c>)
 80012b6:	781b      	ldrb	r3, [r3, #0]
 80012b8:	2210      	movs	r2, #16
 80012ba:	4013      	ands	r3, r2
 80012bc:	b2db      	uxtb	r3, r3
 80012be:	2b00      	cmp	r3, #0
 80012c0:	d107      	bne.n	80012d2 <update_new_data+0x4e>
		{

			if (current_pos.position_cursor == 3)
 80012c2:	4b35      	ldr	r3, [pc, #212]	; (8001398 <update_new_data+0x114>)
 80012c4:	781b      	ldrb	r3, [r3, #0]
 80012c6:	b25b      	sxtb	r3, r3
 80012c8:	2b03      	cmp	r3, #3
 80012ca:	d102      	bne.n	80012d2 <update_new_data+0x4e>
			{
				current_pos.position_cursor = 2;
 80012cc:	4b32      	ldr	r3, [pc, #200]	; (8001398 <update_new_data+0x114>)
 80012ce:	2202      	movs	r2, #2
 80012d0:	701a      	strb	r2, [r3, #0]
		// 	{
		// 		current_pos.position_cursor = 7;
		// 	}
		// }

		if (current_pos.position_cursor <= 0)
 80012d2:	4b31      	ldr	r3, [pc, #196]	; (8001398 <update_new_data+0x114>)
 80012d4:	781b      	ldrb	r3, [r3, #0]
 80012d6:	b25b      	sxtb	r3, r3
 80012d8:	2b00      	cmp	r3, #0
 80012da:	dc57      	bgt.n	800138c <update_new_data+0x108>
		{
			//			lcd_clear();
			current_pos.position_cursor = 7;
 80012dc:	4b2e      	ldr	r3, [pc, #184]	; (8001398 <update_new_data+0x114>)
 80012de:	2207      	movs	r2, #7
 80012e0:	701a      	strb	r2, [r3, #0]
		}
		break;
 80012e2:	e053      	b.n	800138c <update_new_data+0x108>
	case _nxt:
		current_pos.position_cursor++;
 80012e4:	4b2c      	ldr	r3, [pc, #176]	; (8001398 <update_new_data+0x114>)
 80012e6:	781b      	ldrb	r3, [r3, #0]
 80012e8:	b25b      	sxtb	r3, r3
 80012ea:	b2db      	uxtb	r3, r3
 80012ec:	3301      	adds	r3, #1
 80012ee:	b2db      	uxtb	r3, r3
 80012f0:	b25a      	sxtb	r2, r3
 80012f2:	4b29      	ldr	r3, [pc, #164]	; (8001398 <update_new_data+0x114>)
 80012f4:	701a      	strb	r2, [r3, #0]

		if (!data_reg.sensor)
 80012f6:	4b2a      	ldr	r3, [pc, #168]	; (80013a0 <update_new_data+0x11c>)
 80012f8:	781b      	ldrb	r3, [r3, #0]
 80012fa:	2210      	movs	r2, #16
 80012fc:	4013      	ands	r3, r2
 80012fe:	b2db      	uxtb	r3, r3
 8001300:	2b00      	cmp	r3, #0
 8001302:	d10b      	bne.n	800131c <update_new_data+0x98>
		{

			if (current_pos.position_cursor == 3 && (pg2_fc == 0))
 8001304:	4b24      	ldr	r3, [pc, #144]	; (8001398 <update_new_data+0x114>)
 8001306:	781b      	ldrb	r3, [r3, #0]
 8001308:	b25b      	sxtb	r3, r3
 800130a:	2b03      	cmp	r3, #3
 800130c:	d106      	bne.n	800131c <update_new_data+0x98>
 800130e:	4b25      	ldr	r3, [pc, #148]	; (80013a4 <update_new_data+0x120>)
 8001310:	781b      	ldrb	r3, [r3, #0]
 8001312:	2b00      	cmp	r3, #0
 8001314:	d102      	bne.n	800131c <update_new_data+0x98>
			{
				current_pos.position_cursor = 4;
 8001316:	4b20      	ldr	r3, [pc, #128]	; (8001398 <update_new_data+0x114>)
 8001318:	2204      	movs	r2, #4
 800131a:	701a      	strb	r2, [r3, #0]
		//			{
		//				current_pos.position_cursor = 7;
		//			}
		//		}

		if (current_pos.position_cursor > 7)
 800131c:	4b1e      	ldr	r3, [pc, #120]	; (8001398 <update_new_data+0x114>)
 800131e:	781b      	ldrb	r3, [r3, #0]
 8001320:	b25b      	sxtb	r3, r3
 8001322:	2b07      	cmp	r3, #7
 8001324:	dd34      	ble.n	8001390 <update_new_data+0x10c>
		{

			current_pos.position_cursor = 1;
 8001326:	4b1c      	ldr	r3, [pc, #112]	; (8001398 <update_new_data+0x114>)
 8001328:	2201      	movs	r2, #1
 800132a:	701a      	strb	r2, [r3, #0]
		}
		break;
 800132c:	e030      	b.n	8001390 <update_new_data+0x10c>
		// 			data_reg.intensity = 10;
		// 			depth_press = 1;
		// //			data_reg.depth = on;
		// 		}

		data_reg.endo = !data_reg.endo;
 800132e:	4b1c      	ldr	r3, [pc, #112]	; (80013a0 <update_new_data+0x11c>)
 8001330:	781b      	ldrb	r3, [r3, #0]
 8001332:	2240      	movs	r2, #64	; 0x40
 8001334:	4013      	ands	r3, r2
 8001336:	b2db      	uxtb	r3, r3
 8001338:	425a      	negs	r2, r3
 800133a:	4153      	adcs	r3, r2
 800133c:	b2da      	uxtb	r2, r3
 800133e:	4b18      	ldr	r3, [pc, #96]	; (80013a0 <update_new_data+0x11c>)
 8001340:	2101      	movs	r1, #1
 8001342:	400a      	ands	r2, r1
 8001344:	0190      	lsls	r0, r2, #6
 8001346:	781a      	ldrb	r2, [r3, #0]
 8001348:	2140      	movs	r1, #64	; 0x40
 800134a:	438a      	bics	r2, r1
 800134c:	1c11      	adds	r1, r2, #0
 800134e:	1c02      	adds	r2, r0, #0
 8001350:	430a      	orrs	r2, r1
 8001352:	701a      	strb	r2, [r3, #0]
		current_pos.position_cursor = endo;
 8001354:	4b10      	ldr	r3, [pc, #64]	; (8001398 <update_new_data+0x114>)
 8001356:	2205      	movs	r2, #5
 8001358:	701a      	strb	r2, [r3, #0]
		if (data_reg.endo)
 800135a:	4b11      	ldr	r3, [pc, #68]	; (80013a0 <update_new_data+0x11c>)
 800135c:	781b      	ldrb	r3, [r3, #0]
 800135e:	2240      	movs	r2, #64	; 0x40
 8001360:	4013      	ands	r3, r2
 8001362:	b2db      	uxtb	r3, r3
 8001364:	2b00      	cmp	r3, #0
 8001366:	d005      	beq.n	8001374 <update_new_data+0xf0>
		{

			// last_inten = data_reg.intensity;
			data_reg.endo = 1;
 8001368:	4b0d      	ldr	r3, [pc, #52]	; (80013a0 <update_new_data+0x11c>)
 800136a:	781a      	ldrb	r2, [r3, #0]
 800136c:	2140      	movs	r1, #64	; 0x40
 800136e:	430a      	orrs	r2, r1
 8001370:	701a      	strb	r2, [r3, #0]
			// current_pos.position_cursor = endo;
			data_reg.endo = 0;
			// depth_press = 1;
			//			data_reg.depth = off;
		}
		break;
 8001372:	e00e      	b.n	8001392 <update_new_data+0x10e>
			data_reg.endo = 0;
 8001374:	4b0a      	ldr	r3, [pc, #40]	; (80013a0 <update_new_data+0x11c>)
 8001376:	781a      	ldrb	r2, [r3, #0]
 8001378:	2140      	movs	r1, #64	; 0x40
 800137a:	438a      	bics	r2, r1
 800137c:	701a      	strb	r2, [r3, #0]
		break;
 800137e:	e008      	b.n	8001392 <update_new_data+0x10e>
	case _pos:
		set_data_positive();
 8001380:	f7ff fe0a 	bl	8000f98 <set_data_positive>
		break;
 8001384:	e005      	b.n	8001392 <update_new_data+0x10e>
	case _neg:
		set_data_negative();
 8001386:	f7ff fec7 	bl	8001118 <set_data_negative>
		break;
 800138a:	e002      	b.n	8001392 <update_new_data+0x10e>
		break;
 800138c:	46c0      	nop			; (mov r8, r8)
 800138e:	e000      	b.n	8001392 <update_new_data+0x10e>
		break;
 8001390:	46c0      	nop			; (mov r8, r8)
	}
}
 8001392:	46c0      	nop			; (mov r8, r8)
 8001394:	46bd      	mov	sp, r7
 8001396:	bd80      	pop	{r7, pc}
 8001398:	20000004 	.word	0x20000004
 800139c:	080064a4 	.word	0x080064a4
 80013a0:	20000008 	.word	0x20000008
 80013a4:	2000009f 	.word	0x2000009f

080013a8 <page_2_print>:

void page_2_print()
{
 80013a8:	b580      	push	{r7, lr}
 80013aa:	af00      	add	r7, sp, #0
	lcd_puts(0, 0, (int8_t *)">");
 80013ac:	4b07      	ldr	r3, [pc, #28]	; (80013cc <page_2_print+0x24>)
 80013ae:	001a      	movs	r2, r3
 80013b0:	2100      	movs	r1, #0
 80013b2:	2000      	movs	r0, #0
 80013b4:	f7ff fb0c 	bl	80009d0 <lcd_puts>
	lcd_puts(0, 1, (int8_t *)"FOCUS  :");
 80013b8:	4b05      	ldr	r3, [pc, #20]	; (80013d0 <page_2_print+0x28>)
 80013ba:	001a      	movs	r2, r3
 80013bc:	2101      	movs	r1, #1
 80013be:	2000      	movs	r0, #0
 80013c0:	f7ff fb06 	bl	80009d0 <lcd_puts>
}
 80013c4:	46c0      	nop			; (mov r8, r8)
 80013c6:	46bd      	mov	sp, r7
 80013c8:	bd80      	pop	{r7, pc}
 80013ca:	46c0      	nop			; (mov r8, r8)
 80013cc:	08006394 	.word	0x08006394
 80013d0:	08006398 	.word	0x08006398

080013d4 <page_3_print>:

void page_3_print()
{
 80013d4:	b580      	push	{r7, lr}
 80013d6:	b082      	sub	sp, #8
 80013d8:	af00      	add	r7, sp, #0
	char buf[3];
	lcd_puts(0, 0, (int8_t *)">");
 80013da:	4b4b      	ldr	r3, [pc, #300]	; (8001508 <page_3_print+0x134>)
 80013dc:	001a      	movs	r2, r3
 80013de:	2100      	movs	r1, #0
 80013e0:	2000      	movs	r0, #0
 80013e2:	f7ff faf5 	bl	80009d0 <lcd_puts>
	lcd_puts(0, 1, (int8_t *)"FOCUS  :");
 80013e6:	4b49      	ldr	r3, [pc, #292]	; (800150c <page_3_print+0x138>)
 80013e8:	001a      	movs	r2, r3
 80013ea:	2101      	movs	r1, #1
 80013ec:	2000      	movs	r0, #0
 80013ee:	f7ff faef 	bl	80009d0 <lcd_puts>
	lcd_puts(1, 1, (int8_t *)"SMALL  : ");
 80013f2:	4b47      	ldr	r3, [pc, #284]	; (8001510 <page_3_print+0x13c>)
 80013f4:	001a      	movs	r2, r3
 80013f6:	2101      	movs	r1, #1
 80013f8:	2001      	movs	r0, #1
 80013fa:	f7ff fae9 	bl	80009d0 <lcd_puts>
	lcd_puts(2, 1, (int8_t *)"Medium : ");
 80013fe:	4b45      	ldr	r3, [pc, #276]	; (8001514 <page_3_print+0x140>)
 8001400:	001a      	movs	r2, r3
 8001402:	2101      	movs	r1, #1
 8001404:	2002      	movs	r0, #2
 8001406:	f7ff fae3 	bl	80009d0 <lcd_puts>
	lcd_puts(3, 1, (int8_t *)"Wide   : ");
 800140a:	4b43      	ldr	r3, [pc, #268]	; (8001518 <page_3_print+0x144>)
 800140c:	001a      	movs	r2, r3
 800140e:	2101      	movs	r1, #1
 8001410:	2003      	movs	r0, #3
 8001412:	f7ff fadd 	bl	80009d0 <lcd_puts>

	if (pg3_sm)
 8001416:	4b41      	ldr	r3, [pc, #260]	; (800151c <page_3_print+0x148>)
 8001418:	781b      	ldrb	r3, [r3, #0]
 800141a:	2b00      	cmp	r3, #0
 800141c:	d01c      	beq.n	8001458 <page_3_print+0x84>
	{
		clr_data(8);
 800141e:	2008      	movs	r0, #8
 8001420:	f7ff fb28 	bl	8000a74 <clr_data>
		send_cmd(pg3_sm, 8);
 8001424:	4b3d      	ldr	r3, [pc, #244]	; (800151c <page_3_print+0x148>)
 8001426:	781b      	ldrb	r3, [r3, #0]
 8001428:	b25b      	sxtb	r3, r3
 800142a:	2108      	movs	r1, #8
 800142c:	0018      	movs	r0, r3
 800142e:	f000 fbb9 	bl	8001ba4 <send_cmd>
		lcd_puts(1, 10, (int8_t *)"ON");
 8001432:	4b3b      	ldr	r3, [pc, #236]	; (8001520 <page_3_print+0x14c>)
 8001434:	001a      	movs	r2, r3
 8001436:	210a      	movs	r1, #10
 8001438:	2001      	movs	r0, #1
 800143a:	f7ff fac9 	bl	80009d0 <lcd_puts>
		lcd_puts(3, 10, (int8_t *)"OFF");
 800143e:	4b39      	ldr	r3, [pc, #228]	; (8001524 <page_3_print+0x150>)
 8001440:	001a      	movs	r2, r3
 8001442:	210a      	movs	r1, #10
 8001444:	2003      	movs	r0, #3
 8001446:	f7ff fac3 	bl	80009d0 <lcd_puts>
		lcd_puts(2, 10, (int8_t *)"OFF");
 800144a:	4b36      	ldr	r3, [pc, #216]	; (8001524 <page_3_print+0x150>)
 800144c:	001a      	movs	r2, r3
 800144e:	210a      	movs	r1, #10
 8001450:	2002      	movs	r0, #2
 8001452:	f7ff fabd 	bl	80009d0 <lcd_puts>
	{
		lcd_puts(3, 10, (int8_t *)"OFF");
		lcd_puts(1, 10, (int8_t *)"OFF");
		lcd_puts(2, 10, (int8_t *)"OFF");
	}
}
 8001456:	e053      	b.n	8001500 <page_3_print+0x12c>
	else if (pg3_md)
 8001458:	4b33      	ldr	r3, [pc, #204]	; (8001528 <page_3_print+0x154>)
 800145a:	781b      	ldrb	r3, [r3, #0]
 800145c:	2b00      	cmp	r3, #0
 800145e:	d01c      	beq.n	800149a <page_3_print+0xc6>
		clr_data(9);
 8001460:	2009      	movs	r0, #9
 8001462:	f7ff fb07 	bl	8000a74 <clr_data>
		send_cmd(pg3_md, 9);
 8001466:	4b30      	ldr	r3, [pc, #192]	; (8001528 <page_3_print+0x154>)
 8001468:	781b      	ldrb	r3, [r3, #0]
 800146a:	b25b      	sxtb	r3, r3
 800146c:	2109      	movs	r1, #9
 800146e:	0018      	movs	r0, r3
 8001470:	f000 fb98 	bl	8001ba4 <send_cmd>
		lcd_puts(2, 10, (int8_t *)"ON");
 8001474:	4b2a      	ldr	r3, [pc, #168]	; (8001520 <page_3_print+0x14c>)
 8001476:	001a      	movs	r2, r3
 8001478:	210a      	movs	r1, #10
 800147a:	2002      	movs	r0, #2
 800147c:	f7ff faa8 	bl	80009d0 <lcd_puts>
		lcd_puts(3, 10, (int8_t *)"OFF");
 8001480:	4b28      	ldr	r3, [pc, #160]	; (8001524 <page_3_print+0x150>)
 8001482:	001a      	movs	r2, r3
 8001484:	210a      	movs	r1, #10
 8001486:	2003      	movs	r0, #3
 8001488:	f7ff faa2 	bl	80009d0 <lcd_puts>
		lcd_puts(1, 10, (int8_t *)"OFF");
 800148c:	4b25      	ldr	r3, [pc, #148]	; (8001524 <page_3_print+0x150>)
 800148e:	001a      	movs	r2, r3
 8001490:	210a      	movs	r1, #10
 8001492:	2001      	movs	r0, #1
 8001494:	f7ff fa9c 	bl	80009d0 <lcd_puts>
}
 8001498:	e032      	b.n	8001500 <page_3_print+0x12c>
	else if (pg3_wd)
 800149a:	4b24      	ldr	r3, [pc, #144]	; (800152c <page_3_print+0x158>)
 800149c:	781b      	ldrb	r3, [r3, #0]
 800149e:	2b00      	cmp	r3, #0
 80014a0:	d01c      	beq.n	80014dc <page_3_print+0x108>
		clr_data(10);
 80014a2:	200a      	movs	r0, #10
 80014a4:	f7ff fae6 	bl	8000a74 <clr_data>
		send_cmd(pg3_wd, 10);
 80014a8:	4b20      	ldr	r3, [pc, #128]	; (800152c <page_3_print+0x158>)
 80014aa:	781b      	ldrb	r3, [r3, #0]
 80014ac:	b25b      	sxtb	r3, r3
 80014ae:	210a      	movs	r1, #10
 80014b0:	0018      	movs	r0, r3
 80014b2:	f000 fb77 	bl	8001ba4 <send_cmd>
		lcd_puts(3, 10, (int8_t *)"ON");
 80014b6:	4b1a      	ldr	r3, [pc, #104]	; (8001520 <page_3_print+0x14c>)
 80014b8:	001a      	movs	r2, r3
 80014ba:	210a      	movs	r1, #10
 80014bc:	2003      	movs	r0, #3
 80014be:	f7ff fa87 	bl	80009d0 <lcd_puts>
		lcd_puts(1, 10, (int8_t *)"OFF");
 80014c2:	4b18      	ldr	r3, [pc, #96]	; (8001524 <page_3_print+0x150>)
 80014c4:	001a      	movs	r2, r3
 80014c6:	210a      	movs	r1, #10
 80014c8:	2001      	movs	r0, #1
 80014ca:	f7ff fa81 	bl	80009d0 <lcd_puts>
		lcd_puts(2, 10, (int8_t *)"OFF");
 80014ce:	4b15      	ldr	r3, [pc, #84]	; (8001524 <page_3_print+0x150>)
 80014d0:	001a      	movs	r2, r3
 80014d2:	210a      	movs	r1, #10
 80014d4:	2002      	movs	r0, #2
 80014d6:	f7ff fa7b 	bl	80009d0 <lcd_puts>
}
 80014da:	e011      	b.n	8001500 <page_3_print+0x12c>
		lcd_puts(3, 10, (int8_t *)"OFF");
 80014dc:	4b11      	ldr	r3, [pc, #68]	; (8001524 <page_3_print+0x150>)
 80014de:	001a      	movs	r2, r3
 80014e0:	210a      	movs	r1, #10
 80014e2:	2003      	movs	r0, #3
 80014e4:	f7ff fa74 	bl	80009d0 <lcd_puts>
		lcd_puts(1, 10, (int8_t *)"OFF");
 80014e8:	4b0e      	ldr	r3, [pc, #56]	; (8001524 <page_3_print+0x150>)
 80014ea:	001a      	movs	r2, r3
 80014ec:	210a      	movs	r1, #10
 80014ee:	2001      	movs	r0, #1
 80014f0:	f7ff fa6e 	bl	80009d0 <lcd_puts>
		lcd_puts(2, 10, (int8_t *)"OFF");
 80014f4:	4b0b      	ldr	r3, [pc, #44]	; (8001524 <page_3_print+0x150>)
 80014f6:	001a      	movs	r2, r3
 80014f8:	210a      	movs	r1, #10
 80014fa:	2002      	movs	r0, #2
 80014fc:	f7ff fa68 	bl	80009d0 <lcd_puts>
}
 8001500:	46c0      	nop			; (mov r8, r8)
 8001502:	46bd      	mov	sp, r7
 8001504:	b002      	add	sp, #8
 8001506:	bd80      	pop	{r7, pc}
 8001508:	08006394 	.word	0x08006394
 800150c:	08006398 	.word	0x08006398
 8001510:	080063a4 	.word	0x080063a4
 8001514:	080063b0 	.word	0x080063b0
 8001518:	080063bc 	.word	0x080063bc
 800151c:	200000a0 	.word	0x200000a0
 8001520:	0800638c 	.word	0x0800638c
 8001524:	08006390 	.word	0x08006390
 8001528:	200000a1 	.word	0x200000a1
 800152c:	200000a2 	.word	0x200000a2

08001530 <update_screen_data_2>:

void update_screen_data_2()
{
 8001530:	b580      	push	{r7, lr}
 8001532:	af00      	add	r7, sp, #0
	focus_upd = 1;
 8001534:	4b08      	ldr	r3, [pc, #32]	; (8001558 <update_screen_data_2+0x28>)
 8001536:	2201      	movs	r2, #1
 8001538:	701a      	strb	r2, [r3, #0]
	lcd_puts(0, 0, (int8_t *)">");
 800153a:	4b08      	ldr	r3, [pc, #32]	; (800155c <update_screen_data_2+0x2c>)
 800153c:	001a      	movs	r2, r3
 800153e:	2100      	movs	r1, #0
 8001540:	2000      	movs	r0, #0
 8001542:	f7ff fa45 	bl	80009d0 <lcd_puts>
	lcd_puts(0, 10, (int8_t *)"Disable");
 8001546:	4b06      	ldr	r3, [pc, #24]	; (8001560 <update_screen_data_2+0x30>)
 8001548:	001a      	movs	r2, r3
 800154a:	210a      	movs	r1, #10
 800154c:	2000      	movs	r0, #0
 800154e:	f7ff fa3f 	bl	80009d0 <lcd_puts>
	// send_cmd(!pg3_sm, 8);

	// lcd_puts(3, 10, (int8_t *)"OFF");
	// send_cmd(!pg3_wd, 10);
	// send_cmd(1, 11);
}
 8001552:	46c0      	nop			; (mov r8, r8)
 8001554:	46bd      	mov	sp, r7
 8001556:	bd80      	pop	{r7, pc}
 8001558:	2000009d 	.word	0x2000009d
 800155c:	08006394 	.word	0x08006394
 8001560:	080063c8 	.word	0x080063c8

08001564 <update_screen_data_3>:

void update_screen_data_3()
{
 8001564:	b580      	push	{r7, lr}
 8001566:	af00      	add	r7, sp, #0

	// if (current_pos.key_number == _pos || current_pos.key_number == _neg)

	switch (current_pos.position_cursor)
 8001568:	4bb2      	ldr	r3, [pc, #712]	; (8001834 <update_screen_data_3+0x2d0>)
 800156a:	781b      	ldrb	r3, [r3, #0]
 800156c:	b25b      	sxtb	r3, r3
 800156e:	2b07      	cmp	r3, #7
 8001570:	d00d      	beq.n	800158e <update_screen_data_3+0x2a>
 8001572:	dd00      	ble.n	8001576 <update_screen_data_3+0x12>
 8001574:	e15a      	b.n	800182c <update_screen_data_3+0x2c8>
 8001576:	2b03      	cmp	r3, #3
 8001578:	d100      	bne.n	800157c <update_screen_data_3+0x18>
 800157a:	e10f      	b.n	800179c <update_screen_data_3+0x238>
 800157c:	dd00      	ble.n	8001580 <update_screen_data_3+0x1c>
 800157e:	e155      	b.n	800182c <update_screen_data_3+0x2c8>
 8001580:	2b01      	cmp	r3, #1
 8001582:	d100      	bne.n	8001586 <update_screen_data_3+0x22>
 8001584:	e08e      	b.n	80016a4 <update_screen_data_3+0x140>
 8001586:	2b02      	cmp	r3, #2
 8001588:	d100      	bne.n	800158c <update_screen_data_3+0x28>
 800158a:	e0cb      	b.n	8001724 <update_screen_data_3+0x1c0>
		// 	send_cmd(pg3_wd, 10);
		// }
		break;
	}
	// }
}
 800158c:	e14e      	b.n	800182c <update_screen_data_3+0x2c8>
		lcd_puts(0, 0, (int8_t *)">");
 800158e:	4baa      	ldr	r3, [pc, #680]	; (8001838 <update_screen_data_3+0x2d4>)
 8001590:	001a      	movs	r2, r3
 8001592:	2100      	movs	r1, #0
 8001594:	2000      	movs	r0, #0
 8001596:	f7ff fa1b 	bl	80009d0 <lcd_puts>
		lcd_puts(1, 0, (int8_t *)" ");
 800159a:	4ba8      	ldr	r3, [pc, #672]	; (800183c <update_screen_data_3+0x2d8>)
 800159c:	001a      	movs	r2, r3
 800159e:	2100      	movs	r1, #0
 80015a0:	2001      	movs	r0, #1
 80015a2:	f7ff fa15 	bl	80009d0 <lcd_puts>
		lcd_puts(2, 0, (int8_t *)" ");
 80015a6:	4ba5      	ldr	r3, [pc, #660]	; (800183c <update_screen_data_3+0x2d8>)
 80015a8:	001a      	movs	r2, r3
 80015aa:	2100      	movs	r1, #0
 80015ac:	2002      	movs	r0, #2
 80015ae:	f7ff fa0f 	bl	80009d0 <lcd_puts>
		lcd_puts(3, 0, (int8_t *)" ");
 80015b2:	4ba2      	ldr	r3, [pc, #648]	; (800183c <update_screen_data_3+0x2d8>)
 80015b4:	001a      	movs	r2, r3
 80015b6:	2100      	movs	r1, #0
 80015b8:	2003      	movs	r0, #3
 80015ba:	f7ff fa09 	bl	80009d0 <lcd_puts>
		if (pg2_fc)
 80015be:	4ba0      	ldr	r3, [pc, #640]	; (8001840 <update_screen_data_3+0x2dc>)
 80015c0:	781b      	ldrb	r3, [r3, #0]
 80015c2:	2b00      	cmp	r3, #0
 80015c4:	d033      	beq.n	800162e <update_screen_data_3+0xca>
			lcd_puts(0, 15, (int8_t *)"  ");
 80015c6:	4b9f      	ldr	r3, [pc, #636]	; (8001844 <update_screen_data_3+0x2e0>)
 80015c8:	001a      	movs	r2, r3
 80015ca:	210f      	movs	r1, #15
 80015cc:	2000      	movs	r0, #0
 80015ce:	f7ff f9ff 	bl	80009d0 <lcd_puts>
			lcd_puts(0, 10, (int8_t *)"Enable");
 80015d2:	4b9d      	ldr	r3, [pc, #628]	; (8001848 <update_screen_data_3+0x2e4>)
 80015d4:	001a      	movs	r2, r3
 80015d6:	210a      	movs	r1, #10
 80015d8:	2000      	movs	r0, #0
 80015da:	f7ff f9f9 	bl	80009d0 <lcd_puts>
			if (focus_upd)
 80015de:	4b9b      	ldr	r3, [pc, #620]	; (800184c <update_screen_data_3+0x2e8>)
 80015e0:	781b      	ldrb	r3, [r3, #0]
 80015e2:	2b00      	cmp	r3, #0
 80015e4:	d01a      	beq.n	800161c <update_screen_data_3+0xb8>
				lcd_puts(3, 10, (int8_t *)"OFF");
 80015e6:	4b9a      	ldr	r3, [pc, #616]	; (8001850 <update_screen_data_3+0x2ec>)
 80015e8:	001a      	movs	r2, r3
 80015ea:	210a      	movs	r1, #10
 80015ec:	2003      	movs	r0, #3
 80015ee:	f7ff f9ef 	bl	80009d0 <lcd_puts>
				lcd_puts(1, 10, (int8_t *)"OFF");
 80015f2:	4b97      	ldr	r3, [pc, #604]	; (8001850 <update_screen_data_3+0x2ec>)
 80015f4:	001a      	movs	r2, r3
 80015f6:	210a      	movs	r1, #10
 80015f8:	2001      	movs	r0, #1
 80015fa:	f7ff f9e9 	bl	80009d0 <lcd_puts>
				lcd_puts(2, 10, (int8_t *)"OFF");
 80015fe:	4b94      	ldr	r3, [pc, #592]	; (8001850 <update_screen_data_3+0x2ec>)
 8001600:	001a      	movs	r2, r3
 8001602:	210a      	movs	r1, #10
 8001604:	2002      	movs	r0, #2
 8001606:	f7ff f9e3 	bl	80009d0 <lcd_puts>
				pg3_sm = 0;
 800160a:	4b92      	ldr	r3, [pc, #584]	; (8001854 <update_screen_data_3+0x2f0>)
 800160c:	2200      	movs	r2, #0
 800160e:	701a      	strb	r2, [r3, #0]
				pg3_md = 0;
 8001610:	4b91      	ldr	r3, [pc, #580]	; (8001858 <update_screen_data_3+0x2f4>)
 8001612:	2200      	movs	r2, #0
 8001614:	701a      	strb	r2, [r3, #0]
				pg3_wd = 0;
 8001616:	4b91      	ldr	r3, [pc, #580]	; (800185c <update_screen_data_3+0x2f8>)
 8001618:	2200      	movs	r2, #0
 800161a:	701a      	strb	r2, [r3, #0]
			last_focus = data_reg.intensity;
 800161c:	4b90      	ldr	r3, [pc, #576]	; (8001860 <update_screen_data_3+0x2fc>)
 800161e:	781b      	ldrb	r3, [r3, #0]
 8001620:	071b      	lsls	r3, r3, #28
 8001622:	0f1b      	lsrs	r3, r3, #28
 8001624:	b2db      	uxtb	r3, r3
 8001626:	b25a      	sxtb	r2, r3
 8001628:	4b8e      	ldr	r3, [pc, #568]	; (8001864 <update_screen_data_3+0x300>)
 800162a:	701a      	strb	r2, [r3, #0]
		break;
 800162c:	e0fe      	b.n	800182c <update_screen_data_3+0x2c8>
			if (focus_upd == 1)
 800162e:	4b87      	ldr	r3, [pc, #540]	; (800184c <update_screen_data_3+0x2e8>)
 8001630:	781b      	ldrb	r3, [r3, #0]
 8001632:	2b01      	cmp	r3, #1
 8001634:	d111      	bne.n	800165a <update_screen_data_3+0xf6>
				lcd_puts(2, 10, (int8_t *)"OFF");
 8001636:	4b86      	ldr	r3, [pc, #536]	; (8001850 <update_screen_data_3+0x2ec>)
 8001638:	001a      	movs	r2, r3
 800163a:	210a      	movs	r1, #10
 800163c:	2002      	movs	r0, #2
 800163e:	f7ff f9c7 	bl	80009d0 <lcd_puts>
				lcd_puts(1, 10, (int8_t *)"OFF");
 8001642:	4b83      	ldr	r3, [pc, #524]	; (8001850 <update_screen_data_3+0x2ec>)
 8001644:	001a      	movs	r2, r3
 8001646:	210a      	movs	r1, #10
 8001648:	2001      	movs	r0, #1
 800164a:	f7ff f9c1 	bl	80009d0 <lcd_puts>
				lcd_puts(3, 10, (int8_t *)"OFF");
 800164e:	4b80      	ldr	r3, [pc, #512]	; (8001850 <update_screen_data_3+0x2ec>)
 8001650:	001a      	movs	r2, r3
 8001652:	210a      	movs	r1, #10
 8001654:	2003      	movs	r0, #3
 8001656:	f7ff f9bb 	bl	80009d0 <lcd_puts>
			lcd_puts(0, 10, (int8_t *)"Disable");
 800165a:	4b83      	ldr	r3, [pc, #524]	; (8001868 <update_screen_data_3+0x304>)
 800165c:	001a      	movs	r2, r3
 800165e:	210a      	movs	r1, #10
 8001660:	2000      	movs	r0, #0
 8001662:	f7ff f9b5 	bl	80009d0 <lcd_puts>
			send_cmd(!pg3_md, 9);
 8001666:	4b7c      	ldr	r3, [pc, #496]	; (8001858 <update_screen_data_3+0x2f4>)
 8001668:	781b      	ldrb	r3, [r3, #0]
 800166a:	425a      	negs	r2, r3
 800166c:	4153      	adcs	r3, r2
 800166e:	b2db      	uxtb	r3, r3
 8001670:	b25b      	sxtb	r3, r3
 8001672:	2109      	movs	r1, #9
 8001674:	0018      	movs	r0, r3
 8001676:	f000 fa95 	bl	8001ba4 <send_cmd>
			send_cmd(!pg3_sm, 8);
 800167a:	4b76      	ldr	r3, [pc, #472]	; (8001854 <update_screen_data_3+0x2f0>)
 800167c:	781b      	ldrb	r3, [r3, #0]
 800167e:	425a      	negs	r2, r3
 8001680:	4153      	adcs	r3, r2
 8001682:	b2db      	uxtb	r3, r3
 8001684:	b25b      	sxtb	r3, r3
 8001686:	2108      	movs	r1, #8
 8001688:	0018      	movs	r0, r3
 800168a:	f000 fa8b 	bl	8001ba4 <send_cmd>
			send_cmd(!pg3_wd, 10);
 800168e:	4b73      	ldr	r3, [pc, #460]	; (800185c <update_screen_data_3+0x2f8>)
 8001690:	781b      	ldrb	r3, [r3, #0]
 8001692:	425a      	negs	r2, r3
 8001694:	4153      	adcs	r3, r2
 8001696:	b2db      	uxtb	r3, r3
 8001698:	b25b      	sxtb	r3, r3
 800169a:	210a      	movs	r1, #10
 800169c:	0018      	movs	r0, r3
 800169e:	f000 fa81 	bl	8001ba4 <send_cmd>
		break;
 80016a2:	e0c3      	b.n	800182c <update_screen_data_3+0x2c8>
		lcd_puts(0, 0, (int8_t *)" ");
 80016a4:	4b65      	ldr	r3, [pc, #404]	; (800183c <update_screen_data_3+0x2d8>)
 80016a6:	001a      	movs	r2, r3
 80016a8:	2100      	movs	r1, #0
 80016aa:	2000      	movs	r0, #0
 80016ac:	f7ff f990 	bl	80009d0 <lcd_puts>
		lcd_puts(1, 0, (int8_t *)">");
 80016b0:	4b61      	ldr	r3, [pc, #388]	; (8001838 <update_screen_data_3+0x2d4>)
 80016b2:	001a      	movs	r2, r3
 80016b4:	2100      	movs	r1, #0
 80016b6:	2001      	movs	r0, #1
 80016b8:	f7ff f98a 	bl	80009d0 <lcd_puts>
		lcd_puts(2, 0, (int8_t *)" ");
 80016bc:	4b5f      	ldr	r3, [pc, #380]	; (800183c <update_screen_data_3+0x2d8>)
 80016be:	001a      	movs	r2, r3
 80016c0:	2100      	movs	r1, #0
 80016c2:	2002      	movs	r0, #2
 80016c4:	f7ff f984 	bl	80009d0 <lcd_puts>
		lcd_puts(3, 0, (int8_t *)" ");
 80016c8:	4b5c      	ldr	r3, [pc, #368]	; (800183c <update_screen_data_3+0x2d8>)
 80016ca:	001a      	movs	r2, r3
 80016cc:	2100      	movs	r1, #0
 80016ce:	2003      	movs	r0, #3
 80016d0:	f7ff f97e 	bl	80009d0 <lcd_puts>
		if (pg3_sm)
 80016d4:	4b5f      	ldr	r3, [pc, #380]	; (8001854 <update_screen_data_3+0x2f0>)
 80016d6:	781b      	ldrb	r3, [r3, #0]
 80016d8:	2b00      	cmp	r3, #0
 80016da:	d100      	bne.n	80016de <update_screen_data_3+0x17a>
 80016dc:	e0a1      	b.n	8001822 <update_screen_data_3+0x2be>
			focus_upd = 0;
 80016de:	4b5b      	ldr	r3, [pc, #364]	; (800184c <update_screen_data_3+0x2e8>)
 80016e0:	2200      	movs	r2, #0
 80016e2:	701a      	strb	r2, [r3, #0]
			lcd_puts(1, 10, (int8_t *)"   ");
 80016e4:	4b61      	ldr	r3, [pc, #388]	; (800186c <update_screen_data_3+0x308>)
 80016e6:	001a      	movs	r2, r3
 80016e8:	210a      	movs	r1, #10
 80016ea:	2001      	movs	r0, #1
 80016ec:	f7ff f970 	bl	80009d0 <lcd_puts>
			lcd_puts(1, 10, (int8_t *)"ON");
 80016f0:	4b5f      	ldr	r3, [pc, #380]	; (8001870 <update_screen_data_3+0x30c>)
 80016f2:	001a      	movs	r2, r3
 80016f4:	210a      	movs	r1, #10
 80016f6:	2001      	movs	r0, #1
 80016f8:	f7ff f96a 	bl	80009d0 <lcd_puts>
			lcd_puts(2, 10, (int8_t *)"OFF");
 80016fc:	4b54      	ldr	r3, [pc, #336]	; (8001850 <update_screen_data_3+0x2ec>)
 80016fe:	001a      	movs	r2, r3
 8001700:	210a      	movs	r1, #10
 8001702:	2002      	movs	r0, #2
 8001704:	f7ff f964 	bl	80009d0 <lcd_puts>
			lcd_puts(3, 10, (int8_t *)"OFF");
 8001708:	4b51      	ldr	r3, [pc, #324]	; (8001850 <update_screen_data_3+0x2ec>)
 800170a:	001a      	movs	r2, r3
 800170c:	210a      	movs	r1, #10
 800170e:	2003      	movs	r0, #3
 8001710:	f7ff f95e 	bl	80009d0 <lcd_puts>
			send_cmd(pg3_sm, 8);
 8001714:	4b4f      	ldr	r3, [pc, #316]	; (8001854 <update_screen_data_3+0x2f0>)
 8001716:	781b      	ldrb	r3, [r3, #0]
 8001718:	b25b      	sxtb	r3, r3
 800171a:	2108      	movs	r1, #8
 800171c:	0018      	movs	r0, r3
 800171e:	f000 fa41 	bl	8001ba4 <send_cmd>
		break;
 8001722:	e07e      	b.n	8001822 <update_screen_data_3+0x2be>
		lcd_puts(0, 0, (int8_t *)" ");
 8001724:	4b45      	ldr	r3, [pc, #276]	; (800183c <update_screen_data_3+0x2d8>)
 8001726:	001a      	movs	r2, r3
 8001728:	2100      	movs	r1, #0
 800172a:	2000      	movs	r0, #0
 800172c:	f7ff f950 	bl	80009d0 <lcd_puts>
		lcd_puts(1, 0, (int8_t *)" ");
 8001730:	4b42      	ldr	r3, [pc, #264]	; (800183c <update_screen_data_3+0x2d8>)
 8001732:	001a      	movs	r2, r3
 8001734:	2100      	movs	r1, #0
 8001736:	2001      	movs	r0, #1
 8001738:	f7ff f94a 	bl	80009d0 <lcd_puts>
		lcd_puts(2, 0, (int8_t *)">");
 800173c:	4b3e      	ldr	r3, [pc, #248]	; (8001838 <update_screen_data_3+0x2d4>)
 800173e:	001a      	movs	r2, r3
 8001740:	2100      	movs	r1, #0
 8001742:	2002      	movs	r0, #2
 8001744:	f7ff f944 	bl	80009d0 <lcd_puts>
		lcd_puts(3, 0, (int8_t *)" ");
 8001748:	4b3c      	ldr	r3, [pc, #240]	; (800183c <update_screen_data_3+0x2d8>)
 800174a:	001a      	movs	r2, r3
 800174c:	2100      	movs	r1, #0
 800174e:	2003      	movs	r0, #3
 8001750:	f7ff f93e 	bl	80009d0 <lcd_puts>
		if (pg3_md)
 8001754:	4b40      	ldr	r3, [pc, #256]	; (8001858 <update_screen_data_3+0x2f4>)
 8001756:	781b      	ldrb	r3, [r3, #0]
 8001758:	2b00      	cmp	r3, #0
 800175a:	d064      	beq.n	8001826 <update_screen_data_3+0x2c2>
			lcd_puts(2, 10, (int8_t *)"   ");
 800175c:	4b43      	ldr	r3, [pc, #268]	; (800186c <update_screen_data_3+0x308>)
 800175e:	001a      	movs	r2, r3
 8001760:	210a      	movs	r1, #10
 8001762:	2002      	movs	r0, #2
 8001764:	f7ff f934 	bl	80009d0 <lcd_puts>
			lcd_puts(1, 10, (int8_t *)"OFF");
 8001768:	4b39      	ldr	r3, [pc, #228]	; (8001850 <update_screen_data_3+0x2ec>)
 800176a:	001a      	movs	r2, r3
 800176c:	210a      	movs	r1, #10
 800176e:	2001      	movs	r0, #1
 8001770:	f7ff f92e 	bl	80009d0 <lcd_puts>
			lcd_puts(2, 10, (int8_t *)"ON");
 8001774:	4b3e      	ldr	r3, [pc, #248]	; (8001870 <update_screen_data_3+0x30c>)
 8001776:	001a      	movs	r2, r3
 8001778:	210a      	movs	r1, #10
 800177a:	2002      	movs	r0, #2
 800177c:	f7ff f928 	bl	80009d0 <lcd_puts>
			lcd_puts(3, 10, (int8_t *)"OFF");
 8001780:	4b33      	ldr	r3, [pc, #204]	; (8001850 <update_screen_data_3+0x2ec>)
 8001782:	001a      	movs	r2, r3
 8001784:	210a      	movs	r1, #10
 8001786:	2003      	movs	r0, #3
 8001788:	f7ff f922 	bl	80009d0 <lcd_puts>
			send_cmd(pg3_md, 9);
 800178c:	4b32      	ldr	r3, [pc, #200]	; (8001858 <update_screen_data_3+0x2f4>)
 800178e:	781b      	ldrb	r3, [r3, #0]
 8001790:	b25b      	sxtb	r3, r3
 8001792:	2109      	movs	r1, #9
 8001794:	0018      	movs	r0, r3
 8001796:	f000 fa05 	bl	8001ba4 <send_cmd>
		break;
 800179a:	e044      	b.n	8001826 <update_screen_data_3+0x2c2>
		lcd_puts(0, 0, (int8_t *)" ");
 800179c:	4b27      	ldr	r3, [pc, #156]	; (800183c <update_screen_data_3+0x2d8>)
 800179e:	001a      	movs	r2, r3
 80017a0:	2100      	movs	r1, #0
 80017a2:	2000      	movs	r0, #0
 80017a4:	f7ff f914 	bl	80009d0 <lcd_puts>
		lcd_puts(1, 0, (int8_t *)" ");
 80017a8:	4b24      	ldr	r3, [pc, #144]	; (800183c <update_screen_data_3+0x2d8>)
 80017aa:	001a      	movs	r2, r3
 80017ac:	2100      	movs	r1, #0
 80017ae:	2001      	movs	r0, #1
 80017b0:	f7ff f90e 	bl	80009d0 <lcd_puts>
		lcd_puts(2, 0, (int8_t *)" ");
 80017b4:	4b21      	ldr	r3, [pc, #132]	; (800183c <update_screen_data_3+0x2d8>)
 80017b6:	001a      	movs	r2, r3
 80017b8:	2100      	movs	r1, #0
 80017ba:	2002      	movs	r0, #2
 80017bc:	f7ff f908 	bl	80009d0 <lcd_puts>
		lcd_puts(3, 0, (int8_t *)">");
 80017c0:	4b1d      	ldr	r3, [pc, #116]	; (8001838 <update_screen_data_3+0x2d4>)
 80017c2:	001a      	movs	r2, r3
 80017c4:	2100      	movs	r1, #0
 80017c6:	2003      	movs	r0, #3
 80017c8:	f7ff f902 	bl	80009d0 <lcd_puts>
		if (pg3_wd)
 80017cc:	4b23      	ldr	r3, [pc, #140]	; (800185c <update_screen_data_3+0x2f8>)
 80017ce:	781b      	ldrb	r3, [r3, #0]
 80017d0:	2b00      	cmp	r3, #0
 80017d2:	d02a      	beq.n	800182a <update_screen_data_3+0x2c6>
			lcd_puts(3, 10, (int8_t *)"   ");
 80017d4:	4b25      	ldr	r3, [pc, #148]	; (800186c <update_screen_data_3+0x308>)
 80017d6:	001a      	movs	r2, r3
 80017d8:	210a      	movs	r1, #10
 80017da:	2003      	movs	r0, #3
 80017dc:	f7ff f8f8 	bl	80009d0 <lcd_puts>
			lcd_puts(1, 10, (int8_t *)"OFF");
 80017e0:	4b1b      	ldr	r3, [pc, #108]	; (8001850 <update_screen_data_3+0x2ec>)
 80017e2:	001a      	movs	r2, r3
 80017e4:	210a      	movs	r1, #10
 80017e6:	2001      	movs	r0, #1
 80017e8:	f7ff f8f2 	bl	80009d0 <lcd_puts>
			lcd_puts(2, 10, (int8_t *)"OFF");
 80017ec:	4b18      	ldr	r3, [pc, #96]	; (8001850 <update_screen_data_3+0x2ec>)
 80017ee:	001a      	movs	r2, r3
 80017f0:	210a      	movs	r1, #10
 80017f2:	2002      	movs	r0, #2
 80017f4:	f7ff f8ec 	bl	80009d0 <lcd_puts>
			lcd_puts(3, 10, (int8_t *)"ON");
 80017f8:	4b1d      	ldr	r3, [pc, #116]	; (8001870 <update_screen_data_3+0x30c>)
 80017fa:	001a      	movs	r2, r3
 80017fc:	210a      	movs	r1, #10
 80017fe:	2003      	movs	r0, #3
 8001800:	f7ff f8e6 	bl	80009d0 <lcd_puts>
			if (current_pos.key_number == _pos)
 8001804:	4b0b      	ldr	r3, [pc, #44]	; (8001834 <update_screen_data_3+0x2d0>)
 8001806:	785b      	ldrb	r3, [r3, #1]
 8001808:	2207      	movs	r2, #7
 800180a:	4013      	ands	r3, r2
 800180c:	b2db      	uxtb	r3, r3
 800180e:	2b04      	cmp	r3, #4
 8001810:	d10b      	bne.n	800182a <update_screen_data_3+0x2c6>
				send_cmd(pg3_wd, 10);
 8001812:	4b12      	ldr	r3, [pc, #72]	; (800185c <update_screen_data_3+0x2f8>)
 8001814:	781b      	ldrb	r3, [r3, #0]
 8001816:	b25b      	sxtb	r3, r3
 8001818:	210a      	movs	r1, #10
 800181a:	0018      	movs	r0, r3
 800181c:	f000 f9c2 	bl	8001ba4 <send_cmd>
		break;
 8001820:	e003      	b.n	800182a <update_screen_data_3+0x2c6>
		break;
 8001822:	46c0      	nop			; (mov r8, r8)
 8001824:	e002      	b.n	800182c <update_screen_data_3+0x2c8>
		break;
 8001826:	46c0      	nop			; (mov r8, r8)
 8001828:	e000      	b.n	800182c <update_screen_data_3+0x2c8>
		break;
 800182a:	46c0      	nop			; (mov r8, r8)
}
 800182c:	46c0      	nop			; (mov r8, r8)
 800182e:	46bd      	mov	sp, r7
 8001830:	bd80      	pop	{r7, pc}
 8001832:	46c0      	nop			; (mov r8, r8)
 8001834:	20000004 	.word	0x20000004
 8001838:	08006394 	.word	0x08006394
 800183c:	080063d0 	.word	0x080063d0
 8001840:	2000009f 	.word	0x2000009f
 8001844:	080063d4 	.word	0x080063d4
 8001848:	080063d8 	.word	0x080063d8
 800184c:	2000009d 	.word	0x2000009d
 8001850:	08006390 	.word	0x08006390
 8001854:	200000a0 	.word	0x200000a0
 8001858:	200000a1 	.word	0x200000a1
 800185c:	200000a2 	.word	0x200000a2
 8001860:	20000008 	.word	0x20000008
 8001864:	200000b1 	.word	0x200000b1
 8001868:	080063c8 	.word	0x080063c8
 800186c:	080063e0 	.word	0x080063e0
 8001870:	0800638c 	.word	0x0800638c

08001874 <update_screen_data>:

void update_screen_data()
{
 8001874:	b580      	push	{r7, lr}
 8001876:	b082      	sub	sp, #8
 8001878:	af00      	add	r7, sp, #0
	char buffer[3];

	switch (current_pos.position_cursor)
 800187a:	4bbe      	ldr	r3, [pc, #760]	; (8001b74 <update_screen_data+0x300>)
 800187c:	781b      	ldrb	r3, [r3, #0]
 800187e:	b25b      	sxtb	r3, r3
 8001880:	2b06      	cmp	r3, #6
 8001882:	d900      	bls.n	8001886 <update_screen_data+0x12>
 8001884:	e172      	b.n	8001b6c <update_screen_data+0x2f8>
 8001886:	009a      	lsls	r2, r3, #2
 8001888:	4bbb      	ldr	r3, [pc, #748]	; (8001b78 <update_screen_data+0x304>)
 800188a:	18d3      	adds	r3, r2, r3
 800188c:	681b      	ldr	r3, [r3, #0]
 800188e:	469f      	mov	pc, r3
	{
	case intensity:
		if (data_reg.depth == 1)
 8001890:	4bba      	ldr	r3, [pc, #744]	; (8001b7c <update_screen_data+0x308>)
 8001892:	781b      	ldrb	r3, [r3, #0]
 8001894:	227f      	movs	r2, #127	; 0x7f
 8001896:	4393      	bics	r3, r2
 8001898:	b2db      	uxtb	r3, r3
 800189a:	2b00      	cmp	r3, #0
 800189c:	d003      	beq.n	80018a6 <update_screen_data+0x32>
		{
			//			sprintf(buffer, "%02d", data_reg.intensity);
			//			last_inten = data_reg.intensity;
			//			send_cmd(7,intensity);
			// lcd_puts(1, 7, (int8_t *)"MAX");
			depth_press = 0;
 800189e:	4bb8      	ldr	r3, [pc, #736]	; (8001b80 <update_screen_data+0x30c>)
 80018a0:	2200      	movs	r2, #0
 80018a2:	701a      	strb	r2, [r3, #0]
 80018a4:	e013      	b.n	80018ce <update_screen_data+0x5a>
		}
		else
		{
			clr_data(intensity);
 80018a6:	2001      	movs	r0, #1
 80018a8:	f7ff f8e4 	bl	8000a74 <clr_data>
			sprintf(buffer, "%02d", data_reg.intensity);
 80018ac:	4bb3      	ldr	r3, [pc, #716]	; (8001b7c <update_screen_data+0x308>)
 80018ae:	781b      	ldrb	r3, [r3, #0]
 80018b0:	071b      	lsls	r3, r3, #28
 80018b2:	0f1b      	lsrs	r3, r3, #28
 80018b4:	b2db      	uxtb	r3, r3
 80018b6:	001a      	movs	r2, r3
 80018b8:	49b2      	ldr	r1, [pc, #712]	; (8001b84 <update_screen_data+0x310>)
 80018ba:	1d3b      	adds	r3, r7, #4
 80018bc:	0018      	movs	r0, r3
 80018be:	f004 f851 	bl	8005964 <siprintf>
			lcd_puts(1, 7, (int8_t *)buffer);
 80018c2:	1d3b      	adds	r3, r7, #4
 80018c4:	001a      	movs	r2, r3
 80018c6:	2107      	movs	r1, #7
 80018c8:	2001      	movs	r0, #1
 80018ca:	f7ff f881 	bl	80009d0 <lcd_puts>
		}

		clr_select();
 80018ce:	f7ff f9af 	bl	8000c30 <clr_select>
		lcd_puts(1, 0, (int8_t *)">");
 80018d2:	4bad      	ldr	r3, [pc, #692]	; (8001b88 <update_screen_data+0x314>)
 80018d4:	001a      	movs	r2, r3
 80018d6:	2100      	movs	r1, #0
 80018d8:	2001      	movs	r0, #1
 80018da:	f7ff f879 	bl	80009d0 <lcd_puts>
		if (!chk_cmd)
 80018de:	4bab      	ldr	r3, [pc, #684]	; (8001b8c <update_screen_data+0x318>)
 80018e0:	781b      	ldrb	r3, [r3, #0]
 80018e2:	2b00      	cmp	r3, #0
 80018e4:	d000      	beq.n	80018e8 <update_screen_data+0x74>
 80018e6:	e140      	b.n	8001b6a <update_screen_data+0x2f6>
		{
			send_cmd(data_reg.intensity, intensity);
 80018e8:	4ba4      	ldr	r3, [pc, #656]	; (8001b7c <update_screen_data+0x308>)
 80018ea:	781b      	ldrb	r3, [r3, #0]
 80018ec:	071b      	lsls	r3, r3, #28
 80018ee:	0f1b      	lsrs	r3, r3, #28
 80018f0:	b2db      	uxtb	r3, r3
 80018f2:	b25b      	sxtb	r3, r3
 80018f4:	2101      	movs	r1, #1
 80018f6:	0018      	movs	r0, r3
 80018f8:	f000 f954 	bl	8001ba4 <send_cmd>
		}

		break;
 80018fc:	e135      	b.n	8001b6a <update_screen_data+0x2f6>

	case color:
		if (data_reg.color == 1)
 80018fe:	4b9f      	ldr	r3, [pc, #636]	; (8001b7c <update_screen_data+0x308>)
 8001900:	785b      	ldrb	r3, [r3, #1]
 8001902:	b25b      	sxtb	r3, r3
 8001904:	2b01      	cmp	r3, #1
 8001906:	d10e      	bne.n	8001926 <update_screen_data+0xb2>
		{
			lcd_puts(2, 7, (int8_t *)"CW");
 8001908:	4ba1      	ldr	r3, [pc, #644]	; (8001b90 <update_screen_data+0x31c>)
 800190a:	001a      	movs	r2, r3
 800190c:	2107      	movs	r1, #7
 800190e:	2002      	movs	r0, #2
 8001910:	f7ff f85e 	bl	80009d0 <lcd_puts>
			if (!chk_cmd)
 8001914:	4b9d      	ldr	r3, [pc, #628]	; (8001b8c <update_screen_data+0x318>)
 8001916:	781b      	ldrb	r3, [r3, #0]
 8001918:	2b00      	cmp	r3, #0
 800191a:	d128      	bne.n	800196e <update_screen_data+0xfa>
			{
				send_cmd(5, color);
 800191c:	2102      	movs	r1, #2
 800191e:	2005      	movs	r0, #5
 8001920:	f000 f940 	bl	8001ba4 <send_cmd>
 8001924:	e023      	b.n	800196e <update_screen_data+0xfa>
			}
		}
		else if (data_reg.color == -1)
 8001926:	4b95      	ldr	r3, [pc, #596]	; (8001b7c <update_screen_data+0x308>)
 8001928:	785b      	ldrb	r3, [r3, #1]
 800192a:	b25b      	sxtb	r3, r3
 800192c:	3301      	adds	r3, #1
 800192e:	d110      	bne.n	8001952 <update_screen_data+0xde>
		{
			lcd_puts(2, 7, (int8_t *)"WW");
 8001930:	4b98      	ldr	r3, [pc, #608]	; (8001b94 <update_screen_data+0x320>)
 8001932:	001a      	movs	r2, r3
 8001934:	2107      	movs	r1, #7
 8001936:	2002      	movs	r0, #2
 8001938:	f7ff f84a 	bl	80009d0 <lcd_puts>
			if (!chk_cmd)
 800193c:	4b93      	ldr	r3, [pc, #588]	; (8001b8c <update_screen_data+0x318>)
 800193e:	781b      	ldrb	r3, [r3, #0]
 8001940:	2b00      	cmp	r3, #0
 8001942:	d114      	bne.n	800196e <update_screen_data+0xfa>
			{
				send_cmd(-5, color);
 8001944:	2305      	movs	r3, #5
 8001946:	425b      	negs	r3, r3
 8001948:	2102      	movs	r1, #2
 800194a:	0018      	movs	r0, r3
 800194c:	f000 f92a 	bl	8001ba4 <send_cmd>
 8001950:	e00d      	b.n	800196e <update_screen_data+0xfa>
			}
		}

		else
		{
			lcd_puts(2, 7, (int8_t *)"NW");
 8001952:	4b91      	ldr	r3, [pc, #580]	; (8001b98 <update_screen_data+0x324>)
 8001954:	001a      	movs	r2, r3
 8001956:	2107      	movs	r1, #7
 8001958:	2002      	movs	r0, #2
 800195a:	f7ff f839 	bl	80009d0 <lcd_puts>
			if (!chk_cmd)
 800195e:	4b8b      	ldr	r3, [pc, #556]	; (8001b8c <update_screen_data+0x318>)
 8001960:	781b      	ldrb	r3, [r3, #0]
 8001962:	2b00      	cmp	r3, #0
 8001964:	d103      	bne.n	800196e <update_screen_data+0xfa>
			{
				send_cmd(0, color);
 8001966:	2102      	movs	r1, #2
 8001968:	2000      	movs	r0, #0
 800196a:	f000 f91b 	bl	8001ba4 <send_cmd>
			}
		}

		// sprintf(buffer, "%02d", data_reg.color);
		// lcd_puts(2, 7, (int8_t *)buffer);
		clr_select();
 800196e:	f7ff f95f 	bl	8000c30 <clr_select>
		lcd_puts(2, 0, (int8_t *)">");
 8001972:	4b85      	ldr	r3, [pc, #532]	; (8001b88 <update_screen_data+0x314>)
 8001974:	001a      	movs	r2, r3
 8001976:	2100      	movs	r1, #0
 8001978:	2002      	movs	r0, #2
 800197a:	f7ff f829 	bl	80009d0 <lcd_puts>
		// send_cmd(data_reg.color, color);
		break;
 800197e:	e0f5      	b.n	8001b6c <update_screen_data+0x2f8>

	case sensor:
		clr_data(sensor);
 8001980:	2003      	movs	r0, #3
 8001982:	f7ff f877 	bl	8000a74 <clr_data>
		clr_select();
 8001986:	f7ff f953 	bl	8000c30 <clr_select>
		lcd_puts(3, 0, (int8_t *)">");
 800198a:	4b7f      	ldr	r3, [pc, #508]	; (8001b88 <update_screen_data+0x314>)
 800198c:	001a      	movs	r2, r3
 800198e:	2100      	movs	r1, #0
 8001990:	2003      	movs	r0, #3
 8001992:	f7ff f81d 	bl	80009d0 <lcd_puts>
		send_cmd(data_reg.sensor, sensor);
 8001996:	4b79      	ldr	r3, [pc, #484]	; (8001b7c <update_screen_data+0x308>)
 8001998:	781b      	ldrb	r3, [r3, #0]
 800199a:	06db      	lsls	r3, r3, #27
 800199c:	0fdb      	lsrs	r3, r3, #31
 800199e:	b2db      	uxtb	r3, r3
 80019a0:	b25b      	sxtb	r3, r3
 80019a2:	2103      	movs	r1, #3
 80019a4:	0018      	movs	r0, r3
 80019a6:	f000 f8fd 	bl	8001ba4 <send_cmd>

		if (data_reg.sensor)
 80019aa:	4b74      	ldr	r3, [pc, #464]	; (8001b7c <update_screen_data+0x308>)
 80019ac:	781b      	ldrb	r3, [r3, #0]
 80019ae:	2210      	movs	r2, #16
 80019b0:	4013      	ands	r3, r2
 80019b2:	b2db      	uxtb	r3, r3
 80019b4:	2b00      	cmp	r3, #0
 80019b6:	d006      	beq.n	80019c6 <update_screen_data+0x152>
			lcd_puts(3, 7, (int8_t *)"ON");
 80019b8:	4b78      	ldr	r3, [pc, #480]	; (8001b9c <update_screen_data+0x328>)
 80019ba:	001a      	movs	r2, r3
 80019bc:	2107      	movs	r1, #7
 80019be:	2003      	movs	r0, #3
 80019c0:	f7ff f806 	bl	80009d0 <lcd_puts>
		else
			lcd_puts(3, 7, (int8_t *)"OFF");

		break;
 80019c4:	e0d2      	b.n	8001b6c <update_screen_data+0x2f8>
			lcd_puts(3, 7, (int8_t *)"OFF");
 80019c6:	4b76      	ldr	r3, [pc, #472]	; (8001ba0 <update_screen_data+0x32c>)
 80019c8:	001a      	movs	r2, r3
 80019ca:	2107      	movs	r1, #7
 80019cc:	2003      	movs	r0, #3
 80019ce:	f7fe ffff 	bl	80009d0 <lcd_puts>
		break;
 80019d2:	e0cb      	b.n	8001b6c <update_screen_data+0x2f8>

	case lamp:
		clr_data(lamp);
 80019d4:	2004      	movs	r0, #4
 80019d6:	f7ff f84d 	bl	8000a74 <clr_data>
		clr_select();
 80019da:	f7ff f929 	bl	8000c30 <clr_select>
		lcd_puts(1, 10, (int8_t *)">");
 80019de:	4b6a      	ldr	r3, [pc, #424]	; (8001b88 <update_screen_data+0x314>)
 80019e0:	001a      	movs	r2, r3
 80019e2:	210a      	movs	r1, #10
 80019e4:	2001      	movs	r0, #1
 80019e6:	f7fe fff3 	bl	80009d0 <lcd_puts>
		if (current_pos.key_number == _pos || current_pos.key_number == _neg)
 80019ea:	4b62      	ldr	r3, [pc, #392]	; (8001b74 <update_screen_data+0x300>)
 80019ec:	785b      	ldrb	r3, [r3, #1]
 80019ee:	2207      	movs	r2, #7
 80019f0:	4013      	ands	r3, r2
 80019f2:	b2db      	uxtb	r3, r3
 80019f4:	2b04      	cmp	r3, #4
 80019f6:	d006      	beq.n	8001a06 <update_screen_data+0x192>
 80019f8:	4b5e      	ldr	r3, [pc, #376]	; (8001b74 <update_screen_data+0x300>)
 80019fa:	785b      	ldrb	r3, [r3, #1]
 80019fc:	2207      	movs	r2, #7
 80019fe:	4013      	ands	r3, r2
 8001a00:	b2db      	uxtb	r3, r3
 8001a02:	2b03      	cmp	r3, #3
 8001a04:	d109      	bne.n	8001a1a <update_screen_data+0x1a6>
		{
			send_cmd(data_reg.lamp, lamp);
 8001a06:	4b5d      	ldr	r3, [pc, #372]	; (8001b7c <update_screen_data+0x308>)
 8001a08:	781b      	ldrb	r3, [r3, #0]
 8001a0a:	069b      	lsls	r3, r3, #26
 8001a0c:	0fdb      	lsrs	r3, r3, #31
 8001a0e:	b2db      	uxtb	r3, r3
 8001a10:	b25b      	sxtb	r3, r3
 8001a12:	2104      	movs	r1, #4
 8001a14:	0018      	movs	r0, r3
 8001a16:	f000 f8c5 	bl	8001ba4 <send_cmd>
		}
		if (data_reg.lamp)
 8001a1a:	4b58      	ldr	r3, [pc, #352]	; (8001b7c <update_screen_data+0x308>)
 8001a1c:	781b      	ldrb	r3, [r3, #0]
 8001a1e:	2220      	movs	r2, #32
 8001a20:	4013      	ands	r3, r2
 8001a22:	b2db      	uxtb	r3, r3
 8001a24:	2b00      	cmp	r3, #0
 8001a26:	d006      	beq.n	8001a36 <update_screen_data+0x1c2>
			lcd_puts(1, 17, (int8_t *)"ON");
 8001a28:	4b5c      	ldr	r3, [pc, #368]	; (8001b9c <update_screen_data+0x328>)
 8001a2a:	001a      	movs	r2, r3
 8001a2c:	2111      	movs	r1, #17
 8001a2e:	2001      	movs	r0, #1
 8001a30:	f7fe ffce 	bl	80009d0 <lcd_puts>
		else
			lcd_puts(1, 17, (int8_t *)"OFF");

		break;
 8001a34:	e09a      	b.n	8001b6c <update_screen_data+0x2f8>
			lcd_puts(1, 17, (int8_t *)"OFF");
 8001a36:	4b5a      	ldr	r3, [pc, #360]	; (8001ba0 <update_screen_data+0x32c>)
 8001a38:	001a      	movs	r2, r3
 8001a3a:	2111      	movs	r1, #17
 8001a3c:	2001      	movs	r0, #1
 8001a3e:	f7fe ffc7 	bl	80009d0 <lcd_puts>
		break;
 8001a42:	e093      	b.n	8001b6c <update_screen_data+0x2f8>

	case endo:
		clr_data(endo);
 8001a44:	2005      	movs	r0, #5
 8001a46:	f7ff f815 	bl	8000a74 <clr_data>
		clr_select();
 8001a4a:	f7ff f8f1 	bl	8000c30 <clr_select>
		lcd_puts(2, 10, (int8_t *)">");
 8001a4e:	4b4e      	ldr	r3, [pc, #312]	; (8001b88 <update_screen_data+0x314>)
 8001a50:	001a      	movs	r2, r3
 8001a52:	210a      	movs	r1, #10
 8001a54:	2002      	movs	r0, #2
 8001a56:	f7fe ffbb 	bl	80009d0 <lcd_puts>

		// if (current_pos.key_number == _pos || current_pos.key_number == _neg)
		// {
		// 	send_cmd(data_reg.endo, endo);
		// }
		if (!chk_cmd)
 8001a5a:	4b4c      	ldr	r3, [pc, #304]	; (8001b8c <update_screen_data+0x318>)
 8001a5c:	781b      	ldrb	r3, [r3, #0]
 8001a5e:	2b00      	cmp	r3, #0
 8001a60:	d109      	bne.n	8001a76 <update_screen_data+0x202>
		{
			send_cmd(data_reg.endo, endo);
 8001a62:	4b46      	ldr	r3, [pc, #280]	; (8001b7c <update_screen_data+0x308>)
 8001a64:	781b      	ldrb	r3, [r3, #0]
 8001a66:	065b      	lsls	r3, r3, #25
 8001a68:	0fdb      	lsrs	r3, r3, #31
 8001a6a:	b2db      	uxtb	r3, r3
 8001a6c:	b25b      	sxtb	r3, r3
 8001a6e:	2105      	movs	r1, #5
 8001a70:	0018      	movs	r0, r3
 8001a72:	f000 f897 	bl	8001ba4 <send_cmd>
		}
		if (data_reg.endo)
 8001a76:	4b41      	ldr	r3, [pc, #260]	; (8001b7c <update_screen_data+0x308>)
 8001a78:	781b      	ldrb	r3, [r3, #0]
 8001a7a:	2240      	movs	r2, #64	; 0x40
 8001a7c:	4013      	ands	r3, r2
 8001a7e:	b2db      	uxtb	r3, r3
 8001a80:	2b00      	cmp	r3, #0
 8001a82:	d006      	beq.n	8001a92 <update_screen_data+0x21e>
			lcd_puts(2, 17, (int8_t *)"ON");
 8001a84:	4b45      	ldr	r3, [pc, #276]	; (8001b9c <update_screen_data+0x328>)
 8001a86:	001a      	movs	r2, r3
 8001a88:	2111      	movs	r1, #17
 8001a8a:	2002      	movs	r0, #2
 8001a8c:	f7fe ffa0 	bl	80009d0 <lcd_puts>
		else
			lcd_puts(2, 17, (int8_t *)"OFF");

		break;
 8001a90:	e06c      	b.n	8001b6c <update_screen_data+0x2f8>
			lcd_puts(2, 17, (int8_t *)"OFF");
 8001a92:	4b43      	ldr	r3, [pc, #268]	; (8001ba0 <update_screen_data+0x32c>)
 8001a94:	001a      	movs	r2, r3
 8001a96:	2111      	movs	r1, #17
 8001a98:	2002      	movs	r0, #2
 8001a9a:	f7fe ff99 	bl	80009d0 <lcd_puts>
		break;
 8001a9e:	e065      	b.n	8001b6c <update_screen_data+0x2f8>

	case depth:
		clr_data(depth);
 8001aa0:	2006      	movs	r0, #6
 8001aa2:	f7fe ffe7 	bl	8000a74 <clr_data>
		clr_select();
 8001aa6:	f7ff f8c3 	bl	8000c30 <clr_select>
		lcd_puts(3, 10, (int8_t *)">");
 8001aaa:	4b37      	ldr	r3, [pc, #220]	; (8001b88 <update_screen_data+0x314>)
 8001aac:	001a      	movs	r2, r3
 8001aae:	210a      	movs	r1, #10
 8001ab0:	2003      	movs	r0, #3
 8001ab2:	f7fe ff8d 	bl	80009d0 <lcd_puts>
		if (current_pos.key_number == _pos || current_pos.key_number == _neg)
 8001ab6:	4b2f      	ldr	r3, [pc, #188]	; (8001b74 <update_screen_data+0x300>)
 8001ab8:	785b      	ldrb	r3, [r3, #1]
 8001aba:	2207      	movs	r2, #7
 8001abc:	4013      	ands	r3, r2
 8001abe:	b2db      	uxtb	r3, r3
 8001ac0:	2b04      	cmp	r3, #4
 8001ac2:	d006      	beq.n	8001ad2 <update_screen_data+0x25e>
 8001ac4:	4b2b      	ldr	r3, [pc, #172]	; (8001b74 <update_screen_data+0x300>)
 8001ac6:	785b      	ldrb	r3, [r3, #1]
 8001ac8:	2207      	movs	r2, #7
 8001aca:	4013      	ands	r3, r2
 8001acc:	b2db      	uxtb	r3, r3
 8001ace:	2b03      	cmp	r3, #3
 8001ad0:	d10c      	bne.n	8001aec <update_screen_data+0x278>
		{
			send_cmd(data_reg.depth, depth);
 8001ad2:	4b2a      	ldr	r3, [pc, #168]	; (8001b7c <update_screen_data+0x308>)
 8001ad4:	781b      	ldrb	r3, [r3, #0]
 8001ad6:	061b      	lsls	r3, r3, #24
 8001ad8:	0fdb      	lsrs	r3, r3, #31
 8001ada:	b2db      	uxtb	r3, r3
 8001adc:	b25b      	sxtb	r3, r3
 8001ade:	2106      	movs	r1, #6
 8001ae0:	0018      	movs	r0, r3
 8001ae2:	f000 f85f 	bl	8001ba4 <send_cmd>
			HAL_Delay(200);
 8001ae6:	20c8      	movs	r0, #200	; 0xc8
 8001ae8:	f001 f9be 	bl	8002e68 <HAL_Delay>
		}
		if (data_reg.depth)
 8001aec:	4b23      	ldr	r3, [pc, #140]	; (8001b7c <update_screen_data+0x308>)
 8001aee:	781b      	ldrb	r3, [r3, #0]
 8001af0:	227f      	movs	r2, #127	; 0x7f
 8001af2:	4393      	bics	r3, r2
 8001af4:	b2db      	uxtb	r3, r3
 8001af6:	2b00      	cmp	r3, #0
 8001af8:	d006      	beq.n	8001b08 <update_screen_data+0x294>
		{
			// lcd_puts(1, 7, (int8_t *)"MAX");
			lcd_puts(3, 17, (int8_t *)"ON");
 8001afa:	4b28      	ldr	r3, [pc, #160]	; (8001b9c <update_screen_data+0x328>)
 8001afc:	001a      	movs	r2, r3
 8001afe:	2111      	movs	r1, #17
 8001b00:	2003      	movs	r0, #3
 8001b02:	f7fe ff65 	bl	80009d0 <lcd_puts>
			// if cw

			// if ww
		}

		break;
 8001b06:	e031      	b.n	8001b6c <update_screen_data+0x2f8>
			lcd_puts(3, 17, (int8_t *)"OFF");
 8001b08:	4b25      	ldr	r3, [pc, #148]	; (8001ba0 <update_screen_data+0x32c>)
 8001b0a:	001a      	movs	r2, r3
 8001b0c:	2111      	movs	r1, #17
 8001b0e:	2003      	movs	r0, #3
 8001b10:	f7fe ff5e 	bl	80009d0 <lcd_puts>
			if (data_reg.color == 1)
 8001b14:	4b19      	ldr	r3, [pc, #100]	; (8001b7c <update_screen_data+0x308>)
 8001b16:	785b      	ldrb	r3, [r3, #1]
 8001b18:	b25b      	sxtb	r3, r3
 8001b1a:	2b01      	cmp	r3, #1
 8001b1c:	d104      	bne.n	8001b28 <update_screen_data+0x2b4>
				send_cmd(5, color);
 8001b1e:	2102      	movs	r1, #2
 8001b20:	2005      	movs	r0, #5
 8001b22:	f000 f83f 	bl	8001ba4 <send_cmd>
		break;
 8001b26:	e021      	b.n	8001b6c <update_screen_data+0x2f8>
			else if (data_reg.color == -1)
 8001b28:	4b14      	ldr	r3, [pc, #80]	; (8001b7c <update_screen_data+0x308>)
 8001b2a:	785b      	ldrb	r3, [r3, #1]
 8001b2c:	b25b      	sxtb	r3, r3
 8001b2e:	3301      	adds	r3, #1
 8001b30:	d106      	bne.n	8001b40 <update_screen_data+0x2cc>
				send_cmd(-5, color);
 8001b32:	2305      	movs	r3, #5
 8001b34:	425b      	negs	r3, r3
 8001b36:	2102      	movs	r1, #2
 8001b38:	0018      	movs	r0, r3
 8001b3a:	f000 f833 	bl	8001ba4 <send_cmd>
		break;
 8001b3e:	e015      	b.n	8001b6c <update_screen_data+0x2f8>
				clr_data(intensity);
 8001b40:	2001      	movs	r0, #1
 8001b42:	f7fe ff97 	bl	8000a74 <clr_data>
				sprintf(buffer, "%02d", data_reg.intensity);
 8001b46:	4b0d      	ldr	r3, [pc, #52]	; (8001b7c <update_screen_data+0x308>)
 8001b48:	781b      	ldrb	r3, [r3, #0]
 8001b4a:	071b      	lsls	r3, r3, #28
 8001b4c:	0f1b      	lsrs	r3, r3, #28
 8001b4e:	b2db      	uxtb	r3, r3
 8001b50:	001a      	movs	r2, r3
 8001b52:	490c      	ldr	r1, [pc, #48]	; (8001b84 <update_screen_data+0x310>)
 8001b54:	1d3b      	adds	r3, r7, #4
 8001b56:	0018      	movs	r0, r3
 8001b58:	f003 ff04 	bl	8005964 <siprintf>
				lcd_puts(1, 7, (int8_t *)buffer);
 8001b5c:	1d3b      	adds	r3, r7, #4
 8001b5e:	001a      	movs	r2, r3
 8001b60:	2107      	movs	r1, #7
 8001b62:	2001      	movs	r0, #1
 8001b64:	f7fe ff34 	bl	80009d0 <lcd_puts>
		break;
 8001b68:	e000      	b.n	8001b6c <update_screen_data+0x2f8>
		break;
 8001b6a:	46c0      	nop			; (mov r8, r8)
	}
}
 8001b6c:	46c0      	nop			; (mov r8, r8)
 8001b6e:	46bd      	mov	sp, r7
 8001b70:	b002      	add	sp, #8
 8001b72:	bd80      	pop	{r7, pc}
 8001b74:	20000004 	.word	0x20000004
 8001b78:	080064b8 	.word	0x080064b8
 8001b7c:	20000008 	.word	0x20000008
 8001b80:	2000009c 	.word	0x2000009c
 8001b84:	08006384 	.word	0x08006384
 8001b88:	08006394 	.word	0x08006394
 8001b8c:	20000221 	.word	0x20000221
 8001b90:	080063e4 	.word	0x080063e4
 8001b94:	080063e8 	.word	0x080063e8
 8001b98:	080063ec 	.word	0x080063ec
 8001b9c:	0800638c 	.word	0x0800638c
 8001ba0:	08006390 	.word	0x08006390

08001ba4 <send_cmd>:

void send_cmd(int8_t x, int8_t mode)
{
 8001ba4:	b580      	push	{r7, lr}
 8001ba6:	b084      	sub	sp, #16
 8001ba8:	af00      	add	r7, sp, #0
 8001baa:	0002      	movs	r2, r0
 8001bac:	1dfb      	adds	r3, r7, #7
 8001bae:	701a      	strb	r2, [r3, #0]
 8001bb0:	1dbb      	adds	r3, r7, #6
 8001bb2:	1c0a      	adds	r2, r1, #0
 8001bb4:	701a      	strb	r2, [r3, #0]
	uint8_t data[5];
	data[0] = '@';
 8001bb6:	2108      	movs	r1, #8
 8001bb8:	187b      	adds	r3, r7, r1
 8001bba:	2240      	movs	r2, #64	; 0x40
 8001bbc:	701a      	strb	r2, [r3, #0]
	data[4] = '#';
 8001bbe:	187b      	adds	r3, r7, r1
 8001bc0:	2223      	movs	r2, #35	; 0x23
 8001bc2:	711a      	strb	r2, [r3, #4]
	switch (mode)
 8001bc4:	1dbb      	adds	r3, r7, #6
 8001bc6:	781b      	ldrb	r3, [r3, #0]
 8001bc8:	b25b      	sxtb	r3, r3
 8001bca:	2b0b      	cmp	r3, #11
 8001bcc:	d900      	bls.n	8001bd0 <send_cmd+0x2c>
 8001bce:	e13e      	b.n	8001e4e <send_cmd+0x2aa>
 8001bd0:	009a      	lsls	r2, r3, #2
 8001bd2:	4ba1      	ldr	r3, [pc, #644]	; (8001e58 <send_cmd+0x2b4>)
 8001bd4:	18d3      	adds	r3, r2, r3
 8001bd6:	681b      	ldr	r3, [r3, #0]
 8001bd8:	469f      	mov	pc, r3
	{
	case intensity:
		data[1] = 'I';
 8001bda:	2108      	movs	r1, #8
 8001bdc:	187b      	adds	r3, r7, r1
 8001bde:	2249      	movs	r2, #73	; 0x49
 8001be0:	705a      	strb	r2, [r3, #1]
		data[2] = '0';
 8001be2:	187b      	adds	r3, r7, r1
 8001be4:	2230      	movs	r2, #48	; 0x30
 8001be6:	709a      	strb	r2, [r3, #2]
		if (x == 10)
 8001be8:	1dfb      	adds	r3, r7, #7
 8001bea:	781b      	ldrb	r3, [r3, #0]
 8001bec:	b25b      	sxtb	r3, r3
 8001bee:	2b0a      	cmp	r3, #10
 8001bf0:	d109      	bne.n	8001c06 <send_cmd+0x62>
		{
			data[3] = ':'; //@I0:#
 8001bf2:	187b      	adds	r3, r7, r1
 8001bf4:	223a      	movs	r2, #58	; 0x3a
 8001bf6:	70da      	strb	r2, [r3, #3]
			HAL_UART_Transmit(&huart1, &data[0], 5, 100);
 8001bf8:	1879      	adds	r1, r7, r1
 8001bfa:	4898      	ldr	r0, [pc, #608]	; (8001e5c <send_cmd+0x2b8>)
 8001bfc:	2364      	movs	r3, #100	; 0x64
 8001bfe:	2205      	movs	r2, #5
 8001c00:	f003 fa36 	bl	8005070 <HAL_UART_Transmit>
		else
		{
			data[3] = 48 + x;
			HAL_UART_Transmit(&huart1, &data[0], 5, 100);
		}
		break;
 8001c04:	e123      	b.n	8001e4e <send_cmd+0x2aa>
			data[3] = 48 + x;
 8001c06:	1dfb      	adds	r3, r7, #7
 8001c08:	781b      	ldrb	r3, [r3, #0]
 8001c0a:	3330      	adds	r3, #48	; 0x30
 8001c0c:	b2da      	uxtb	r2, r3
 8001c0e:	2108      	movs	r1, #8
 8001c10:	187b      	adds	r3, r7, r1
 8001c12:	70da      	strb	r2, [r3, #3]
			HAL_UART_Transmit(&huart1, &data[0], 5, 100);
 8001c14:	1879      	adds	r1, r7, r1
 8001c16:	4891      	ldr	r0, [pc, #580]	; (8001e5c <send_cmd+0x2b8>)
 8001c18:	2364      	movs	r3, #100	; 0x64
 8001c1a:	2205      	movs	r2, #5
 8001c1c:	f003 fa28 	bl	8005070 <HAL_UART_Transmit>
		break;
 8001c20:	e115      	b.n	8001e4e <send_cmd+0x2aa>
	case color:
		if (x > 0)
 8001c22:	1dfb      	adds	r3, r7, #7
 8001c24:	781b      	ldrb	r3, [r3, #0]
 8001c26:	b25b      	sxtb	r3, r3
 8001c28:	2b00      	cmp	r3, #0
 8001c2a:	dd0d      	ble.n	8001c48 <send_cmd+0xa4>
		{
			data[1] = 'C'; //@c-0#
 8001c2c:	2108      	movs	r1, #8
 8001c2e:	187b      	adds	r3, r7, r1
 8001c30:	2243      	movs	r2, #67	; 0x43
 8001c32:	705a      	strb	r2, [r3, #1]
			data[2] = '+';
 8001c34:	187b      	adds	r3, r7, r1
 8001c36:	222b      	movs	r2, #43	; 0x2b
 8001c38:	709a      	strb	r2, [r3, #2]
			data[3] = 48 + x;
 8001c3a:	1dfb      	adds	r3, r7, #7
 8001c3c:	781b      	ldrb	r3, [r3, #0]
 8001c3e:	3330      	adds	r3, #48	; 0x30
 8001c40:	b2da      	uxtb	r2, r3
 8001c42:	187b      	adds	r3, r7, r1
 8001c44:	70da      	strb	r2, [r3, #3]
 8001c46:	e01c      	b.n	8001c82 <send_cmd+0xde>
		}
		else if (x < 0)
 8001c48:	1dfb      	adds	r3, r7, #7
 8001c4a:	781b      	ldrb	r3, [r3, #0]
 8001c4c:	2b7f      	cmp	r3, #127	; 0x7f
 8001c4e:	d90e      	bls.n	8001c6e <send_cmd+0xca>
		{
			data[1] = 'C';
 8001c50:	2108      	movs	r1, #8
 8001c52:	187b      	adds	r3, r7, r1
 8001c54:	2243      	movs	r2, #67	; 0x43
 8001c56:	705a      	strb	r2, [r3, #1]
			data[2] = '-';
 8001c58:	187b      	adds	r3, r7, r1
 8001c5a:	222d      	movs	r2, #45	; 0x2d
 8001c5c:	709a      	strb	r2, [r3, #2]
			data[3] = (48 + (x) * (-1));
 8001c5e:	1dfb      	adds	r3, r7, #7
 8001c60:	781b      	ldrb	r3, [r3, #0]
 8001c62:	2230      	movs	r2, #48	; 0x30
 8001c64:	1ad3      	subs	r3, r2, r3
 8001c66:	b2da      	uxtb	r2, r3
 8001c68:	187b      	adds	r3, r7, r1
 8001c6a:	70da      	strb	r2, [r3, #3]
 8001c6c:	e009      	b.n	8001c82 <send_cmd+0xde>
		}
		else
		{
			data[1] = 'C';
 8001c6e:	2108      	movs	r1, #8
 8001c70:	187b      	adds	r3, r7, r1
 8001c72:	2243      	movs	r2, #67	; 0x43
 8001c74:	705a      	strb	r2, [r3, #1]
			data[2] = '-'; //@c-0#
 8001c76:	187b      	adds	r3, r7, r1
 8001c78:	222d      	movs	r2, #45	; 0x2d
 8001c7a:	709a      	strb	r2, [r3, #2]
			data[3] = '0';
 8001c7c:	187b      	adds	r3, r7, r1
 8001c7e:	2230      	movs	r2, #48	; 0x30
 8001c80:	70da      	strb	r2, [r3, #3]
		}
		HAL_UART_Transmit(&huart1, &data[0], 5, 100);
 8001c82:	2308      	movs	r3, #8
 8001c84:	18f9      	adds	r1, r7, r3
 8001c86:	4875      	ldr	r0, [pc, #468]	; (8001e5c <send_cmd+0x2b8>)
 8001c88:	2364      	movs	r3, #100	; 0x64
 8001c8a:	2205      	movs	r2, #5
 8001c8c:	f003 f9f0 	bl	8005070 <HAL_UART_Transmit>
		break;
 8001c90:	e0dd      	b.n	8001e4e <send_cmd+0x2aa>
		// data[1] = 'I';data[2] = '0';data[3] = 48+x;
		// HAL_UART_Transmit(&huart1, &data[0], 5, 100);
		break;

	case lamp:
		data[1] = 'L'; //@L_1#
 8001c92:	2108      	movs	r1, #8
 8001c94:	187b      	adds	r3, r7, r1
 8001c96:	224c      	movs	r2, #76	; 0x4c
 8001c98:	705a      	strb	r2, [r3, #1]
		data[2] = '_';
 8001c9a:	187b      	adds	r3, r7, r1
 8001c9c:	225f      	movs	r2, #95	; 0x5f
 8001c9e:	709a      	strb	r2, [r3, #2]
		data[3] = 48 + x;
 8001ca0:	1dfb      	adds	r3, r7, #7
 8001ca2:	781b      	ldrb	r3, [r3, #0]
 8001ca4:	3330      	adds	r3, #48	; 0x30
 8001ca6:	b2da      	uxtb	r2, r3
 8001ca8:	187b      	adds	r3, r7, r1
 8001caa:	70da      	strb	r2, [r3, #3]
		HAL_UART_Transmit(&huart1, &data[0], 5, 100);
 8001cac:	1879      	adds	r1, r7, r1
 8001cae:	486b      	ldr	r0, [pc, #428]	; (8001e5c <send_cmd+0x2b8>)
 8001cb0:	2364      	movs	r3, #100	; 0x64
 8001cb2:	2205      	movs	r2, #5
 8001cb4:	f003 f9dc 	bl	8005070 <HAL_UART_Transmit>
		break;
 8001cb8:	e0c9      	b.n	8001e4e <send_cmd+0x2aa>
	case endo:
		data[1] = 'E';
 8001cba:	2108      	movs	r1, #8
 8001cbc:	187b      	adds	r3, r7, r1
 8001cbe:	2245      	movs	r2, #69	; 0x45
 8001cc0:	705a      	strb	r2, [r3, #1]
		data[2] = '_';
 8001cc2:	187b      	adds	r3, r7, r1
 8001cc4:	225f      	movs	r2, #95	; 0x5f
 8001cc6:	709a      	strb	r2, [r3, #2]
		data[3] = 48 + x;
 8001cc8:	1dfb      	adds	r3, r7, #7
 8001cca:	781b      	ldrb	r3, [r3, #0]
 8001ccc:	3330      	adds	r3, #48	; 0x30
 8001cce:	b2da      	uxtb	r2, r3
 8001cd0:	187b      	adds	r3, r7, r1
 8001cd2:	70da      	strb	r2, [r3, #3]
		HAL_UART_Transmit(&huart1, &data[0], 5, 100);
 8001cd4:	1879      	adds	r1, r7, r1
 8001cd6:	4861      	ldr	r0, [pc, #388]	; (8001e5c <send_cmd+0x2b8>)
 8001cd8:	2364      	movs	r3, #100	; 0x64
 8001cda:	2205      	movs	r2, #5
 8001cdc:	f003 f9c8 	bl	8005070 <HAL_UART_Transmit>
		break;
 8001ce0:	e0b5      	b.n	8001e4e <send_cmd+0x2aa>
	case depth:
		data[1] = 'D';
 8001ce2:	2108      	movs	r1, #8
 8001ce4:	187b      	adds	r3, r7, r1
 8001ce6:	2244      	movs	r2, #68	; 0x44
 8001ce8:	705a      	strb	r2, [r3, #1]
		data[2] = '_';
 8001cea:	187b      	adds	r3, r7, r1
 8001cec:	225f      	movs	r2, #95	; 0x5f
 8001cee:	709a      	strb	r2, [r3, #2]
		data[3] = 48 + x;
 8001cf0:	1dfb      	adds	r3, r7, #7
 8001cf2:	781b      	ldrb	r3, [r3, #0]
 8001cf4:	3330      	adds	r3, #48	; 0x30
 8001cf6:	b2da      	uxtb	r2, r3
 8001cf8:	187b      	adds	r3, r7, r1
 8001cfa:	70da      	strb	r2, [r3, #3]
		HAL_UART_Transmit(&huart1, &data[0], 5, 100);
 8001cfc:	1879      	adds	r1, r7, r1
 8001cfe:	4857      	ldr	r0, [pc, #348]	; (8001e5c <send_cmd+0x2b8>)
 8001d00:	2364      	movs	r3, #100	; 0x64
 8001d02:	2205      	movs	r2, #5
 8001d04:	f003 f9b4 	bl	8005070 <HAL_UART_Transmit>





		break;
 8001d08:	e0a1      	b.n	8001e4e <send_cmd+0x2aa>
	case 8:

		if (x == 1)
 8001d0a:	1dfb      	adds	r3, r7, #7
 8001d0c:	781b      	ldrb	r3, [r3, #0]
 8001d0e:	b25b      	sxtb	r3, r3
 8001d10:	2b01      	cmp	r3, #1
 8001d12:	d10a      	bne.n	8001d2a <send_cmd+0x186>
		{
			data[1] = 'F';
 8001d14:	2108      	movs	r1, #8
 8001d16:	187b      	adds	r3, r7, r1
 8001d18:	2246      	movs	r2, #70	; 0x46
 8001d1a:	705a      	strb	r2, [r3, #1]
			data[2] = '_';
 8001d1c:	187b      	adds	r3, r7, r1
 8001d1e:	225f      	movs	r2, #95	; 0x5f
 8001d20:	709a      	strb	r2, [r3, #2]
			data[3] = 48 + 1;
 8001d22:	187b      	adds	r3, r7, r1
 8001d24:	2231      	movs	r2, #49	; 0x31
 8001d26:	70da      	strb	r2, [r3, #3]
 8001d28:	e00e      	b.n	8001d48 <send_cmd+0x1a4>
		}
		else if (x == 0)
 8001d2a:	1dfb      	adds	r3, r7, #7
 8001d2c:	781b      	ldrb	r3, [r3, #0]
 8001d2e:	b25b      	sxtb	r3, r3
 8001d30:	2b00      	cmp	r3, #0
 8001d32:	d109      	bne.n	8001d48 <send_cmd+0x1a4>
		{
			data[1] = 'R';
 8001d34:	2108      	movs	r1, #8
 8001d36:	187b      	adds	r3, r7, r1
 8001d38:	2252      	movs	r2, #82	; 0x52
 8001d3a:	705a      	strb	r2, [r3, #1]
			data[2] = 'E';
 8001d3c:	187b      	adds	r3, r7, r1
 8001d3e:	2245      	movs	r2, #69	; 0x45
 8001d40:	709a      	strb	r2, [r3, #2]
			data[3] = 'S';
 8001d42:	187b      	adds	r3, r7, r1
 8001d44:	2253      	movs	r2, #83	; 0x53
 8001d46:	70da      	strb	r2, [r3, #3]
		}

		HAL_UART_Transmit(&huart1, &data[0], 5, 100);
 8001d48:	2308      	movs	r3, #8
 8001d4a:	18f9      	adds	r1, r7, r3
 8001d4c:	4843      	ldr	r0, [pc, #268]	; (8001e5c <send_cmd+0x2b8>)
 8001d4e:	2364      	movs	r3, #100	; 0x64
 8001d50:	2205      	movs	r2, #5
 8001d52:	f003 f98d 	bl	8005070 <HAL_UART_Transmit>
		break;
 8001d56:	e07a      	b.n	8001e4e <send_cmd+0x2aa>
	case 9:
		if (x == 1)
 8001d58:	1dfb      	adds	r3, r7, #7
 8001d5a:	781b      	ldrb	r3, [r3, #0]
 8001d5c:	b25b      	sxtb	r3, r3
 8001d5e:	2b01      	cmp	r3, #1
 8001d60:	d10a      	bne.n	8001d78 <send_cmd+0x1d4>
		{
			data[1] = 'F';
 8001d62:	2108      	movs	r1, #8
 8001d64:	187b      	adds	r3, r7, r1
 8001d66:	2246      	movs	r2, #70	; 0x46
 8001d68:	705a      	strb	r2, [r3, #1]
			data[2] = '_';
 8001d6a:	187b      	adds	r3, r7, r1
 8001d6c:	225f      	movs	r2, #95	; 0x5f
 8001d6e:	709a      	strb	r2, [r3, #2]
			data[3] = 48 + 2;
 8001d70:	187b      	adds	r3, r7, r1
 8001d72:	2232      	movs	r2, #50	; 0x32
 8001d74:	70da      	strb	r2, [r3, #3]
 8001d76:	e00e      	b.n	8001d96 <send_cmd+0x1f2>
		}
		else if (x == 0)
 8001d78:	1dfb      	adds	r3, r7, #7
 8001d7a:	781b      	ldrb	r3, [r3, #0]
 8001d7c:	b25b      	sxtb	r3, r3
 8001d7e:	2b00      	cmp	r3, #0
 8001d80:	d109      	bne.n	8001d96 <send_cmd+0x1f2>
		{
			data[1] = 'R';
 8001d82:	2108      	movs	r1, #8
 8001d84:	187b      	adds	r3, r7, r1
 8001d86:	2252      	movs	r2, #82	; 0x52
 8001d88:	705a      	strb	r2, [r3, #1]
			data[2] = 'E';
 8001d8a:	187b      	adds	r3, r7, r1
 8001d8c:	2245      	movs	r2, #69	; 0x45
 8001d8e:	709a      	strb	r2, [r3, #2]
			data[3] = 'S';
 8001d90:	187b      	adds	r3, r7, r1
 8001d92:	2253      	movs	r2, #83	; 0x53
 8001d94:	70da      	strb	r2, [r3, #3]
		}
		HAL_UART_Transmit(&huart1, &data[0], 5, 100);
 8001d96:	2308      	movs	r3, #8
 8001d98:	18f9      	adds	r1, r7, r3
 8001d9a:	4830      	ldr	r0, [pc, #192]	; (8001e5c <send_cmd+0x2b8>)
 8001d9c:	2364      	movs	r3, #100	; 0x64
 8001d9e:	2205      	movs	r2, #5
 8001da0:	f003 f966 	bl	8005070 <HAL_UART_Transmit>
		break;
 8001da4:	e053      	b.n	8001e4e <send_cmd+0x2aa>
	case 10:
		if (x == 1)
 8001da6:	1dfb      	adds	r3, r7, #7
 8001da8:	781b      	ldrb	r3, [r3, #0]
 8001daa:	b25b      	sxtb	r3, r3
 8001dac:	2b01      	cmp	r3, #1
 8001dae:	d10a      	bne.n	8001dc6 <send_cmd+0x222>
		{
			data[1] = 'F';
 8001db0:	2108      	movs	r1, #8
 8001db2:	187b      	adds	r3, r7, r1
 8001db4:	2246      	movs	r2, #70	; 0x46
 8001db6:	705a      	strb	r2, [r3, #1]
			data[2] = '_';
 8001db8:	187b      	adds	r3, r7, r1
 8001dba:	225f      	movs	r2, #95	; 0x5f
 8001dbc:	709a      	strb	r2, [r3, #2]
			data[3] = 48 + 3;
 8001dbe:	187b      	adds	r3, r7, r1
 8001dc0:	2233      	movs	r2, #51	; 0x33
 8001dc2:	70da      	strb	r2, [r3, #3]
 8001dc4:	e00e      	b.n	8001de4 <send_cmd+0x240>
		}
		else if (x == 0)
 8001dc6:	1dfb      	adds	r3, r7, #7
 8001dc8:	781b      	ldrb	r3, [r3, #0]
 8001dca:	b25b      	sxtb	r3, r3
 8001dcc:	2b00      	cmp	r3, #0
 8001dce:	d109      	bne.n	8001de4 <send_cmd+0x240>
		{
			data[1] = 'R';
 8001dd0:	2108      	movs	r1, #8
 8001dd2:	187b      	adds	r3, r7, r1
 8001dd4:	2252      	movs	r2, #82	; 0x52
 8001dd6:	705a      	strb	r2, [r3, #1]
			data[2] = 'E';
 8001dd8:	187b      	adds	r3, r7, r1
 8001dda:	2245      	movs	r2, #69	; 0x45
 8001ddc:	709a      	strb	r2, [r3, #2]
			data[3] = 'S';
 8001dde:	187b      	adds	r3, r7, r1
 8001de0:	2253      	movs	r2, #83	; 0x53
 8001de2:	70da      	strb	r2, [r3, #3]
		}
		HAL_UART_Transmit(&huart1, &data[0], 5, 100);
 8001de4:	2308      	movs	r3, #8
 8001de6:	18f9      	adds	r1, r7, r3
 8001de8:	481c      	ldr	r0, [pc, #112]	; (8001e5c <send_cmd+0x2b8>)
 8001dea:	2364      	movs	r3, #100	; 0x64
 8001dec:	2205      	movs	r2, #5
 8001dee:	f003 f93f 	bl	8005070 <HAL_UART_Transmit>
		break;
 8001df2:	e02c      	b.n	8001e4e <send_cmd+0x2aa>
	case 11:
		if (x == 0)
 8001df4:	1dfb      	adds	r3, r7, #7
 8001df6:	781b      	ldrb	r3, [r3, #0]
 8001df8:	b25b      	sxtb	r3, r3
 8001dfa:	2b00      	cmp	r3, #0
 8001dfc:	d10a      	bne.n	8001e14 <send_cmd+0x270>
		{
			data[1] = 'F';
 8001dfe:	2108      	movs	r1, #8
 8001e00:	187b      	adds	r3, r7, r1
 8001e02:	2246      	movs	r2, #70	; 0x46
 8001e04:	705a      	strb	r2, [r3, #1]
			data[2] = '_';
 8001e06:	187b      	adds	r3, r7, r1
 8001e08:	225f      	movs	r2, #95	; 0x5f
 8001e0a:	709a      	strb	r2, [r3, #2]
			data[3] = 48 + 5;
 8001e0c:	187b      	adds	r3, r7, r1
 8001e0e:	2235      	movs	r2, #53	; 0x35
 8001e10:	70da      	strb	r2, [r3, #3]
 8001e12:	e013      	b.n	8001e3c <send_cmd+0x298>
		}
		else if (x == 1)
 8001e14:	1dfb      	adds	r3, r7, #7
 8001e16:	781b      	ldrb	r3, [r3, #0]
 8001e18:	b25b      	sxtb	r3, r3
 8001e1a:	2b01      	cmp	r3, #1
 8001e1c:	d10e      	bne.n	8001e3c <send_cmd+0x298>
		{
			data[1] = 'I';
 8001e1e:	2108      	movs	r1, #8
 8001e20:	187b      	adds	r3, r7, r1
 8001e22:	2249      	movs	r2, #73	; 0x49
 8001e24:	705a      	strb	r2, [r3, #1]
			data[2] = '_';
 8001e26:	187b      	adds	r3, r7, r1
 8001e28:	225f      	movs	r2, #95	; 0x5f
 8001e2a:	709a      	strb	r2, [r3, #2]
			data[3] = 48 + last_focus;
 8001e2c:	4b0c      	ldr	r3, [pc, #48]	; (8001e60 <send_cmd+0x2bc>)
 8001e2e:	781b      	ldrb	r3, [r3, #0]
 8001e30:	b25b      	sxtb	r3, r3
 8001e32:	b2db      	uxtb	r3, r3
 8001e34:	3330      	adds	r3, #48	; 0x30
 8001e36:	b2da      	uxtb	r2, r3
 8001e38:	187b      	adds	r3, r7, r1
 8001e3a:	70da      	strb	r2, [r3, #3]
		}
		//		data[1] = 'F';
		//		data[2] = '_';
		//		data[3] = 48 + 4;
		HAL_UART_Transmit(&huart1, &data[0], 5, 100);
 8001e3c:	2308      	movs	r3, #8
 8001e3e:	18f9      	adds	r1, r7, r3
 8001e40:	4806      	ldr	r0, [pc, #24]	; (8001e5c <send_cmd+0x2b8>)
 8001e42:	2364      	movs	r3, #100	; 0x64
 8001e44:	2205      	movs	r2, #5
 8001e46:	f003 f913 	bl	8005070 <HAL_UART_Transmit>
		break;
 8001e4a:	e000      	b.n	8001e4e <send_cmd+0x2aa>
		break;
 8001e4c:	46c0      	nop			; (mov r8, r8)
	}
}
 8001e4e:	46c0      	nop			; (mov r8, r8)
 8001e50:	46bd      	mov	sp, r7
 8001e52:	b004      	add	sp, #16
 8001e54:	bd80      	pop	{r7, pc}
 8001e56:	46c0      	nop			; (mov r8, r8)
 8001e58:	080064d4 	.word	0x080064d4
 8001e5c:	20000198 	.word	0x20000198
 8001e60:	200000b1 	.word	0x200000b1

08001e64 <page1_print>:

void page1_print(void)
{
 8001e64:	b580      	push	{r7, lr}
 8001e66:	b082      	sub	sp, #8
 8001e68:	af00      	add	r7, sp, #0
	char buffer[3];
	lcd_puts(0, 0, (int8_t *)"______ COGNATE _____");
 8001e6a:	4b5f      	ldr	r3, [pc, #380]	; (8001fe8 <page1_print+0x184>)
 8001e6c:	001a      	movs	r2, r3
 8001e6e:	2100      	movs	r1, #0
 8001e70:	2000      	movs	r0, #0
 8001e72:	f7fe fdad 	bl	80009d0 <lcd_puts>
	lcd_puts(1, 1, (int8_t *)"INTEN");
 8001e76:	4b5d      	ldr	r3, [pc, #372]	; (8001fec <page1_print+0x188>)
 8001e78:	001a      	movs	r2, r3
 8001e7a:	2101      	movs	r1, #1
 8001e7c:	2001      	movs	r0, #1
 8001e7e:	f7fe fda7 	bl	80009d0 <lcd_puts>
	lcd_puts(2, 1, (int8_t *)"COLOR");
 8001e82:	4b5b      	ldr	r3, [pc, #364]	; (8001ff0 <page1_print+0x18c>)
 8001e84:	001a      	movs	r2, r3
 8001e86:	2101      	movs	r1, #1
 8001e88:	2002      	movs	r0, #2
 8001e8a:	f7fe fda1 	bl	80009d0 <lcd_puts>
	lcd_puts(3, 1, (int8_t *)"SENSR");
 8001e8e:	4b59      	ldr	r3, [pc, #356]	; (8001ff4 <page1_print+0x190>)
 8001e90:	001a      	movs	r2, r3
 8001e92:	2101      	movs	r1, #1
 8001e94:	2003      	movs	r0, #3
 8001e96:	f7fe fd9b 	bl	80009d0 <lcd_puts>
	lcd_puts(1, 11, (int8_t *)"LAMP");
 8001e9a:	4b57      	ldr	r3, [pc, #348]	; (8001ff8 <page1_print+0x194>)
 8001e9c:	001a      	movs	r2, r3
 8001e9e:	210b      	movs	r1, #11
 8001ea0:	2001      	movs	r0, #1
 8001ea2:	f7fe fd95 	bl	80009d0 <lcd_puts>
	lcd_puts(2, 11, (int8_t *)"ENDO");
 8001ea6:	4b55      	ldr	r3, [pc, #340]	; (8001ffc <page1_print+0x198>)
 8001ea8:	001a      	movs	r2, r3
 8001eaa:	210b      	movs	r1, #11
 8001eac:	2002      	movs	r0, #2
 8001eae:	f7fe fd8f 	bl	80009d0 <lcd_puts>
	lcd_puts(3, 11, (int8_t *)"DEPTH");
 8001eb2:	4b53      	ldr	r3, [pc, #332]	; (8002000 <page1_print+0x19c>)
 8001eb4:	001a      	movs	r2, r3
 8001eb6:	210b      	movs	r1, #11
 8001eb8:	2003      	movs	r0, #3
 8001eba:	f7fe fd89 	bl	80009d0 <lcd_puts>

	//	lcd_puts(1, 0, (int8_t *)">");

	sprintf(buffer, "%02d", data_reg.intensity);
 8001ebe:	4b51      	ldr	r3, [pc, #324]	; (8002004 <page1_print+0x1a0>)
 8001ec0:	781b      	ldrb	r3, [r3, #0]
 8001ec2:	071b      	lsls	r3, r3, #28
 8001ec4:	0f1b      	lsrs	r3, r3, #28
 8001ec6:	b2db      	uxtb	r3, r3
 8001ec8:	001a      	movs	r2, r3
 8001eca:	494f      	ldr	r1, [pc, #316]	; (8002008 <page1_print+0x1a4>)
 8001ecc:	1d3b      	adds	r3, r7, #4
 8001ece:	0018      	movs	r0, r3
 8001ed0:	f003 fd48 	bl	8005964 <siprintf>
	lcd_puts(1, 7, (int8_t *)buffer);
 8001ed4:	1d3b      	adds	r3, r7, #4
 8001ed6:	001a      	movs	r2, r3
 8001ed8:	2107      	movs	r1, #7
 8001eda:	2001      	movs	r0, #1
 8001edc:	f7fe fd78 	bl	80009d0 <lcd_puts>

//	sprintf(buffer, "%02d", data_reg.color);
	if (data_reg.color == 1)
 8001ee0:	4b48      	ldr	r3, [pc, #288]	; (8002004 <page1_print+0x1a0>)
 8001ee2:	785b      	ldrb	r3, [r3, #1]
 8001ee4:	b25b      	sxtb	r3, r3
 8001ee6:	2b01      	cmp	r3, #1
 8001ee8:	d106      	bne.n	8001ef8 <page1_print+0x94>
		{
			lcd_puts(2, 7, (int8_t *)"CW");
 8001eea:	4b48      	ldr	r3, [pc, #288]	; (800200c <page1_print+0x1a8>)
 8001eec:	001a      	movs	r2, r3
 8001eee:	2107      	movs	r1, #7
 8001ef0:	2002      	movs	r0, #2
 8001ef2:	f7fe fd6d 	bl	80009d0 <lcd_puts>
 8001ef6:	e011      	b.n	8001f1c <page1_print+0xb8>

		}
		else if (data_reg.color == -1)
 8001ef8:	4b42      	ldr	r3, [pc, #264]	; (8002004 <page1_print+0x1a0>)
 8001efa:	785b      	ldrb	r3, [r3, #1]
 8001efc:	b25b      	sxtb	r3, r3
 8001efe:	3301      	adds	r3, #1
 8001f00:	d106      	bne.n	8001f10 <page1_print+0xac>
		{
			lcd_puts(2, 7, (int8_t *)"WW");
 8001f02:	4b43      	ldr	r3, [pc, #268]	; (8002010 <page1_print+0x1ac>)
 8001f04:	001a      	movs	r2, r3
 8001f06:	2107      	movs	r1, #7
 8001f08:	2002      	movs	r0, #2
 8001f0a:	f7fe fd61 	bl	80009d0 <lcd_puts>
 8001f0e:	e005      	b.n	8001f1c <page1_print+0xb8>

		}

		else
		{
			lcd_puts(2, 7, (int8_t *)"NW");
 8001f10:	4b40      	ldr	r3, [pc, #256]	; (8002014 <page1_print+0x1b0>)
 8001f12:	001a      	movs	r2, r3
 8001f14:	2107      	movs	r1, #7
 8001f16:	2002      	movs	r0, #2
 8001f18:	f7fe fd5a 	bl	80009d0 <lcd_puts>

		}

//	lcd_puts(2, 7, (int8_t *)"NW");

	clr_data(sensor);
 8001f1c:	2003      	movs	r0, #3
 8001f1e:	f7fe fda9 	bl	8000a74 <clr_data>

	if (data_reg.sensor)
 8001f22:	4b38      	ldr	r3, [pc, #224]	; (8002004 <page1_print+0x1a0>)
 8001f24:	781b      	ldrb	r3, [r3, #0]
 8001f26:	2210      	movs	r2, #16
 8001f28:	4013      	ands	r3, r2
 8001f2a:	b2db      	uxtb	r3, r3
 8001f2c:	2b00      	cmp	r3, #0
 8001f2e:	d006      	beq.n	8001f3e <page1_print+0xda>
		lcd_puts(3, 7, (int8_t *)"ON");
 8001f30:	4b39      	ldr	r3, [pc, #228]	; (8002018 <page1_print+0x1b4>)
 8001f32:	001a      	movs	r2, r3
 8001f34:	2107      	movs	r1, #7
 8001f36:	2003      	movs	r0, #3
 8001f38:	f7fe fd4a 	bl	80009d0 <lcd_puts>
 8001f3c:	e005      	b.n	8001f4a <page1_print+0xe6>
	else
		lcd_puts(3, 7, (int8_t *)"OFF");
 8001f3e:	4b37      	ldr	r3, [pc, #220]	; (800201c <page1_print+0x1b8>)
 8001f40:	001a      	movs	r2, r3
 8001f42:	2107      	movs	r1, #7
 8001f44:	2003      	movs	r0, #3
 8001f46:	f7fe fd43 	bl	80009d0 <lcd_puts>

	clr_data(lamp);
 8001f4a:	2004      	movs	r0, #4
 8001f4c:	f7fe fd92 	bl	8000a74 <clr_data>
	if (data_reg.lamp)
 8001f50:	4b2c      	ldr	r3, [pc, #176]	; (8002004 <page1_print+0x1a0>)
 8001f52:	781b      	ldrb	r3, [r3, #0]
 8001f54:	2220      	movs	r2, #32
 8001f56:	4013      	ands	r3, r2
 8001f58:	b2db      	uxtb	r3, r3
 8001f5a:	2b00      	cmp	r3, #0
 8001f5c:	d006      	beq.n	8001f6c <page1_print+0x108>
		lcd_puts(1, 17, (int8_t *)"ON");
 8001f5e:	4b2e      	ldr	r3, [pc, #184]	; (8002018 <page1_print+0x1b4>)
 8001f60:	001a      	movs	r2, r3
 8001f62:	2111      	movs	r1, #17
 8001f64:	2001      	movs	r0, #1
 8001f66:	f7fe fd33 	bl	80009d0 <lcd_puts>
 8001f6a:	e005      	b.n	8001f78 <page1_print+0x114>
	else
		lcd_puts(1, 17, (int8_t *)"OFF");
 8001f6c:	4b2b      	ldr	r3, [pc, #172]	; (800201c <page1_print+0x1b8>)
 8001f6e:	001a      	movs	r2, r3
 8001f70:	2111      	movs	r1, #17
 8001f72:	2001      	movs	r0, #1
 8001f74:	f7fe fd2c 	bl	80009d0 <lcd_puts>

	clr_data(endo);
 8001f78:	2005      	movs	r0, #5
 8001f7a:	f7fe fd7b 	bl	8000a74 <clr_data>
	if (data_reg.endo)
 8001f7e:	4b21      	ldr	r3, [pc, #132]	; (8002004 <page1_print+0x1a0>)
 8001f80:	781b      	ldrb	r3, [r3, #0]
 8001f82:	2240      	movs	r2, #64	; 0x40
 8001f84:	4013      	ands	r3, r2
 8001f86:	b2db      	uxtb	r3, r3
 8001f88:	2b00      	cmp	r3, #0
 8001f8a:	d006      	beq.n	8001f9a <page1_print+0x136>
		lcd_puts(2, 17, (int8_t *)"ON");
 8001f8c:	4b22      	ldr	r3, [pc, #136]	; (8002018 <page1_print+0x1b4>)
 8001f8e:	001a      	movs	r2, r3
 8001f90:	2111      	movs	r1, #17
 8001f92:	2002      	movs	r0, #2
 8001f94:	f7fe fd1c 	bl	80009d0 <lcd_puts>
 8001f98:	e005      	b.n	8001fa6 <page1_print+0x142>
	else
		lcd_puts(2, 17, (int8_t *)"OFF");
 8001f9a:	4b20      	ldr	r3, [pc, #128]	; (800201c <page1_print+0x1b8>)
 8001f9c:	001a      	movs	r2, r3
 8001f9e:	2111      	movs	r1, #17
 8001fa0:	2002      	movs	r0, #2
 8001fa2:	f7fe fd15 	bl	80009d0 <lcd_puts>

	clr_data(depth);
 8001fa6:	2006      	movs	r0, #6
 8001fa8:	f7fe fd64 	bl	8000a74 <clr_data>
	if (data_reg.depth)
 8001fac:	4b15      	ldr	r3, [pc, #84]	; (8002004 <page1_print+0x1a0>)
 8001fae:	781b      	ldrb	r3, [r3, #0]
 8001fb0:	227f      	movs	r2, #127	; 0x7f
 8001fb2:	4393      	bics	r3, r2
 8001fb4:	b2db      	uxtb	r3, r3
 8001fb6:	2b00      	cmp	r3, #0
 8001fb8:	d006      	beq.n	8001fc8 <page1_print+0x164>
		lcd_puts(3, 17, (int8_t *)"ON");
 8001fba:	4b17      	ldr	r3, [pc, #92]	; (8002018 <page1_print+0x1b4>)
 8001fbc:	001a      	movs	r2, r3
 8001fbe:	2111      	movs	r1, #17
 8001fc0:	2003      	movs	r0, #3
 8001fc2:	f7fe fd05 	bl	80009d0 <lcd_puts>
 8001fc6:	e005      	b.n	8001fd4 <page1_print+0x170>
	else
		lcd_puts(3, 17, (int8_t *)"OFF");
 8001fc8:	4b14      	ldr	r3, [pc, #80]	; (800201c <page1_print+0x1b8>)
 8001fca:	001a      	movs	r2, r3
 8001fcc:	2111      	movs	r1, #17
 8001fce:	2003      	movs	r0, #3
 8001fd0:	f7fe fcfe 	bl	80009d0 <lcd_puts>

	lcd_puts(1, 0, (int8_t *)">");
 8001fd4:	4b12      	ldr	r3, [pc, #72]	; (8002020 <page1_print+0x1bc>)
 8001fd6:	001a      	movs	r2, r3
 8001fd8:	2100      	movs	r1, #0
 8001fda:	2001      	movs	r0, #1
 8001fdc:	f7fe fcf8 	bl	80009d0 <lcd_puts>
}
 8001fe0:	46c0      	nop			; (mov r8, r8)
 8001fe2:	46bd      	mov	sp, r7
 8001fe4:	b002      	add	sp, #8
 8001fe6:	bd80      	pop	{r7, pc}
 8001fe8:	080063f0 	.word	0x080063f0
 8001fec:	08006408 	.word	0x08006408
 8001ff0:	08006410 	.word	0x08006410
 8001ff4:	08006418 	.word	0x08006418
 8001ff8:	08006420 	.word	0x08006420
 8001ffc:	08006428 	.word	0x08006428
 8002000:	08006430 	.word	0x08006430
 8002004:	20000008 	.word	0x20000008
 8002008:	08006384 	.word	0x08006384
 800200c:	080063e4 	.word	0x080063e4
 8002010:	080063e8 	.word	0x080063e8
 8002014:	080063ec 	.word	0x080063ec
 8002018:	0800638c 	.word	0x0800638c
 800201c:	08006390 	.word	0x08006390
 8002020:	08006394 	.word	0x08006394

08002024 <HAL_GPIO_EXTI_Callback>:

void HAL_GPIO_EXTI_Callback(uint16_t GPIO_Pin)
{
 8002024:	b580      	push	{r7, lr}
 8002026:	b082      	sub	sp, #8
 8002028:	af00      	add	r7, sp, #0
 800202a:	0002      	movs	r2, r0
 800202c:	1dbb      	adds	r3, r7, #6
 800202e:	801a      	strh	r2, [r3, #0]

	static uint32_t _time;

	if ((HAL_GetTick() - _time) >= 100)
 8002030:	f000 ff10 	bl	8002e54 <HAL_GetTick>
 8002034:	0002      	movs	r2, r0
 8002036:	4b08      	ldr	r3, [pc, #32]	; (8002058 <HAL_GPIO_EXTI_Callback+0x34>)
 8002038:	681b      	ldr	r3, [r3, #0]
 800203a:	1ad3      	subs	r3, r2, r3
 800203c:	2b63      	cmp	r3, #99	; 0x63
 800203e:	d905      	bls.n	800204c <HAL_GPIO_EXTI_Callback+0x28>
		// {
		// 	//			interrupt_reg.key_flag = 1;
		// 	//			key_pressed.prv =1;
		// }

		_time = HAL_GetTick();
 8002040:	f000 ff08 	bl	8002e54 <HAL_GetTick>
 8002044:	0002      	movs	r2, r0
 8002046:	4b04      	ldr	r3, [pc, #16]	; (8002058 <HAL_GPIO_EXTI_Callback+0x34>)
 8002048:	601a      	str	r2, [r3, #0]

	else
	{
		__NOP();
	}
}
 800204a:	e000      	b.n	800204e <HAL_GPIO_EXTI_Callback+0x2a>
		__NOP();
 800204c:	46c0      	nop			; (mov r8, r8)
}
 800204e:	46c0      	nop			; (mov r8, r8)
 8002050:	46bd      	mov	sp, r7
 8002052:	b002      	add	sp, #8
 8002054:	bd80      	pop	{r7, pc}
 8002056:	46c0      	nop			; (mov r8, r8)
 8002058:	20000224 	.word	0x20000224

0800205c <beep_sound>:

void beep_sound()
{
 800205c:	b580      	push	{r7, lr}
 800205e:	af00      	add	r7, sp, #0
	HAL_GPIO_WritePin(GPIOA, GPIO_PIN_6, 1);
 8002060:	2390      	movs	r3, #144	; 0x90
 8002062:	05db      	lsls	r3, r3, #23
 8002064:	2201      	movs	r2, #1
 8002066:	2140      	movs	r1, #64	; 0x40
 8002068:	0018      	movs	r0, r3
 800206a:	f001 f98c 	bl	8003386 <HAL_GPIO_WritePin>
	HAL_Delay(35);
 800206e:	2023      	movs	r0, #35	; 0x23
 8002070:	f000 fefa 	bl	8002e68 <HAL_Delay>
	HAL_GPIO_WritePin(GPIOA, GPIO_PIN_6, 0);
 8002074:	2390      	movs	r3, #144	; 0x90
 8002076:	05db      	lsls	r3, r3, #23
 8002078:	2200      	movs	r2, #0
 800207a:	2140      	movs	r1, #64	; 0x40
 800207c:	0018      	movs	r0, r3
 800207e:	f001 f982 	bl	8003386 <HAL_GPIO_WritePin>
	HAL_Delay(35);
 8002082:	2023      	movs	r0, #35	; 0x23
 8002084:	f000 fef0 	bl	8002e68 <HAL_Delay>
	//	beep_sound_flag = 0;
}
 8002088:	46c0      	nop			; (mov r8, r8)
 800208a:	46bd      	mov	sp, r7
 800208c:	bd80      	pop	{r7, pc}
	...

08002090 <main>:
/**
 * @brief  The application entry point.
 * @retval int
 */
int main(void)
{
 8002090:	b590      	push	{r4, r7, lr}
 8002092:	b085      	sub	sp, #20
 8002094:	af00      	add	r7, sp, #0
	/* USER CODE END 1 */

	/* MCU Configuration--------------------------------------------------------*/

	/* Reset of all peripherals, Initializes the Flash interface and the Systick. */
	HAL_Init();
 8002096:	f000 fe83 	bl	8002da0 <HAL_Init>
	/* USER CODE BEGIN Init */

	/* USER CODE END Init */

	/* Configure the system clock */
	SystemClock_Config();
 800209a:	f000 fac9 	bl	8002630 <SystemClock_Config>
	/* USER CODE BEGIN SysInit */

	/* USER CODE END SysInit */

	/* Initialize all configured peripherals */
	MX_GPIO_Init();
 800209e:	f000 fbe9 	bl	8002874 <MX_GPIO_Init>
	MX_TIM6_Init();
 80020a2:	f000 fb69 	bl	8002778 <MX_TIM6_Init>
	MX_I2C1_Init();
 80020a6:	f000 fb27 	bl	80026f8 <MX_I2C1_Init>
	MX_USART1_UART_Init();
 80020aa:	f000 fbb1 	bl	8002810 <MX_USART1_UART_Init>
	MX_TIM14_Init();
 80020ae:	f000 fb87 	bl	80027c0 <MX_TIM14_Init>
	/* USER CODE BEGIN 2 */
	HAL_TIM_Base_Start_IT(&htim6);
 80020b2:	4bbc      	ldr	r3, [pc, #752]	; (80023a4 <main+0x314>)
 80020b4:	0018      	movs	r0, r3
 80020b6:	f002 fda5 	bl	8004c04 <HAL_TIM_Base_Start_IT>
	HAL_TIM_Base_Start_IT(&htim14);
 80020ba:	4bbb      	ldr	r3, [pc, #748]	; (80023a8 <main+0x318>)
 80020bc:	0018      	movs	r0, r3
 80020be:	f002 fda1 	bl	8004c04 <HAL_TIM_Base_Start_IT>
	//	HAL_Delay(1000);
	//	home_page();
	//	HAL_Delay(1000);
	//	lcd_clear();

	HAL_Delay(100);
 80020c2:	2064      	movs	r0, #100	; 0x64
 80020c4:	f000 fed0 	bl	8002e68 <HAL_Delay>
	lcd_init();
 80020c8:	f7fe fb44 	bl	8000754 <lcd_init>
	HAL_Delay(100);
 80020cc:	2064      	movs	r0, #100	; 0x64
 80020ce:	f000 fecb 	bl	8002e68 <HAL_Delay>
	home_page();
 80020d2:	f7fe fe67 	bl	8000da4 <home_page>
	HAL_Delay(100);
 80020d6:	2064      	movs	r0, #100	; 0x64
 80020d8:	f000 fec6 	bl	8002e68 <HAL_Delay>
	lcd_clear();
 80020dc:	f7fe fdd4 	bl	8000c88 <lcd_clear>
	page1_print();
 80020e0:	f7ff fec0 	bl	8001e64 <page1_print>
	HAL_Delay(100);
 80020e4:	2064      	movs	r0, #100	; 0x64
 80020e6:	f000 febf 	bl	8002e68 <HAL_Delay>
	//  	data_reg.sensor = 1;
	init_gesture();
 80020ea:	f7fe f8a3 	bl	8000234 <init_gesture>
	HAL_Delay(100);
 80020ee:	2064      	movs	r0, #100	; 0x64
 80020f0:	f000 feba 	bl	8002e68 <HAL_Delay>
	uint8_t sns_status = 0;
 80020f4:	230e      	movs	r3, #14
 80020f6:	18fb      	adds	r3, r7, r3
 80020f8:	2200      	movs	r2, #0
 80020fa:	701a      	strb	r2, [r3, #0]
	uint8_t page_change_flag = 0;
 80020fc:	230f      	movs	r3, #15
 80020fe:	18fb      	adds	r3, r7, r3
 8002100:	2200      	movs	r2, #0
 8002102:	701a      	strb	r2, [r3, #0]

	data_reg.sensor = 0;
 8002104:	4ba9      	ldr	r3, [pc, #676]	; (80023ac <main+0x31c>)
 8002106:	781a      	ldrb	r2, [r3, #0]
 8002108:	2110      	movs	r1, #16
 800210a:	438a      	bics	r2, r1
 800210c:	701a      	strb	r2, [r3, #0]

	uint32_t temp_time = HAL_GetTick();
 800210e:	f000 fea1 	bl	8002e54 <HAL_GetTick>
 8002112:	0003      	movs	r3, r0
 8002114:	60bb      	str	r3, [r7, #8]
	HAL_Delay(10);
 8002116:	200a      	movs	r0, #10
 8002118:	f000 fea6 	bl	8002e68 <HAL_Delay>

	pg3_sm = off;
 800211c:	4ba4      	ldr	r3, [pc, #656]	; (80023b0 <main+0x320>)
 800211e:	2200      	movs	r2, #0
 8002120:	701a      	strb	r2, [r3, #0]
	pg3_md = off;
 8002122:	4ba4      	ldr	r3, [pc, #656]	; (80023b4 <main+0x324>)
 8002124:	2200      	movs	r2, #0
 8002126:	701a      	strb	r2, [r3, #0]
	pg3_wd = off;
 8002128:	4ba3      	ldr	r3, [pc, #652]	; (80023b8 <main+0x328>)
 800212a:	2200      	movs	r2, #0
 800212c:	701a      	strb	r2, [r3, #0]
	// pg2_fc = 0;

	send_cmd(1, intensity); // F1
 800212e:	2101      	movs	r1, #1
 8002130:	2001      	movs	r0, #1
 8002132:	f7ff fd37 	bl	8001ba4 <send_cmd>
	send_cmd(1, lamp);		// F2
 8002136:	2104      	movs	r1, #4
 8002138:	2001      	movs	r0, #1
 800213a:	f7ff fd33 	bl	8001ba4 <send_cmd>
	send_cmd(0, endo);		// F3
 800213e:	2105      	movs	r1, #5
 8002140:	2000      	movs	r0, #0
 8002142:	f7ff fd2f 	bl	8001ba4 <send_cmd>
	{
		/* USER CODE END WHILE */

		/* USER CODE BEGIN 3 */

		if (HAL_GPIO_ReadPin(S_PRV_GPIO_Port, S_PRV_Pin) == 0)
 8002146:	2380      	movs	r3, #128	; 0x80
 8002148:	011b      	lsls	r3, r3, #4
 800214a:	4a9c      	ldr	r2, [pc, #624]	; (80023bc <main+0x32c>)
 800214c:	0019      	movs	r1, r3
 800214e:	0010      	movs	r0, r2
 8002150:	f001 f8fc 	bl	800334c <HAL_GPIO_ReadPin>
 8002154:	1e03      	subs	r3, r0, #0
 8002156:	d109      	bne.n	800216c <main+0xdc>
		{
			interrupt_reg.key_flag = 1;
 8002158:	4a99      	ldr	r2, [pc, #612]	; (80023c0 <main+0x330>)
 800215a:	7813      	ldrb	r3, [r2, #0]
 800215c:	2101      	movs	r1, #1
 800215e:	430b      	orrs	r3, r1
 8002160:	7013      	strb	r3, [r2, #0]
			key_pressed.prv = 1;
 8002162:	4a98      	ldr	r2, [pc, #608]	; (80023c4 <main+0x334>)
 8002164:	7813      	ldrb	r3, [r2, #0]
 8002166:	2101      	movs	r1, #1
 8002168:	430b      	orrs	r3, r1
 800216a:	7013      	strb	r3, [r2, #0]
		}

		if (HAL_GPIO_ReadPin(S_NEXT_GPIO_Port, S_NEXT_Pin) == 0)
 800216c:	2380      	movs	r3, #128	; 0x80
 800216e:	015b      	lsls	r3, r3, #5
 8002170:	4a92      	ldr	r2, [pc, #584]	; (80023bc <main+0x32c>)
 8002172:	0019      	movs	r1, r3
 8002174:	0010      	movs	r0, r2
 8002176:	f001 f8e9 	bl	800334c <HAL_GPIO_ReadPin>
 800217a:	1e03      	subs	r3, r0, #0
 800217c:	d109      	bne.n	8002192 <main+0x102>
		{
			interrupt_reg.key_flag = 1;
 800217e:	4a90      	ldr	r2, [pc, #576]	; (80023c0 <main+0x330>)
 8002180:	7813      	ldrb	r3, [r2, #0]
 8002182:	2101      	movs	r1, #1
 8002184:	430b      	orrs	r3, r1
 8002186:	7013      	strb	r3, [r2, #0]
			key_pressed.nxt = 1;
 8002188:	4a8e      	ldr	r2, [pc, #568]	; (80023c4 <main+0x334>)
 800218a:	7813      	ldrb	r3, [r2, #0]
 800218c:	2102      	movs	r1, #2
 800218e:	430b      	orrs	r3, r1
 8002190:	7013      	strb	r3, [r2, #0]
		}

		if (HAL_GPIO_ReadPin(DEPTH_GPIO_Port, DEPTH_Pin) == 0)
 8002192:	2380      	movs	r3, #128	; 0x80
 8002194:	019b      	lsls	r3, r3, #6
 8002196:	4a89      	ldr	r2, [pc, #548]	; (80023bc <main+0x32c>)
 8002198:	0019      	movs	r1, r3
 800219a:	0010      	movs	r0, r2
 800219c:	f001 f8d6 	bl	800334c <HAL_GPIO_ReadPin>
 80021a0:	1e03      	subs	r3, r0, #0
 80021a2:	d109      	bne.n	80021b8 <main+0x128>
		{
			interrupt_reg.key_flag = 1;
 80021a4:	4a86      	ldr	r2, [pc, #536]	; (80023c0 <main+0x330>)
 80021a6:	7813      	ldrb	r3, [r2, #0]
 80021a8:	2101      	movs	r1, #1
 80021aa:	430b      	orrs	r3, r1
 80021ac:	7013      	strb	r3, [r2, #0]
			key_pressed.depth = 1;
 80021ae:	4a85      	ldr	r2, [pc, #532]	; (80023c4 <main+0x334>)
 80021b0:	7813      	ldrb	r3, [r2, #0]
 80021b2:	2104      	movs	r1, #4
 80021b4:	430b      	orrs	r3, r1
 80021b6:	7013      	strb	r3, [r2, #0]
		}
		if (HAL_GPIO_ReadPin(CHANGE_N_GPIO_Port, CHANGE_N_Pin) == 0)
 80021b8:	2380      	movs	r3, #128	; 0x80
 80021ba:	021b      	lsls	r3, r3, #8
 80021bc:	4a7f      	ldr	r2, [pc, #508]	; (80023bc <main+0x32c>)
 80021be:	0019      	movs	r1, r3
 80021c0:	0010      	movs	r0, r2
 80021c2:	f001 f8c3 	bl	800334c <HAL_GPIO_ReadPin>
 80021c6:	1e03      	subs	r3, r0, #0
 80021c8:	d109      	bne.n	80021de <main+0x14e>
		{

			key_pressed.neg = 1;
 80021ca:	4a7e      	ldr	r2, [pc, #504]	; (80023c4 <main+0x334>)
 80021cc:	7813      	ldrb	r3, [r2, #0]
 80021ce:	2110      	movs	r1, #16
 80021d0:	430b      	orrs	r3, r1
 80021d2:	7013      	strb	r3, [r2, #0]
			interrupt_reg.key_flag = 1;
 80021d4:	4a7a      	ldr	r2, [pc, #488]	; (80023c0 <main+0x330>)
 80021d6:	7813      	ldrb	r3, [r2, #0]
 80021d8:	2101      	movs	r1, #1
 80021da:	430b      	orrs	r3, r1
 80021dc:	7013      	strb	r3, [r2, #0]
		}

		if (HAL_GPIO_ReadPin(CHANGE_P_GPIO_Port, CHANGE_P_Pin) == 0)
 80021de:	2380      	movs	r3, #128	; 0x80
 80021e0:	00da      	lsls	r2, r3, #3
 80021e2:	2390      	movs	r3, #144	; 0x90
 80021e4:	05db      	lsls	r3, r3, #23
 80021e6:	0011      	movs	r1, r2
 80021e8:	0018      	movs	r0, r3
 80021ea:	f001 f8af 	bl	800334c <HAL_GPIO_ReadPin>
 80021ee:	1e03      	subs	r3, r0, #0
 80021f0:	d109      	bne.n	8002206 <main+0x176>
		{

			key_pressed.pos = 1;
 80021f2:	4a74      	ldr	r2, [pc, #464]	; (80023c4 <main+0x334>)
 80021f4:	7813      	ldrb	r3, [r2, #0]
 80021f6:	2108      	movs	r1, #8
 80021f8:	430b      	orrs	r3, r1
 80021fa:	7013      	strb	r3, [r2, #0]
			interrupt_reg.key_flag = 1;
 80021fc:	4a70      	ldr	r2, [pc, #448]	; (80023c0 <main+0x330>)
 80021fe:	7813      	ldrb	r3, [r2, #0]
 8002200:	2101      	movs	r1, #1
 8002202:	430b      	orrs	r3, r1
 8002204:	7013      	strb	r3, [r2, #0]
		}

		if (interrupt_reg.key_flag)
 8002206:	4b6e      	ldr	r3, [pc, #440]	; (80023c0 <main+0x330>)
 8002208:	781b      	ldrb	r3, [r3, #0]
 800220a:	07db      	lsls	r3, r3, #31
 800220c:	0fdb      	lsrs	r3, r3, #31
 800220e:	b2db      	uxtb	r3, r3
 8002210:	2b00      	cmp	r3, #0
 8002212:	d100      	bne.n	8002216 <main+0x186>
 8002214:	e10c      	b.n	8002430 <main+0x3a0>
		{

			if (HAL_GPIO_ReadPin(S_PRV_GPIO_Port, S_PRV_Pin) == 0)
 8002216:	2380      	movs	r3, #128	; 0x80
 8002218:	011b      	lsls	r3, r3, #4
 800221a:	4a68      	ldr	r2, [pc, #416]	; (80023bc <main+0x32c>)
 800221c:	0019      	movs	r1, r3
 800221e:	0010      	movs	r0, r2
 8002220:	f001 f894 	bl	800334c <HAL_GPIO_ReadPin>
 8002224:	1e03      	subs	r3, r0, #0
 8002226:	d131      	bne.n	800228c <main+0x1fc>
			{
				temp_time = HAL_GetTick();
 8002228:	f000 fe14 	bl	8002e54 <HAL_GetTick>
 800222c:	0003      	movs	r3, r0
 800222e:	60bb      	str	r3, [r7, #8]
				// temp_time = tt_cnt;
				HAL_Delay(50);
 8002230:	2032      	movs	r0, #50	; 0x32
 8002232:	f000 fe19 	bl	8002e68 <HAL_Delay>
				while ((HAL_GetTick() - temp_time) <= 2000) // while ((tt_cnt - temp_time) >= 5000) // while ((HAL_GetTick() - temp_time) >= 5000)  // error tt_cnt
 8002236:	e020      	b.n	800227a <main+0x1ea>
				{
					if (HAL_GPIO_ReadPin(S_PRV_GPIO_Port, S_PRV_Pin))
 8002238:	2380      	movs	r3, #128	; 0x80
 800223a:	011b      	lsls	r3, r3, #4
 800223c:	4a5f      	ldr	r2, [pc, #380]	; (80023bc <main+0x32c>)
 800223e:	0019      	movs	r1, r3
 8002240:	0010      	movs	r0, r2
 8002242:	f001 f883 	bl	800334c <HAL_GPIO_ReadPin>
 8002246:	1e03      	subs	r3, r0, #0
 8002248:	d00a      	beq.n	8002260 <main+0x1d0>
					{
						interrupt_reg.key_flag = 1;
 800224a:	4a5d      	ldr	r2, [pc, #372]	; (80023c0 <main+0x330>)
 800224c:	7813      	ldrb	r3, [r2, #0]
 800224e:	2101      	movs	r1, #1
 8002250:	430b      	orrs	r3, r1
 8002252:	7013      	strb	r3, [r2, #0]
						interrupt_reg.prv_long_press = 0;
 8002254:	4a5a      	ldr	r2, [pc, #360]	; (80023c0 <main+0x330>)
 8002256:	7813      	ldrb	r3, [r2, #0]
 8002258:	2108      	movs	r1, #8
 800225a:	438b      	bics	r3, r1
 800225c:	7013      	strb	r3, [r2, #0]
						break;
 800225e:	e015      	b.n	800228c <main+0x1fc>
					}
					interrupt_reg.key_flag = 0;
 8002260:	4a57      	ldr	r2, [pc, #348]	; (80023c0 <main+0x330>)
 8002262:	7813      	ldrb	r3, [r2, #0]
 8002264:	2101      	movs	r1, #1
 8002266:	438b      	bics	r3, r1
 8002268:	7013      	strb	r3, [r2, #0]
					interrupt_reg.prv_long_press = 1;
 800226a:	4a55      	ldr	r2, [pc, #340]	; (80023c0 <main+0x330>)
 800226c:	7813      	ldrb	r3, [r2, #0]
 800226e:	2108      	movs	r1, #8
 8002270:	430b      	orrs	r3, r1
 8002272:	7013      	strb	r3, [r2, #0]
					HAL_Delay(50);
 8002274:	2032      	movs	r0, #50	; 0x32
 8002276:	f000 fdf7 	bl	8002e68 <HAL_Delay>
				while ((HAL_GetTick() - temp_time) <= 2000) // while ((tt_cnt - temp_time) >= 5000) // while ((HAL_GetTick() - temp_time) >= 5000)  // error tt_cnt
 800227a:	f000 fdeb 	bl	8002e54 <HAL_GetTick>
 800227e:	0002      	movs	r2, r0
 8002280:	68bb      	ldr	r3, [r7, #8]
 8002282:	1ad2      	subs	r2, r2, r3
 8002284:	23fa      	movs	r3, #250	; 0xfa
 8002286:	00db      	lsls	r3, r3, #3
 8002288:	429a      	cmp	r2, r3
 800228a:	d9d5      	bls.n	8002238 <main+0x1a8>
				}
			}

			if (HAL_GPIO_ReadPin(DEPTH_GPIO_Port, DEPTH_Pin) == 0)
 800228c:	2380      	movs	r3, #128	; 0x80
 800228e:	019b      	lsls	r3, r3, #6
 8002290:	4a4a      	ldr	r2, [pc, #296]	; (80023bc <main+0x32c>)
 8002292:	0019      	movs	r1, r3
 8002294:	0010      	movs	r0, r2
 8002296:	f001 f859 	bl	800334c <HAL_GPIO_ReadPin>
 800229a:	1e03      	subs	r3, r0, #0
 800229c:	d12d      	bne.n	80022fa <main+0x26a>
			{
				temp_time = HAL_GetTick();
 800229e:	f000 fdd9 	bl	8002e54 <HAL_GetTick>
 80022a2:	0003      	movs	r3, r0
 80022a4:	60bb      	str	r3, [r7, #8]
				HAL_Delay(50);
 80022a6:	2032      	movs	r0, #50	; 0x32
 80022a8:	f000 fdde 	bl	8002e68 <HAL_Delay>
				while ((HAL_GetTick() - temp_time) <= 5000)
 80022ac:	e01d      	b.n	80022ea <main+0x25a>
				{
					if (HAL_GPIO_ReadPin(DEPTH_GPIO_Port, DEPTH_Pin))
 80022ae:	2380      	movs	r3, #128	; 0x80
 80022b0:	019b      	lsls	r3, r3, #6
 80022b2:	4a42      	ldr	r2, [pc, #264]	; (80023bc <main+0x32c>)
 80022b4:	0019      	movs	r1, r3
 80022b6:	0010      	movs	r0, r2
 80022b8:	f001 f848 	bl	800334c <HAL_GPIO_ReadPin>
 80022bc:	1e03      	subs	r3, r0, #0
 80022be:	d00a      	beq.n	80022d6 <main+0x246>
					{
						interrupt_reg.key_flag = 1;
 80022c0:	4a3f      	ldr	r2, [pc, #252]	; (80023c0 <main+0x330>)
 80022c2:	7813      	ldrb	r3, [r2, #0]
 80022c4:	2101      	movs	r1, #1
 80022c6:	430b      	orrs	r3, r1
 80022c8:	7013      	strb	r3, [r2, #0]
						interrupt_reg.depth_long_press = 0;
 80022ca:	4a3d      	ldr	r2, [pc, #244]	; (80023c0 <main+0x330>)
 80022cc:	7813      	ldrb	r3, [r2, #0]
 80022ce:	2110      	movs	r1, #16
 80022d0:	438b      	bics	r3, r1
 80022d2:	7013      	strb	r3, [r2, #0]
						break;
 80022d4:	e011      	b.n	80022fa <main+0x26a>
					}
					interrupt_reg.key_flag = 0;
 80022d6:	4a3a      	ldr	r2, [pc, #232]	; (80023c0 <main+0x330>)
 80022d8:	7813      	ldrb	r3, [r2, #0]
 80022da:	2101      	movs	r1, #1
 80022dc:	438b      	bics	r3, r1
 80022de:	7013      	strb	r3, [r2, #0]
					interrupt_reg.depth_long_press = 1;
 80022e0:	4a37      	ldr	r2, [pc, #220]	; (80023c0 <main+0x330>)
 80022e2:	7813      	ldrb	r3, [r2, #0]
 80022e4:	2110      	movs	r1, #16
 80022e6:	430b      	orrs	r3, r1
 80022e8:	7013      	strb	r3, [r2, #0]
				while ((HAL_GetTick() - temp_time) <= 5000)
 80022ea:	f000 fdb3 	bl	8002e54 <HAL_GetTick>
 80022ee:	0002      	movs	r2, r0
 80022f0:	68bb      	ldr	r3, [r7, #8]
 80022f2:	1ad3      	subs	r3, r2, r3
 80022f4:	4a34      	ldr	r2, [pc, #208]	; (80023c8 <main+0x338>)
 80022f6:	4293      	cmp	r3, r2
 80022f8:	d9d9      	bls.n	80022ae <main+0x21e>
				}
			}

			if (interrupt_reg.key_flag)
 80022fa:	4b31      	ldr	r3, [pc, #196]	; (80023c0 <main+0x330>)
 80022fc:	781b      	ldrb	r3, [r3, #0]
 80022fe:	07db      	lsls	r3, r3, #31
 8002300:	0fdb      	lsrs	r3, r3, #31
 8002302:	b2db      	uxtb	r3, r3
 8002304:	2b00      	cmp	r3, #0
 8002306:	d012      	beq.n	800232e <main+0x29e>
			{
				beep_sound();
 8002308:	f7ff fea8 	bl	800205c <beep_sound>
				// if (!data_reg.sensor)
				// {
				update_key_press();
 800230c:	f7fe fd9a 	bl	8000e44 <update_key_press>
				interrupt_reg.key_flag = 0;
 8002310:	4a2b      	ldr	r2, [pc, #172]	; (80023c0 <main+0x330>)
 8002312:	7813      	ldrb	r3, [r2, #0]
 8002314:	2101      	movs	r1, #1
 8002316:	438b      	bics	r3, r1
 8002318:	7013      	strb	r3, [r2, #0]
				interrupt_reg.update_data = 1;
 800231a:	4a29      	ldr	r2, [pc, #164]	; (80023c0 <main+0x330>)
 800231c:	7813      	ldrb	r3, [r2, #0]
 800231e:	2120      	movs	r1, #32
 8002320:	430b      	orrs	r3, r1
 8002322:	7013      	strb	r3, [r2, #0]
				// }

				interrupt_reg.key_flag = 0;
 8002324:	4a26      	ldr	r2, [pc, #152]	; (80023c0 <main+0x330>)
 8002326:	7813      	ldrb	r3, [r2, #0]
 8002328:	2101      	movs	r1, #1
 800232a:	438b      	bics	r3, r1
 800232c:	7013      	strb	r3, [r2, #0]
			}

			if (interrupt_reg.prv_long_press)
 800232e:	4b24      	ldr	r3, [pc, #144]	; (80023c0 <main+0x330>)
 8002330:	781b      	ldrb	r3, [r3, #0]
 8002332:	071b      	lsls	r3, r3, #28
 8002334:	0fdb      	lsrs	r3, r3, #31
 8002336:	b2db      	uxtb	r3, r3
 8002338:	2b00      	cmp	r3, #0
 800233a:	d055      	beq.n	80023e8 <main+0x358>
			{
				beep_sound();
 800233c:	f7ff fe8e 	bl	800205c <beep_sound>
				interrupt_reg.prv_long_press = 0;
 8002340:	4a1f      	ldr	r2, [pc, #124]	; (80023c0 <main+0x330>)
 8002342:	7813      	ldrb	r3, [r2, #0]
 8002344:	2108      	movs	r1, #8
 8002346:	438b      	bics	r3, r1
 8002348:	7013      	strb	r3, [r2, #0]
				key_pressed.prv = 0;
 800234a:	4a1e      	ldr	r2, [pc, #120]	; (80023c4 <main+0x334>)
 800234c:	7813      	ldrb	r3, [r2, #0]
 800234e:	2101      	movs	r1, #1
 8002350:	438b      	bics	r3, r1
 8002352:	7013      	strb	r3, [r2, #0]
				// interrupt_reg.update_data = 0;
				data_reg.sensor = !data_reg.sensor;
 8002354:	4b15      	ldr	r3, [pc, #84]	; (80023ac <main+0x31c>)
 8002356:	781b      	ldrb	r3, [r3, #0]
 8002358:	2210      	movs	r2, #16
 800235a:	4013      	ands	r3, r2
 800235c:	b2db      	uxtb	r3, r3
 800235e:	425a      	negs	r2, r3
 8002360:	4153      	adcs	r3, r2
 8002362:	b2da      	uxtb	r2, r3
 8002364:	4b11      	ldr	r3, [pc, #68]	; (80023ac <main+0x31c>)
 8002366:	2101      	movs	r1, #1
 8002368:	400a      	ands	r2, r1
 800236a:	0110      	lsls	r0, r2, #4
 800236c:	781a      	ldrb	r2, [r3, #0]
 800236e:	2110      	movs	r1, #16
 8002370:	438a      	bics	r2, r1
 8002372:	1c11      	adds	r1, r2, #0
 8002374:	1c02      	adds	r2, r0, #0
 8002376:	430a      	orrs	r2, r1
 8002378:	701a      	strb	r2, [r3, #0]
				if (last_pg == 1)
 800237a:	4b14      	ldr	r3, [pc, #80]	; (80023cc <main+0x33c>)
 800237c:	781b      	ldrb	r3, [r3, #0]
 800237e:	2b01      	cmp	r3, #1
 8002380:	d12e      	bne.n	80023e0 <main+0x350>
				{
					clr_data(sensor);
 8002382:	2003      	movs	r0, #3
 8002384:	f7fe fb76 	bl	8000a74 <clr_data>


					if (data_reg.sensor)
 8002388:	4b08      	ldr	r3, [pc, #32]	; (80023ac <main+0x31c>)
 800238a:	781b      	ldrb	r3, [r3, #0]
 800238c:	2210      	movs	r2, #16
 800238e:	4013      	ands	r3, r2
 8002390:	b2db      	uxtb	r3, r3
 8002392:	2b00      	cmp	r3, #0
 8002394:	d01e      	beq.n	80023d4 <main+0x344>
						lcd_puts(3, 7, (int8_t *)"ON");
 8002396:	4b0e      	ldr	r3, [pc, #56]	; (80023d0 <main+0x340>)
 8002398:	001a      	movs	r2, r3
 800239a:	2107      	movs	r1, #7
 800239c:	2003      	movs	r0, #3
 800239e:	f7fe fb17 	bl	80009d0 <lcd_puts>
 80023a2:	e01d      	b.n	80023e0 <main+0x350>
 80023a4:	20000108 	.word	0x20000108
 80023a8:	20000150 	.word	0x20000150
 80023ac:	20000008 	.word	0x20000008
 80023b0:	200000a0 	.word	0x200000a0
 80023b4:	200000a1 	.word	0x200000a1
 80023b8:	200000a2 	.word	0x200000a2
 80023bc:	48000400 	.word	0x48000400
 80023c0:	200000b0 	.word	0x200000b0
 80023c4:	200000ac 	.word	0x200000ac
 80023c8:	00001388 	.word	0x00001388
 80023cc:	2000009e 	.word	0x2000009e
 80023d0:	0800638c 	.word	0x0800638c
					else
						lcd_puts(3, 7, (int8_t *)"OFF");
 80023d4:	4b8d      	ldr	r3, [pc, #564]	; (800260c <main+0x57c>)
 80023d6:	001a      	movs	r2, r3
 80023d8:	2107      	movs	r1, #7
 80023da:	2003      	movs	r0, #3
 80023dc:	f7fe faf8 	bl	80009d0 <lcd_puts>

				}
				sns_status = 1;
 80023e0:	230e      	movs	r3, #14
 80023e2:	18fb      	adds	r3, r7, r3
 80023e4:	2201      	movs	r2, #1
 80023e6:	701a      	strb	r2, [r3, #0]
			}

			if (interrupt_reg.depth_long_press)
 80023e8:	4b89      	ldr	r3, [pc, #548]	; (8002610 <main+0x580>)
 80023ea:	781b      	ldrb	r3, [r3, #0]
 80023ec:	06db      	lsls	r3, r3, #27
 80023ee:	0fdb      	lsrs	r3, r3, #31
 80023f0:	b2db      	uxtb	r3, r3
 80023f2:	2b00      	cmp	r3, #0
 80023f4:	d01c      	beq.n	8002430 <main+0x3a0>
			{
				//				lcd_puts(0, 0, (int8_t *)"...");
				page_change_flag = 1;
 80023f6:	230f      	movs	r3, #15
 80023f8:	18fb      	adds	r3, r7, r3
 80023fa:	2201      	movs	r2, #1
 80023fc:	701a      	strb	r2, [r3, #0]
				beep_sound();
 80023fe:	f7ff fe2d 	bl	800205c <beep_sound>
				current_pos.key_number = _depth;
 8002402:	4b84      	ldr	r3, [pc, #528]	; (8002614 <main+0x584>)
 8002404:	785a      	ldrb	r2, [r3, #1]
 8002406:	2107      	movs	r1, #7
 8002408:	438a      	bics	r2, r1
 800240a:	1c11      	adds	r1, r2, #0
 800240c:	2202      	movs	r2, #2
 800240e:	430a      	orrs	r2, r1
 8002410:	705a      	strb	r2, [r3, #1]
				interrupt_reg.depth_long_press = 0;
 8002412:	4a7f      	ldr	r2, [pc, #508]	; (8002610 <main+0x580>)
 8002414:	7813      	ldrb	r3, [r2, #0]
 8002416:	2110      	movs	r1, #16
 8002418:	438b      	bics	r3, r1
 800241a:	7013      	strb	r3, [r2, #0]
				key_pressed.depth = 0;
 800241c:	4a7e      	ldr	r2, [pc, #504]	; (8002618 <main+0x588>)
 800241e:	7813      	ldrb	r3, [r2, #0]
 8002420:	2104      	movs	r1, #4
 8002422:	438b      	bics	r3, r1
 8002424:	7013      	strb	r3, [r2, #0]
				interrupt_reg.key_flag = 0;
 8002426:	4a7a      	ldr	r2, [pc, #488]	; (8002610 <main+0x580>)
 8002428:	7813      	ldrb	r3, [r2, #0]
 800242a:	2101      	movs	r1, #1
 800242c:	438b      	bics	r3, r1
 800242e:	7013      	strb	r3, [r2, #0]
			//				interrupt_reg.gesture_flag = 0;
			//				interrupt_reg.update_data = 1;
			//			}
		}

		if (data_reg.sensor)
 8002430:	4b7a      	ldr	r3, [pc, #488]	; (800261c <main+0x58c>)
 8002432:	781b      	ldrb	r3, [r3, #0]
 8002434:	2210      	movs	r2, #16
 8002436:	4013      	ands	r3, r2
 8002438:	b2db      	uxtb	r3, r3
 800243a:	2b00      	cmp	r3, #0
 800243c:	d055      	beq.n	80024ea <main+0x45a>
		{
			HAL_Delay(10);
 800243e:	200a      	movs	r0, #10
 8002440:	f000 fd12 	bl	8002e68 <HAL_Delay>
			//			test[0] = 's';
			//			test[1] = '0';
			if (gestureAvailable())
 8002444:	f7fe f8f2 	bl	800062c <gestureAvailable>
 8002448:	1e03      	subs	r3, r0, #0
 800244a:	d04e      	beq.n	80024ea <main+0x45a>
			{
				//				test[1] = 'L';
				//				HAL_UART_Transmit(&huart1, &test[0], 5, 100);
				uint8_t gesture = readGesture();
 800244c:	1dfc      	adds	r4, r7, #7
 800244e:	f7fd ffd7 	bl	8000400 <readGesture>
 8002452:	0003      	movs	r3, r0
 8002454:	7023      	strb	r3, [r4, #0]
				switch (gesture)
 8002456:	1dfb      	adds	r3, r7, #7
 8002458:	781b      	ldrb	r3, [r3, #0]
 800245a:	2b03      	cmp	r3, #3
 800245c:	d035      	beq.n	80024ca <main+0x43a>
 800245e:	dc43      	bgt.n	80024e8 <main+0x458>
 8002460:	2b02      	cmp	r3, #2
 8002462:	d023      	beq.n	80024ac <main+0x41c>
 8002464:	dc40      	bgt.n	80024e8 <main+0x458>
 8002466:	2b00      	cmp	r3, #0
 8002468:	d002      	beq.n	8002470 <main+0x3e0>
 800246a:	2b01      	cmp	r3, #1
 800246c:	d00f      	beq.n	800248e <main+0x3fe>
					// lcd_puts(2, 1, (int8_t *)"RRRR");
					interrupt_reg.update_data = 1;
					break;

				default:
					break;
 800246e:	e03b      	b.n	80024e8 <main+0x458>
					beep_sound();
 8002470:	f7ff fdf4 	bl	800205c <beep_sound>
					key_pressed.prv = 1;
 8002474:	4a68      	ldr	r2, [pc, #416]	; (8002618 <main+0x588>)
 8002476:	7813      	ldrb	r3, [r2, #0]
 8002478:	2101      	movs	r1, #1
 800247a:	430b      	orrs	r3, r1
 800247c:	7013      	strb	r3, [r2, #0]
					update_key_press();
 800247e:	f7fe fce1 	bl	8000e44 <update_key_press>
					interrupt_reg.update_data = 1;
 8002482:	4a63      	ldr	r2, [pc, #396]	; (8002610 <main+0x580>)
 8002484:	7813      	ldrb	r3, [r2, #0]
 8002486:	2120      	movs	r1, #32
 8002488:	430b      	orrs	r3, r1
 800248a:	7013      	strb	r3, [r2, #0]
					break;
 800248c:	e02d      	b.n	80024ea <main+0x45a>
					beep_sound();
 800248e:	f7ff fde5 	bl	800205c <beep_sound>
					key_pressed.nxt = 1;
 8002492:	4a61      	ldr	r2, [pc, #388]	; (8002618 <main+0x588>)
 8002494:	7813      	ldrb	r3, [r2, #0]
 8002496:	2102      	movs	r1, #2
 8002498:	430b      	orrs	r3, r1
 800249a:	7013      	strb	r3, [r2, #0]
					update_key_press();
 800249c:	f7fe fcd2 	bl	8000e44 <update_key_press>
					interrupt_reg.update_data = 1;
 80024a0:	4a5b      	ldr	r2, [pc, #364]	; (8002610 <main+0x580>)
 80024a2:	7813      	ldrb	r3, [r2, #0]
 80024a4:	2120      	movs	r1, #32
 80024a6:	430b      	orrs	r3, r1
 80024a8:	7013      	strb	r3, [r2, #0]
					break;
 80024aa:	e01e      	b.n	80024ea <main+0x45a>
					beep_sound();
 80024ac:	f7ff fdd6 	bl	800205c <beep_sound>
					key_pressed.neg = 1;
 80024b0:	4a59      	ldr	r2, [pc, #356]	; (8002618 <main+0x588>)
 80024b2:	7813      	ldrb	r3, [r2, #0]
 80024b4:	2110      	movs	r1, #16
 80024b6:	430b      	orrs	r3, r1
 80024b8:	7013      	strb	r3, [r2, #0]
					update_key_press();
 80024ba:	f7fe fcc3 	bl	8000e44 <update_key_press>
					interrupt_reg.update_data = 1;
 80024be:	4a54      	ldr	r2, [pc, #336]	; (8002610 <main+0x580>)
 80024c0:	7813      	ldrb	r3, [r2, #0]
 80024c2:	2120      	movs	r1, #32
 80024c4:	430b      	orrs	r3, r1
 80024c6:	7013      	strb	r3, [r2, #0]
					break;
 80024c8:	e00f      	b.n	80024ea <main+0x45a>
					beep_sound();
 80024ca:	f7ff fdc7 	bl	800205c <beep_sound>
					key_pressed.pos = 1;
 80024ce:	4a52      	ldr	r2, [pc, #328]	; (8002618 <main+0x588>)
 80024d0:	7813      	ldrb	r3, [r2, #0]
 80024d2:	2108      	movs	r1, #8
 80024d4:	430b      	orrs	r3, r1
 80024d6:	7013      	strb	r3, [r2, #0]
					update_key_press();
 80024d8:	f7fe fcb4 	bl	8000e44 <update_key_press>
					interrupt_reg.update_data = 1;
 80024dc:	4a4c      	ldr	r2, [pc, #304]	; (8002610 <main+0x580>)
 80024de:	7813      	ldrb	r3, [r2, #0]
 80024e0:	2120      	movs	r1, #32
 80024e2:	430b      	orrs	r3, r1
 80024e4:	7013      	strb	r3, [r2, #0]
					break;
 80024e6:	e000      	b.n	80024ea <main+0x45a>
					break;
 80024e8:	46c0      	nop			; (mov r8, r8)
				}
			}
		}

		if (interrupt_reg.update_data)
 80024ea:	4b49      	ldr	r3, [pc, #292]	; (8002610 <main+0x580>)
 80024ec:	781b      	ldrb	r3, [r3, #0]
 80024ee:	069b      	lsls	r3, r3, #26
 80024f0:	0fdb      	lsrs	r3, r3, #31
 80024f2:	b2db      	uxtb	r3, r3
 80024f4:	2b00      	cmp	r3, #0
 80024f6:	d064      	beq.n	80025c2 <main+0x532>
		{
			//			char buffers[3];
			update_new_data();
 80024f8:	f7fe fec4 	bl	8001284 <update_new_data>

			if (current_pos.position_cursor == 7)
 80024fc:	4b45      	ldr	r3, [pc, #276]	; (8002614 <main+0x584>)
 80024fe:	781b      	ldrb	r3, [r3, #0]
 8002500:	b25b      	sxtb	r3, r3
 8002502:	2b07      	cmp	r3, #7
 8002504:	d123      	bne.n	800254e <main+0x4be>
				//						lcd_clear();
				//						page_2_print();
				//					}
				//					update_screen_data_2();

				if (pg2_fc == 0)
 8002506:	4b46      	ldr	r3, [pc, #280]	; (8002620 <main+0x590>)
 8002508:	781b      	ldrb	r3, [r3, #0]
 800250a:	2b00      	cmp	r3, #0
 800250c:	d10d      	bne.n	800252a <main+0x49a>
				{
					//						lcd_clear();
					if (last_pg != 2)
 800250e:	4b45      	ldr	r3, [pc, #276]	; (8002624 <main+0x594>)
 8002510:	781b      	ldrb	r3, [r3, #0]
 8002512:	2b02      	cmp	r3, #2
 8002514:	d003      	beq.n	800251e <main+0x48e>
					{
						lcd_clear();
 8002516:	f7fe fbb7 	bl	8000c88 <lcd_clear>
						page_2_print();
 800251a:	f7fe ff45 	bl	80013a8 <page_2_print>
					}

					last_pg = 2;
 800251e:	4b41      	ldr	r3, [pc, #260]	; (8002624 <main+0x594>)
 8002520:	2202      	movs	r2, #2
 8002522:	701a      	strb	r2, [r3, #0]
					update_screen_data_2();
 8002524:	f7ff f804 	bl	8001530 <update_screen_data_2>
 8002528:	e046      	b.n	80025b8 <main+0x528>
				}
				else if (pg2_fc == 1)
 800252a:	4b3d      	ldr	r3, [pc, #244]	; (8002620 <main+0x590>)
 800252c:	781b      	ldrb	r3, [r3, #0]
 800252e:	2b01      	cmp	r3, #1
 8002530:	d142      	bne.n	80025b8 <main+0x528>
				{
					//						lcd_clear();
					if (last_pg != 3)
 8002532:	4b3c      	ldr	r3, [pc, #240]	; (8002624 <main+0x594>)
 8002534:	781b      	ldrb	r3, [r3, #0]
 8002536:	2b03      	cmp	r3, #3
 8002538:	d006      	beq.n	8002548 <main+0x4b8>
					{
						lcd_clear();
 800253a:	f7fe fba5 	bl	8000c88 <lcd_clear>
						page_3_print();
 800253e:	f7fe ff49 	bl	80013d4 <page_3_print>
						last_pg = 3;
 8002542:	4b38      	ldr	r3, [pc, #224]	; (8002624 <main+0x594>)
 8002544:	2203      	movs	r2, #3
 8002546:	701a      	strb	r2, [r3, #0]
					}
					//						lcd_clear();
					//						page_3_print();

					update_screen_data_3();
 8002548:	f7ff f80c 	bl	8001564 <update_screen_data_3>
 800254c:	e034      	b.n	80025b8 <main+0x528>
				}

				//					sprintf(buffers, "%02d", current_pos.position_cursor);
				//					lcd_puts(3, 16, (int8_t *)buffers);
			}
			else if ((current_pos.position_cursor >= 1) || (current_pos.position_cursor <= 6))
 800254e:	4b31      	ldr	r3, [pc, #196]	; (8002614 <main+0x584>)
 8002550:	781b      	ldrb	r3, [r3, #0]
 8002552:	b25b      	sxtb	r3, r3
 8002554:	2b00      	cmp	r3, #0
 8002556:	dc04      	bgt.n	8002562 <main+0x4d2>
 8002558:	4b2e      	ldr	r3, [pc, #184]	; (8002614 <main+0x584>)
 800255a:	781b      	ldrb	r3, [r3, #0]
 800255c:	b25b      	sxtb	r3, r3
 800255e:	2b06      	cmp	r3, #6
 8002560:	dc2a      	bgt.n	80025b8 <main+0x528>
			{
				if (pg2_fc == 0)
 8002562:	4b2f      	ldr	r3, [pc, #188]	; (8002620 <main+0x590>)
 8002564:	781b      	ldrb	r3, [r3, #0]
 8002566:	2b00      	cmp	r3, #0
 8002568:	d10d      	bne.n	8002586 <main+0x4f6>
				{

					if (last_pg != 1)
 800256a:	4b2e      	ldr	r3, [pc, #184]	; (8002624 <main+0x594>)
 800256c:	781b      	ldrb	r3, [r3, #0]
 800256e:	2b01      	cmp	r3, #1
 8002570:	d003      	beq.n	800257a <main+0x4ea>
					{
						lcd_clear();
 8002572:	f7fe fb89 	bl	8000c88 <lcd_clear>
						page1_print();
 8002576:	f7ff fc75 	bl	8001e64 <page1_print>
					}

					last_pg = 1;
 800257a:	4b2a      	ldr	r3, [pc, #168]	; (8002624 <main+0x594>)
 800257c:	2201      	movs	r2, #1
 800257e:	701a      	strb	r2, [r3, #0]
					update_screen_data();
 8002580:	f7ff f978 	bl	8001874 <update_screen_data>
 8002584:	e018      	b.n	80025b8 <main+0x528>

					//					sprintf(buffers, "%02d", current_pos.position_cursor);
					//				lcd_puts(2, 16, (int8_t *)buffers);
				}

				else if (pg2_fc == 1)
 8002586:	4b26      	ldr	r3, [pc, #152]	; (8002620 <main+0x590>)
 8002588:	781b      	ldrb	r3, [r3, #0]
 800258a:	2b01      	cmp	r3, #1
 800258c:	d114      	bne.n	80025b8 <main+0x528>
				{
					if (current_pos.position_cursor > 3)
 800258e:	4b21      	ldr	r3, [pc, #132]	; (8002614 <main+0x584>)
 8002590:	781b      	ldrb	r3, [r3, #0]
 8002592:	b25b      	sxtb	r3, r3
 8002594:	2b03      	cmp	r3, #3
 8002596:	dd02      	ble.n	800259e <main+0x50e>
					{
						current_pos.position_cursor = 7;
 8002598:	4b1e      	ldr	r3, [pc, #120]	; (8002614 <main+0x584>)
 800259a:	2207      	movs	r2, #7
 800259c:	701a      	strb	r2, [r3, #0]
					}

					if (last_pg != 3)
 800259e:	4b21      	ldr	r3, [pc, #132]	; (8002624 <main+0x594>)
 80025a0:	781b      	ldrb	r3, [r3, #0]
 80025a2:	2b03      	cmp	r3, #3
 80025a4:	d003      	beq.n	80025ae <main+0x51e>
					{
						lcd_clear();
 80025a6:	f7fe fb6f 	bl	8000c88 <lcd_clear>
						page_3_print();
 80025aa:	f7fe ff13 	bl	80013d4 <page_3_print>
					}

					last_pg = 3;
 80025ae:	4b1d      	ldr	r3, [pc, #116]	; (8002624 <main+0x594>)
 80025b0:	2203      	movs	r2, #3
 80025b2:	701a      	strb	r2, [r3, #0]
					update_screen_data_3();
 80025b4:	f7fe ffd6 	bl	8001564 <update_screen_data_3>
					//					sprintf(buffers, "%02d", current_pos.position_cursor);
					//					lcd_puts(3, 16, (int8_t *)buffers);
				}
			}

			interrupt_reg.update_data = 0;
 80025b8:	4a15      	ldr	r2, [pc, #84]	; (8002610 <main+0x580>)
 80025ba:	7813      	ldrb	r3, [r2, #0]
 80025bc:	2120      	movs	r1, #32
 80025be:	438b      	bics	r3, r1
 80025c0:	7013      	strb	r3, [r2, #0]
		}

		if (page_change_flag)
 80025c2:	240f      	movs	r4, #15
 80025c4:	193b      	adds	r3, r7, r4
 80025c6:	781b      	ldrb	r3, [r3, #0]
 80025c8:	2b00      	cmp	r3, #0
 80025ca:	d01b      	beq.n	8002604 <main+0x574>
		{
			clock_page();
 80025cc:	f7fe fb66 	bl	8000c9c <clock_page>
			Total_Time_Print(tt_cnt); // tt_cnt timer_intrupt
 80025d0:	4b15      	ldr	r3, [pc, #84]	; (8002628 <main+0x598>)
 80025d2:	681b      	ldr	r3, [r3, #0]
 80025d4:	0018      	movs	r0, r3
 80025d6:	f7fe fb89 	bl	8000cec <Total_Time_Print>
			HAL_Delay(5000);
 80025da:	4b14      	ldr	r3, [pc, #80]	; (800262c <main+0x59c>)
 80025dc:	0018      	movs	r0, r3
 80025de:	f000 fc43 	bl	8002e68 <HAL_Delay>
			lcd_clear();
 80025e2:	f7fe fb51 	bl	8000c88 <lcd_clear>
			page1_print();
 80025e6:	f7ff fc3d 	bl	8001e64 <page1_print>
			page_change_flag = 0;
 80025ea:	193b      	adds	r3, r7, r4
 80025ec:	2200      	movs	r2, #0
 80025ee:	701a      	strb	r2, [r3, #0]
			interrupt_reg.update_data = 0;
 80025f0:	4a07      	ldr	r2, [pc, #28]	; (8002610 <main+0x580>)
 80025f2:	7813      	ldrb	r3, [r2, #0]
 80025f4:	2120      	movs	r1, #32
 80025f6:	438b      	bics	r3, r1
 80025f8:	7013      	strb	r3, [r2, #0]
			interrupt_reg.key_flag = 0;
 80025fa:	4a05      	ldr	r2, [pc, #20]	; (8002610 <main+0x580>)
 80025fc:	7813      	ldrb	r3, [r2, #0]
 80025fe:	2101      	movs	r1, #1
 8002600:	438b      	bics	r3, r1
 8002602:	7013      	strb	r3, [r2, #0]
		}
		HAL_Delay(100);
 8002604:	2064      	movs	r0, #100	; 0x64
 8002606:	f000 fc2f 	bl	8002e68 <HAL_Delay>
		if (HAL_GPIO_ReadPin(S_PRV_GPIO_Port, S_PRV_Pin) == 0)
 800260a:	e59c      	b.n	8002146 <main+0xb6>
 800260c:	08006390 	.word	0x08006390
 8002610:	200000b0 	.word	0x200000b0
 8002614:	20000004 	.word	0x20000004
 8002618:	200000ac 	.word	0x200000ac
 800261c:	20000008 	.word	0x20000008
 8002620:	2000009f 	.word	0x2000009f
 8002624:	2000009e 	.word	0x2000009e
 8002628:	200000a4 	.word	0x200000a4
 800262c:	00001388 	.word	0x00001388

08002630 <SystemClock_Config>:
/**
 * @brief System Clock Configuration
 * @retval None
 */
void SystemClock_Config(void)
{
 8002630:	b590      	push	{r4, r7, lr}
 8002632:	b095      	sub	sp, #84	; 0x54
 8002634:	af00      	add	r7, sp, #0
	RCC_OscInitTypeDef RCC_OscInitStruct = {0};
 8002636:	2420      	movs	r4, #32
 8002638:	193b      	adds	r3, r7, r4
 800263a:	0018      	movs	r0, r3
 800263c:	2330      	movs	r3, #48	; 0x30
 800263e:	001a      	movs	r2, r3
 8002640:	2100      	movs	r1, #0
 8002642:	f003 f9af 	bl	80059a4 <memset>
	RCC_ClkInitTypeDef RCC_ClkInitStruct = {0};
 8002646:	2310      	movs	r3, #16
 8002648:	18fb      	adds	r3, r7, r3
 800264a:	0018      	movs	r0, r3
 800264c:	2310      	movs	r3, #16
 800264e:	001a      	movs	r2, r3
 8002650:	2100      	movs	r1, #0
 8002652:	f003 f9a7 	bl	80059a4 <memset>
	RCC_PeriphCLKInitTypeDef PeriphClkInit = {0};
 8002656:	003b      	movs	r3, r7
 8002658:	0018      	movs	r0, r3
 800265a:	2310      	movs	r3, #16
 800265c:	001a      	movs	r2, r3
 800265e:	2100      	movs	r1, #0
 8002660:	f003 f9a0 	bl	80059a4 <memset>

	/** Initializes the RCC Oscillators according to the specified parameters
	 * in the RCC_OscInitTypeDef structure.
	 */
	RCC_OscInitStruct.OscillatorType = RCC_OSCILLATORTYPE_HSI;
 8002664:	0021      	movs	r1, r4
 8002666:	187b      	adds	r3, r7, r1
 8002668:	2202      	movs	r2, #2
 800266a:	601a      	str	r2, [r3, #0]
	RCC_OscInitStruct.HSIState = RCC_HSI_ON;
 800266c:	187b      	adds	r3, r7, r1
 800266e:	2201      	movs	r2, #1
 8002670:	60da      	str	r2, [r3, #12]
	RCC_OscInitStruct.HSICalibrationValue = RCC_HSICALIBRATION_DEFAULT;
 8002672:	187b      	adds	r3, r7, r1
 8002674:	2210      	movs	r2, #16
 8002676:	611a      	str	r2, [r3, #16]
	RCC_OscInitStruct.PLL.PLLState = RCC_PLL_ON;
 8002678:	187b      	adds	r3, r7, r1
 800267a:	2202      	movs	r2, #2
 800267c:	621a      	str	r2, [r3, #32]
	RCC_OscInitStruct.PLL.PLLSource = RCC_PLLSOURCE_HSI;
 800267e:	187b      	adds	r3, r7, r1
 8002680:	2200      	movs	r2, #0
 8002682:	625a      	str	r2, [r3, #36]	; 0x24
	RCC_OscInitStruct.PLL.PLLMUL = RCC_PLL_MUL8;
 8002684:	187b      	adds	r3, r7, r1
 8002686:	22c0      	movs	r2, #192	; 0xc0
 8002688:	0352      	lsls	r2, r2, #13
 800268a:	629a      	str	r2, [r3, #40]	; 0x28
	RCC_OscInitStruct.PLL.PREDIV = RCC_PREDIV_DIV1;
 800268c:	187b      	adds	r3, r7, r1
 800268e:	2200      	movs	r2, #0
 8002690:	62da      	str	r2, [r3, #44]	; 0x2c
	if (HAL_RCC_OscConfig(&RCC_OscInitStruct) != HAL_OK)
 8002692:	187b      	adds	r3, r7, r1
 8002694:	0018      	movs	r0, r3
 8002696:	f001 fd39 	bl	800410c <HAL_RCC_OscConfig>
 800269a:	1e03      	subs	r3, r0, #0
 800269c:	d001      	beq.n	80026a2 <SystemClock_Config+0x72>
	{
		Error_Handler();
 800269e:	f000 f999 	bl	80029d4 <Error_Handler>
	}

	/** Initializes the CPU, AHB and APB buses clocks
	 */
	RCC_ClkInitStruct.ClockType = RCC_CLOCKTYPE_HCLK | RCC_CLOCKTYPE_SYSCLK | RCC_CLOCKTYPE_PCLK1;
 80026a2:	2110      	movs	r1, #16
 80026a4:	187b      	adds	r3, r7, r1
 80026a6:	2207      	movs	r2, #7
 80026a8:	601a      	str	r2, [r3, #0]
	RCC_ClkInitStruct.SYSCLKSource = RCC_SYSCLKSOURCE_PLLCLK;
 80026aa:	187b      	adds	r3, r7, r1
 80026ac:	2202      	movs	r2, #2
 80026ae:	605a      	str	r2, [r3, #4]
	RCC_ClkInitStruct.AHBCLKDivider = RCC_SYSCLK_DIV1;
 80026b0:	187b      	adds	r3, r7, r1
 80026b2:	2200      	movs	r2, #0
 80026b4:	609a      	str	r2, [r3, #8]
	RCC_ClkInitStruct.APB1CLKDivider = RCC_HCLK_DIV1;
 80026b6:	187b      	adds	r3, r7, r1
 80026b8:	2200      	movs	r2, #0
 80026ba:	60da      	str	r2, [r3, #12]

	if (HAL_RCC_ClockConfig(&RCC_ClkInitStruct, FLASH_LATENCY_1) != HAL_OK)
 80026bc:	187b      	adds	r3, r7, r1
 80026be:	2101      	movs	r1, #1
 80026c0:	0018      	movs	r0, r3
 80026c2:	f002 f83d 	bl	8004740 <HAL_RCC_ClockConfig>
 80026c6:	1e03      	subs	r3, r0, #0
 80026c8:	d001      	beq.n	80026ce <SystemClock_Config+0x9e>
	{
		Error_Handler();
 80026ca:	f000 f983 	bl	80029d4 <Error_Handler>
	}
	PeriphClkInit.PeriphClockSelection = RCC_PERIPHCLK_USART1 | RCC_PERIPHCLK_I2C1;
 80026ce:	003b      	movs	r3, r7
 80026d0:	2221      	movs	r2, #33	; 0x21
 80026d2:	601a      	str	r2, [r3, #0]
	PeriphClkInit.Usart1ClockSelection = RCC_USART1CLKSOURCE_PCLK1;
 80026d4:	003b      	movs	r3, r7
 80026d6:	2200      	movs	r2, #0
 80026d8:	609a      	str	r2, [r3, #8]
	PeriphClkInit.I2c1ClockSelection = RCC_I2C1CLKSOURCE_HSI;
 80026da:	003b      	movs	r3, r7
 80026dc:	2200      	movs	r2, #0
 80026de:	60da      	str	r2, [r3, #12]
	if (HAL_RCCEx_PeriphCLKConfig(&PeriphClkInit) != HAL_OK)
 80026e0:	003b      	movs	r3, r7
 80026e2:	0018      	movs	r0, r3
 80026e4:	f002 f970 	bl	80049c8 <HAL_RCCEx_PeriphCLKConfig>
 80026e8:	1e03      	subs	r3, r0, #0
 80026ea:	d001      	beq.n	80026f0 <SystemClock_Config+0xc0>
	{
		Error_Handler();
 80026ec:	f000 f972 	bl	80029d4 <Error_Handler>
	}
}
 80026f0:	46c0      	nop			; (mov r8, r8)
 80026f2:	46bd      	mov	sp, r7
 80026f4:	b015      	add	sp, #84	; 0x54
 80026f6:	bd90      	pop	{r4, r7, pc}

080026f8 <MX_I2C1_Init>:
 * @brief I2C1 Initialization Function
 * @param None
 * @retval None
 */
static void MX_I2C1_Init(void)
{
 80026f8:	b580      	push	{r7, lr}
 80026fa:	af00      	add	r7, sp, #0
	/* USER CODE END I2C1_Init 0 */

	/* USER CODE BEGIN I2C1_Init 1 */

	/* USER CODE END I2C1_Init 1 */
	hi2c1.Instance = I2C1;
 80026fc:	4b1b      	ldr	r3, [pc, #108]	; (800276c <MX_I2C1_Init+0x74>)
 80026fe:	4a1c      	ldr	r2, [pc, #112]	; (8002770 <MX_I2C1_Init+0x78>)
 8002700:	601a      	str	r2, [r3, #0]
	hi2c1.Init.Timing = 0x0000020B;
 8002702:	4b1a      	ldr	r3, [pc, #104]	; (800276c <MX_I2C1_Init+0x74>)
 8002704:	4a1b      	ldr	r2, [pc, #108]	; (8002774 <MX_I2C1_Init+0x7c>)
 8002706:	605a      	str	r2, [r3, #4]
	hi2c1.Init.OwnAddress1 = 0;
 8002708:	4b18      	ldr	r3, [pc, #96]	; (800276c <MX_I2C1_Init+0x74>)
 800270a:	2200      	movs	r2, #0
 800270c:	609a      	str	r2, [r3, #8]
	hi2c1.Init.AddressingMode = I2C_ADDRESSINGMODE_7BIT;
 800270e:	4b17      	ldr	r3, [pc, #92]	; (800276c <MX_I2C1_Init+0x74>)
 8002710:	2201      	movs	r2, #1
 8002712:	60da      	str	r2, [r3, #12]
	hi2c1.Init.DualAddressMode = I2C_DUALADDRESS_DISABLE;
 8002714:	4b15      	ldr	r3, [pc, #84]	; (800276c <MX_I2C1_Init+0x74>)
 8002716:	2200      	movs	r2, #0
 8002718:	611a      	str	r2, [r3, #16]
	hi2c1.Init.OwnAddress2 = 0;
 800271a:	4b14      	ldr	r3, [pc, #80]	; (800276c <MX_I2C1_Init+0x74>)
 800271c:	2200      	movs	r2, #0
 800271e:	615a      	str	r2, [r3, #20]
	hi2c1.Init.OwnAddress2Masks = I2C_OA2_NOMASK;
 8002720:	4b12      	ldr	r3, [pc, #72]	; (800276c <MX_I2C1_Init+0x74>)
 8002722:	2200      	movs	r2, #0
 8002724:	619a      	str	r2, [r3, #24]
	hi2c1.Init.GeneralCallMode = I2C_GENERALCALL_DISABLE;
 8002726:	4b11      	ldr	r3, [pc, #68]	; (800276c <MX_I2C1_Init+0x74>)
 8002728:	2200      	movs	r2, #0
 800272a:	61da      	str	r2, [r3, #28]
	hi2c1.Init.NoStretchMode = I2C_NOSTRETCH_DISABLE;
 800272c:	4b0f      	ldr	r3, [pc, #60]	; (800276c <MX_I2C1_Init+0x74>)
 800272e:	2200      	movs	r2, #0
 8002730:	621a      	str	r2, [r3, #32]
	if (HAL_I2C_Init(&hi2c1) != HAL_OK)
 8002732:	4b0e      	ldr	r3, [pc, #56]	; (800276c <MX_I2C1_Init+0x74>)
 8002734:	0018      	movs	r0, r3
 8002736:	f000 fe5f 	bl	80033f8 <HAL_I2C_Init>
 800273a:	1e03      	subs	r3, r0, #0
 800273c:	d001      	beq.n	8002742 <MX_I2C1_Init+0x4a>
	{
		Error_Handler();
 800273e:	f000 f949 	bl	80029d4 <Error_Handler>
	}

	/** Configure Analogue filter
	 */
	if (HAL_I2CEx_ConfigAnalogFilter(&hi2c1, I2C_ANALOGFILTER_ENABLE) != HAL_OK)
 8002742:	4b0a      	ldr	r3, [pc, #40]	; (800276c <MX_I2C1_Init+0x74>)
 8002744:	2100      	movs	r1, #0
 8002746:	0018      	movs	r0, r3
 8002748:	f001 fc48 	bl	8003fdc <HAL_I2CEx_ConfigAnalogFilter>
 800274c:	1e03      	subs	r3, r0, #0
 800274e:	d001      	beq.n	8002754 <MX_I2C1_Init+0x5c>
	{
		Error_Handler();
 8002750:	f000 f940 	bl	80029d4 <Error_Handler>
	}

	/** Configure Digital filter
	 */
	if (HAL_I2CEx_ConfigDigitalFilter(&hi2c1, 0) != HAL_OK)
 8002754:	4b05      	ldr	r3, [pc, #20]	; (800276c <MX_I2C1_Init+0x74>)
 8002756:	2100      	movs	r1, #0
 8002758:	0018      	movs	r0, r3
 800275a:	f001 fc8b 	bl	8004074 <HAL_I2CEx_ConfigDigitalFilter>
 800275e:	1e03      	subs	r3, r0, #0
 8002760:	d001      	beq.n	8002766 <MX_I2C1_Init+0x6e>
	{
		Error_Handler();
 8002762:	f000 f937 	bl	80029d4 <Error_Handler>
	}
	/* USER CODE BEGIN I2C1_Init 2 */

	/* USER CODE END I2C1_Init 2 */
}
 8002766:	46c0      	nop			; (mov r8, r8)
 8002768:	46bd      	mov	sp, r7
 800276a:	bd80      	pop	{r7, pc}
 800276c:	200000b4 	.word	0x200000b4
 8002770:	40005400 	.word	0x40005400
 8002774:	0000020b 	.word	0x0000020b

08002778 <MX_TIM6_Init>:
 * @brief TIM6 Initialization Function
 * @param None
 * @retval None
 */
static void MX_TIM6_Init(void)
{
 8002778:	b580      	push	{r7, lr}
 800277a:	af00      	add	r7, sp, #0
	/* USER CODE END TIM6_Init 0 */

	/* USER CODE BEGIN TIM6_Init 1 */

	/* USER CODE END TIM6_Init 1 */
	htim6.Instance = TIM6;
 800277c:	4b0c      	ldr	r3, [pc, #48]	; (80027b0 <MX_TIM6_Init+0x38>)
 800277e:	4a0d      	ldr	r2, [pc, #52]	; (80027b4 <MX_TIM6_Init+0x3c>)
 8002780:	601a      	str	r2, [r3, #0]
	htim6.Init.Prescaler = 32000 - 1;
 8002782:	4b0b      	ldr	r3, [pc, #44]	; (80027b0 <MX_TIM6_Init+0x38>)
 8002784:	4a0c      	ldr	r2, [pc, #48]	; (80027b8 <MX_TIM6_Init+0x40>)
 8002786:	605a      	str	r2, [r3, #4]
	htim6.Init.CounterMode = TIM_COUNTERMODE_UP;
 8002788:	4b09      	ldr	r3, [pc, #36]	; (80027b0 <MX_TIM6_Init+0x38>)
 800278a:	2200      	movs	r2, #0
 800278c:	609a      	str	r2, [r3, #8]
	htim6.Init.Period = 1000 - 1;
 800278e:	4b08      	ldr	r3, [pc, #32]	; (80027b0 <MX_TIM6_Init+0x38>)
 8002790:	4a0a      	ldr	r2, [pc, #40]	; (80027bc <MX_TIM6_Init+0x44>)
 8002792:	60da      	str	r2, [r3, #12]
	htim6.Init.AutoReloadPreload = TIM_AUTORELOAD_PRELOAD_ENABLE;
 8002794:	4b06      	ldr	r3, [pc, #24]	; (80027b0 <MX_TIM6_Init+0x38>)
 8002796:	2280      	movs	r2, #128	; 0x80
 8002798:	619a      	str	r2, [r3, #24]
	if (HAL_TIM_Base_Init(&htim6) != HAL_OK)
 800279a:	4b05      	ldr	r3, [pc, #20]	; (80027b0 <MX_TIM6_Init+0x38>)
 800279c:	0018      	movs	r0, r3
 800279e:	f002 f9e1 	bl	8004b64 <HAL_TIM_Base_Init>
 80027a2:	1e03      	subs	r3, r0, #0
 80027a4:	d001      	beq.n	80027aa <MX_TIM6_Init+0x32>
	{
		Error_Handler();
 80027a6:	f000 f915 	bl	80029d4 <Error_Handler>
	}
	/* USER CODE BEGIN TIM6_Init 2 */

	/* USER CODE END TIM6_Init 2 */
}
 80027aa:	46c0      	nop			; (mov r8, r8)
 80027ac:	46bd      	mov	sp, r7
 80027ae:	bd80      	pop	{r7, pc}
 80027b0:	20000108 	.word	0x20000108
 80027b4:	40001000 	.word	0x40001000
 80027b8:	00007cff 	.word	0x00007cff
 80027bc:	000003e7 	.word	0x000003e7

080027c0 <MX_TIM14_Init>:
 * @brief TIM14 Initialization Function
 * @param None
 * @retval None
 */
static void MX_TIM14_Init(void)
{
 80027c0:	b580      	push	{r7, lr}
 80027c2:	af00      	add	r7, sp, #0
	/* USER CODE END TIM14_Init 0 */

	/* USER CODE BEGIN TIM14_Init 1 */

	/* USER CODE END TIM14_Init 1 */
	htim14.Instance = TIM14;
 80027c4:	4b0e      	ldr	r3, [pc, #56]	; (8002800 <MX_TIM14_Init+0x40>)
 80027c6:	4a0f      	ldr	r2, [pc, #60]	; (8002804 <MX_TIM14_Init+0x44>)
 80027c8:	601a      	str	r2, [r3, #0]
	htim14.Init.Prescaler = 32000 - 1;
 80027ca:	4b0d      	ldr	r3, [pc, #52]	; (8002800 <MX_TIM14_Init+0x40>)
 80027cc:	4a0e      	ldr	r2, [pc, #56]	; (8002808 <MX_TIM14_Init+0x48>)
 80027ce:	605a      	str	r2, [r3, #4]
	htim14.Init.CounterMode = TIM_COUNTERMODE_UP;
 80027d0:	4b0b      	ldr	r3, [pc, #44]	; (8002800 <MX_TIM14_Init+0x40>)
 80027d2:	2200      	movs	r2, #0
 80027d4:	609a      	str	r2, [r3, #8]
	htim14.Init.Period = 3000;
 80027d6:	4b0a      	ldr	r3, [pc, #40]	; (8002800 <MX_TIM14_Init+0x40>)
 80027d8:	4a0c      	ldr	r2, [pc, #48]	; (800280c <MX_TIM14_Init+0x4c>)
 80027da:	60da      	str	r2, [r3, #12]
	htim14.Init.ClockDivision = TIM_CLOCKDIVISION_DIV1;
 80027dc:	4b08      	ldr	r3, [pc, #32]	; (8002800 <MX_TIM14_Init+0x40>)
 80027de:	2200      	movs	r2, #0
 80027e0:	611a      	str	r2, [r3, #16]
	htim14.Init.AutoReloadPreload = TIM_AUTORELOAD_PRELOAD_DISABLE;
 80027e2:	4b07      	ldr	r3, [pc, #28]	; (8002800 <MX_TIM14_Init+0x40>)
 80027e4:	2200      	movs	r2, #0
 80027e6:	619a      	str	r2, [r3, #24]
	if (HAL_TIM_Base_Init(&htim14) != HAL_OK)
 80027e8:	4b05      	ldr	r3, [pc, #20]	; (8002800 <MX_TIM14_Init+0x40>)
 80027ea:	0018      	movs	r0, r3
 80027ec:	f002 f9ba 	bl	8004b64 <HAL_TIM_Base_Init>
 80027f0:	1e03      	subs	r3, r0, #0
 80027f2:	d001      	beq.n	80027f8 <MX_TIM14_Init+0x38>
	{
		Error_Handler();
 80027f4:	f000 f8ee 	bl	80029d4 <Error_Handler>
	}
	/* USER CODE BEGIN TIM14_Init 2 */

	/* USER CODE END TIM14_Init 2 */
}
 80027f8:	46c0      	nop			; (mov r8, r8)
 80027fa:	46bd      	mov	sp, r7
 80027fc:	bd80      	pop	{r7, pc}
 80027fe:	46c0      	nop			; (mov r8, r8)
 8002800:	20000150 	.word	0x20000150
 8002804:	40002000 	.word	0x40002000
 8002808:	00007cff 	.word	0x00007cff
 800280c:	00000bb8 	.word	0x00000bb8

08002810 <MX_USART1_UART_Init>:
 * @brief USART1 Initialization Function
 * @param None
 * @retval None
 */
static void MX_USART1_UART_Init(void)
{
 8002810:	b580      	push	{r7, lr}
 8002812:	af00      	add	r7, sp, #0
	/* USER CODE END USART1_Init 0 */

	/* USER CODE BEGIN USART1_Init 1 */

	/* USER CODE END USART1_Init 1 */
	huart1.Instance = USART1;
 8002814:	4b15      	ldr	r3, [pc, #84]	; (800286c <MX_USART1_UART_Init+0x5c>)
 8002816:	4a16      	ldr	r2, [pc, #88]	; (8002870 <MX_USART1_UART_Init+0x60>)
 8002818:	601a      	str	r2, [r3, #0]
	huart1.Init.BaudRate = 9600;
 800281a:	4b14      	ldr	r3, [pc, #80]	; (800286c <MX_USART1_UART_Init+0x5c>)
 800281c:	2296      	movs	r2, #150	; 0x96
 800281e:	0192      	lsls	r2, r2, #6
 8002820:	605a      	str	r2, [r3, #4]
	huart1.Init.WordLength = UART_WORDLENGTH_8B;
 8002822:	4b12      	ldr	r3, [pc, #72]	; (800286c <MX_USART1_UART_Init+0x5c>)
 8002824:	2200      	movs	r2, #0
 8002826:	609a      	str	r2, [r3, #8]
	huart1.Init.StopBits = UART_STOPBITS_1;
 8002828:	4b10      	ldr	r3, [pc, #64]	; (800286c <MX_USART1_UART_Init+0x5c>)
 800282a:	2200      	movs	r2, #0
 800282c:	60da      	str	r2, [r3, #12]
	huart1.Init.Parity = UART_PARITY_NONE;
 800282e:	4b0f      	ldr	r3, [pc, #60]	; (800286c <MX_USART1_UART_Init+0x5c>)
 8002830:	2200      	movs	r2, #0
 8002832:	611a      	str	r2, [r3, #16]
	huart1.Init.Mode = UART_MODE_TX_RX;
 8002834:	4b0d      	ldr	r3, [pc, #52]	; (800286c <MX_USART1_UART_Init+0x5c>)
 8002836:	220c      	movs	r2, #12
 8002838:	615a      	str	r2, [r3, #20]
	huart1.Init.HwFlowCtl = UART_HWCONTROL_NONE;
 800283a:	4b0c      	ldr	r3, [pc, #48]	; (800286c <MX_USART1_UART_Init+0x5c>)
 800283c:	2200      	movs	r2, #0
 800283e:	619a      	str	r2, [r3, #24]
	huart1.Init.OverSampling = UART_OVERSAMPLING_16;
 8002840:	4b0a      	ldr	r3, [pc, #40]	; (800286c <MX_USART1_UART_Init+0x5c>)
 8002842:	2200      	movs	r2, #0
 8002844:	61da      	str	r2, [r3, #28]
	huart1.Init.OneBitSampling = UART_ONE_BIT_SAMPLE_DISABLE;
 8002846:	4b09      	ldr	r3, [pc, #36]	; (800286c <MX_USART1_UART_Init+0x5c>)
 8002848:	2200      	movs	r2, #0
 800284a:	621a      	str	r2, [r3, #32]
	huart1.AdvancedInit.AdvFeatureInit = UART_ADVFEATURE_NO_INIT;
 800284c:	4b07      	ldr	r3, [pc, #28]	; (800286c <MX_USART1_UART_Init+0x5c>)
 800284e:	2200      	movs	r2, #0
 8002850:	625a      	str	r2, [r3, #36]	; 0x24
	if (HAL_RS485Ex_Init(&huart1, UART_DE_POLARITY_HIGH, 0, 0) != HAL_OK)
 8002852:	4806      	ldr	r0, [pc, #24]	; (800286c <MX_USART1_UART_Init+0x5c>)
 8002854:	2300      	movs	r3, #0
 8002856:	2200      	movs	r2, #0
 8002858:	2100      	movs	r1, #0
 800285a:	f003 f813 	bl	8005884 <HAL_RS485Ex_Init>
 800285e:	1e03      	subs	r3, r0, #0
 8002860:	d001      	beq.n	8002866 <MX_USART1_UART_Init+0x56>
	{
		Error_Handler();
 8002862:	f000 f8b7 	bl	80029d4 <Error_Handler>
	}
	/* USER CODE BEGIN USART1_Init 2 */

	/* USER CODE END USART1_Init 2 */
}
 8002866:	46c0      	nop			; (mov r8, r8)
 8002868:	46bd      	mov	sp, r7
 800286a:	bd80      	pop	{r7, pc}
 800286c:	20000198 	.word	0x20000198
 8002870:	40013800 	.word	0x40013800

08002874 <MX_GPIO_Init>:
 * @brief GPIO Initialization Function
 * @param None
 * @retval None
 */
static void MX_GPIO_Init(void)
{
 8002874:	b590      	push	{r4, r7, lr}
 8002876:	b089      	sub	sp, #36	; 0x24
 8002878:	af00      	add	r7, sp, #0
	GPIO_InitTypeDef GPIO_InitStruct = {0};
 800287a:	240c      	movs	r4, #12
 800287c:	193b      	adds	r3, r7, r4
 800287e:	0018      	movs	r0, r3
 8002880:	2314      	movs	r3, #20
 8002882:	001a      	movs	r2, r3
 8002884:	2100      	movs	r1, #0
 8002886:	f003 f88d 	bl	80059a4 <memset>
	/* USER CODE BEGIN MX_GPIO_Init_1 */
	/* USER CODE END MX_GPIO_Init_1 */

	/* GPIO Ports Clock Enable */
	__HAL_RCC_GPIOF_CLK_ENABLE();
 800288a:	4b4e      	ldr	r3, [pc, #312]	; (80029c4 <MX_GPIO_Init+0x150>)
 800288c:	695a      	ldr	r2, [r3, #20]
 800288e:	4b4d      	ldr	r3, [pc, #308]	; (80029c4 <MX_GPIO_Init+0x150>)
 8002890:	2180      	movs	r1, #128	; 0x80
 8002892:	03c9      	lsls	r1, r1, #15
 8002894:	430a      	orrs	r2, r1
 8002896:	615a      	str	r2, [r3, #20]
 8002898:	4b4a      	ldr	r3, [pc, #296]	; (80029c4 <MX_GPIO_Init+0x150>)
 800289a:	695a      	ldr	r2, [r3, #20]
 800289c:	2380      	movs	r3, #128	; 0x80
 800289e:	03db      	lsls	r3, r3, #15
 80028a0:	4013      	ands	r3, r2
 80028a2:	60bb      	str	r3, [r7, #8]
 80028a4:	68bb      	ldr	r3, [r7, #8]
	__HAL_RCC_GPIOA_CLK_ENABLE();
 80028a6:	4b47      	ldr	r3, [pc, #284]	; (80029c4 <MX_GPIO_Init+0x150>)
 80028a8:	695a      	ldr	r2, [r3, #20]
 80028aa:	4b46      	ldr	r3, [pc, #280]	; (80029c4 <MX_GPIO_Init+0x150>)
 80028ac:	2180      	movs	r1, #128	; 0x80
 80028ae:	0289      	lsls	r1, r1, #10
 80028b0:	430a      	orrs	r2, r1
 80028b2:	615a      	str	r2, [r3, #20]
 80028b4:	4b43      	ldr	r3, [pc, #268]	; (80029c4 <MX_GPIO_Init+0x150>)
 80028b6:	695a      	ldr	r2, [r3, #20]
 80028b8:	2380      	movs	r3, #128	; 0x80
 80028ba:	029b      	lsls	r3, r3, #10
 80028bc:	4013      	ands	r3, r2
 80028be:	607b      	str	r3, [r7, #4]
 80028c0:	687b      	ldr	r3, [r7, #4]
	__HAL_RCC_GPIOB_CLK_ENABLE();
 80028c2:	4b40      	ldr	r3, [pc, #256]	; (80029c4 <MX_GPIO_Init+0x150>)
 80028c4:	695a      	ldr	r2, [r3, #20]
 80028c6:	4b3f      	ldr	r3, [pc, #252]	; (80029c4 <MX_GPIO_Init+0x150>)
 80028c8:	2180      	movs	r1, #128	; 0x80
 80028ca:	02c9      	lsls	r1, r1, #11
 80028cc:	430a      	orrs	r2, r1
 80028ce:	615a      	str	r2, [r3, #20]
 80028d0:	4b3c      	ldr	r3, [pc, #240]	; (80029c4 <MX_GPIO_Init+0x150>)
 80028d2:	695a      	ldr	r2, [r3, #20]
 80028d4:	2380      	movs	r3, #128	; 0x80
 80028d6:	02db      	lsls	r3, r3, #11
 80028d8:	4013      	ands	r3, r2
 80028da:	603b      	str	r3, [r7, #0]
 80028dc:	683b      	ldr	r3, [r7, #0]

	/*Configure GPIO pin Output Level */
	HAL_GPIO_WritePin(GPIOA, D4_Pin | D5_Pin | D6_Pin | D7_Pin | E_Pin | RS_Pin | BUZZER_Pin | PA7_Pin | LED2_Pin | LED1_Pin, GPIO_PIN_RESET);
 80028de:	493a      	ldr	r1, [pc, #232]	; (80029c8 <MX_GPIO_Init+0x154>)
 80028e0:	2390      	movs	r3, #144	; 0x90
 80028e2:	05db      	lsls	r3, r3, #23
 80028e4:	2200      	movs	r2, #0
 80028e6:	0018      	movs	r0, r3
 80028e8:	f000 fd4d 	bl	8003386 <HAL_GPIO_WritePin>

	/*Configure GPIO pin Output Level */
	HAL_GPIO_WritePin(GPIOB, PB0_Pin | GPIO_PIN_1 | PB2_Pin | GPIO_PIN_10, GPIO_PIN_RESET);
 80028ec:	4937      	ldr	r1, [pc, #220]	; (80029cc <MX_GPIO_Init+0x158>)
 80028ee:	4b38      	ldr	r3, [pc, #224]	; (80029d0 <MX_GPIO_Init+0x15c>)
 80028f0:	2200      	movs	r2, #0
 80028f2:	0018      	movs	r0, r3
 80028f4:	f000 fd47 	bl	8003386 <HAL_GPIO_WritePin>

	/*Configure GPIO pins : D4_Pin D5_Pin D6_Pin D7_Pin
							 E_Pin RS_Pin BUZZER_Pin PA7_Pin
							 LED2_Pin LED1_Pin */
	GPIO_InitStruct.Pin = D4_Pin | D5_Pin | D6_Pin | D7_Pin | E_Pin | RS_Pin | BUZZER_Pin | PA7_Pin | LED2_Pin | LED1_Pin;
 80028f8:	193b      	adds	r3, r7, r4
 80028fa:	4a33      	ldr	r2, [pc, #204]	; (80029c8 <MX_GPIO_Init+0x154>)
 80028fc:	601a      	str	r2, [r3, #0]
	GPIO_InitStruct.Mode = GPIO_MODE_OUTPUT_PP;
 80028fe:	193b      	adds	r3, r7, r4
 8002900:	2201      	movs	r2, #1
 8002902:	605a      	str	r2, [r3, #4]
	GPIO_InitStruct.Pull = GPIO_NOPULL;
 8002904:	193b      	adds	r3, r7, r4
 8002906:	2200      	movs	r2, #0
 8002908:	609a      	str	r2, [r3, #8]
	GPIO_InitStruct.Speed = GPIO_SPEED_FREQ_LOW;
 800290a:	193b      	adds	r3, r7, r4
 800290c:	2200      	movs	r2, #0
 800290e:	60da      	str	r2, [r3, #12]
	HAL_GPIO_Init(GPIOA, &GPIO_InitStruct);
 8002910:	193a      	adds	r2, r7, r4
 8002912:	2390      	movs	r3, #144	; 0x90
 8002914:	05db      	lsls	r3, r3, #23
 8002916:	0011      	movs	r1, r2
 8002918:	0018      	movs	r0, r3
 800291a:	f000 fba7 	bl	800306c <HAL_GPIO_Init>

	/*Configure GPIO pins : PB0_Pin PB1 PB2_Pin PB10 */
	GPIO_InitStruct.Pin = PB0_Pin | GPIO_PIN_1 | PB2_Pin | GPIO_PIN_10;
 800291e:	193b      	adds	r3, r7, r4
 8002920:	4a2a      	ldr	r2, [pc, #168]	; (80029cc <MX_GPIO_Init+0x158>)
 8002922:	601a      	str	r2, [r3, #0]
	GPIO_InitStruct.Mode = GPIO_MODE_OUTPUT_PP;
 8002924:	193b      	adds	r3, r7, r4
 8002926:	2201      	movs	r2, #1
 8002928:	605a      	str	r2, [r3, #4]
	GPIO_InitStruct.Pull = GPIO_NOPULL;
 800292a:	193b      	adds	r3, r7, r4
 800292c:	2200      	movs	r2, #0
 800292e:	609a      	str	r2, [r3, #8]
	GPIO_InitStruct.Speed = GPIO_SPEED_FREQ_LOW;
 8002930:	193b      	adds	r3, r7, r4
 8002932:	2200      	movs	r2, #0
 8002934:	60da      	str	r2, [r3, #12]
	HAL_GPIO_Init(GPIOB, &GPIO_InitStruct);
 8002936:	193b      	adds	r3, r7, r4
 8002938:	4a25      	ldr	r2, [pc, #148]	; (80029d0 <MX_GPIO_Init+0x15c>)
 800293a:	0019      	movs	r1, r3
 800293c:	0010      	movs	r0, r2
 800293e:	f000 fb95 	bl	800306c <HAL_GPIO_Init>

	/*Configure GPIO pins : S_PRV_Pin S_NEXT_Pin DEPTH_Pin IR_N_Pin
							 CHANGE_N_Pin */
	GPIO_InitStruct.Pin = S_PRV_Pin | S_NEXT_Pin | DEPTH_Pin | IR_N_Pin | CHANGE_N_Pin;
 8002942:	193b      	adds	r3, r7, r4
 8002944:	22f8      	movs	r2, #248	; 0xf8
 8002946:	0212      	lsls	r2, r2, #8
 8002948:	601a      	str	r2, [r3, #0]
	GPIO_InitStruct.Mode = GPIO_MODE_IT_RISING;
 800294a:	193b      	adds	r3, r7, r4
 800294c:	2288      	movs	r2, #136	; 0x88
 800294e:	0352      	lsls	r2, r2, #13
 8002950:	605a      	str	r2, [r3, #4]
	GPIO_InitStruct.Pull = GPIO_NOPULL;
 8002952:	193b      	adds	r3, r7, r4
 8002954:	2200      	movs	r2, #0
 8002956:	609a      	str	r2, [r3, #8]
	HAL_GPIO_Init(GPIOB, &GPIO_InitStruct);
 8002958:	193b      	adds	r3, r7, r4
 800295a:	4a1d      	ldr	r2, [pc, #116]	; (80029d0 <MX_GPIO_Init+0x15c>)
 800295c:	0019      	movs	r1, r3
 800295e:	0010      	movs	r0, r2
 8002960:	f000 fb84 	bl	800306c <HAL_GPIO_Init>

	/*Configure GPIO pin : CHANGE_P_Pin */
	GPIO_InitStruct.Pin = CHANGE_P_Pin;
 8002964:	193b      	adds	r3, r7, r4
 8002966:	2280      	movs	r2, #128	; 0x80
 8002968:	00d2      	lsls	r2, r2, #3
 800296a:	601a      	str	r2, [r3, #0]
	GPIO_InitStruct.Mode = GPIO_MODE_IT_RISING;
 800296c:	193b      	adds	r3, r7, r4
 800296e:	2288      	movs	r2, #136	; 0x88
 8002970:	0352      	lsls	r2, r2, #13
 8002972:	605a      	str	r2, [r3, #4]
	GPIO_InitStruct.Pull = GPIO_NOPULL;
 8002974:	193b      	adds	r3, r7, r4
 8002976:	2200      	movs	r2, #0
 8002978:	609a      	str	r2, [r3, #8]
	HAL_GPIO_Init(CHANGE_P_GPIO_Port, &GPIO_InitStruct);
 800297a:	193a      	adds	r2, r7, r4
 800297c:	2390      	movs	r3, #144	; 0x90
 800297e:	05db      	lsls	r3, r3, #23
 8002980:	0011      	movs	r1, r2
 8002982:	0018      	movs	r0, r3
 8002984:	f000 fb72 	bl	800306c <HAL_GPIO_Init>

	/*Configure GPIO pin : I2C_INT_Pin */
	GPIO_InitStruct.Pin = I2C_INT_Pin;
 8002988:	0021      	movs	r1, r4
 800298a:	187b      	adds	r3, r7, r1
 800298c:	2280      	movs	r2, #128	; 0x80
 800298e:	0212      	lsls	r2, r2, #8
 8002990:	601a      	str	r2, [r3, #0]
	GPIO_InitStruct.Mode = GPIO_MODE_INPUT;
 8002992:	187b      	adds	r3, r7, r1
 8002994:	2200      	movs	r2, #0
 8002996:	605a      	str	r2, [r3, #4]
	GPIO_InitStruct.Pull = GPIO_NOPULL;
 8002998:	187b      	adds	r3, r7, r1
 800299a:	2200      	movs	r2, #0
 800299c:	609a      	str	r2, [r3, #8]
	HAL_GPIO_Init(I2C_INT_GPIO_Port, &GPIO_InitStruct);
 800299e:	187a      	adds	r2, r7, r1
 80029a0:	2390      	movs	r3, #144	; 0x90
 80029a2:	05db      	lsls	r3, r3, #23
 80029a4:	0011      	movs	r1, r2
 80029a6:	0018      	movs	r0, r3
 80029a8:	f000 fb60 	bl	800306c <HAL_GPIO_Init>

	/* EXTI interrupt init*/
	HAL_NVIC_SetPriority(EXTI4_15_IRQn, 0, 0);
 80029ac:	2200      	movs	r2, #0
 80029ae:	2100      	movs	r1, #0
 80029b0:	2007      	movs	r0, #7
 80029b2:	f000 fb29 	bl	8003008 <HAL_NVIC_SetPriority>
	HAL_NVIC_EnableIRQ(EXTI4_15_IRQn);
 80029b6:	2007      	movs	r0, #7
 80029b8:	f000 fb3b 	bl	8003032 <HAL_NVIC_EnableIRQ>

	/* USER CODE BEGIN MX_GPIO_Init_2 */
	/* USER CODE END MX_GPIO_Init_2 */
}
 80029bc:	46c0      	nop			; (mov r8, r8)
 80029be:	46bd      	mov	sp, r7
 80029c0:	b009      	add	sp, #36	; 0x24
 80029c2:	bd90      	pop	{r4, r7, pc}
 80029c4:	40021000 	.word	0x40021000
 80029c8:	000009ff 	.word	0x000009ff
 80029cc:	00000407 	.word	0x00000407
 80029d0:	48000400 	.word	0x48000400

080029d4 <Error_Handler>:
/**
 * @brief  This function is executed in case of error occurrence.
 * @retval None
 */
void Error_Handler(void)
{
 80029d4:	b580      	push	{r7, lr}
 80029d6:	af00      	add	r7, sp, #0
  \details Disables IRQ interrupts by setting the I-bit in the CPSR.
           Can only be executed in Privileged modes.
 */
__STATIC_FORCEINLINE void __disable_irq(void)
{
  __ASM volatile ("cpsid i" : : : "memory");
 80029d8:	b672      	cpsid	i
}
 80029da:	46c0      	nop			; (mov r8, r8)
	/* USER CODE BEGIN Error_Handler_Debug */
	/* User can add his own implementation to report the HAL error return state */
	__disable_irq();
	while (1)
 80029dc:	e7fe      	b.n	80029dc <Error_Handler+0x8>
	...

080029e0 <HAL_MspInit>:
 80029e0:	b580      	push	{r7, lr}
 80029e2:	b082      	sub	sp, #8
 80029e4:	af00      	add	r7, sp, #0
 80029e6:	4b0f      	ldr	r3, [pc, #60]	; (8002a24 <HAL_MspInit+0x44>)
 80029e8:	699a      	ldr	r2, [r3, #24]
 80029ea:	4b0e      	ldr	r3, [pc, #56]	; (8002a24 <HAL_MspInit+0x44>)
 80029ec:	2101      	movs	r1, #1
 80029ee:	430a      	orrs	r2, r1
 80029f0:	619a      	str	r2, [r3, #24]
 80029f2:	4b0c      	ldr	r3, [pc, #48]	; (8002a24 <HAL_MspInit+0x44>)
 80029f4:	699b      	ldr	r3, [r3, #24]
 80029f6:	2201      	movs	r2, #1
 80029f8:	4013      	ands	r3, r2
 80029fa:	607b      	str	r3, [r7, #4]
 80029fc:	687b      	ldr	r3, [r7, #4]
 80029fe:	4b09      	ldr	r3, [pc, #36]	; (8002a24 <HAL_MspInit+0x44>)
 8002a00:	69da      	ldr	r2, [r3, #28]
 8002a02:	4b08      	ldr	r3, [pc, #32]	; (8002a24 <HAL_MspInit+0x44>)
 8002a04:	2180      	movs	r1, #128	; 0x80
 8002a06:	0549      	lsls	r1, r1, #21
 8002a08:	430a      	orrs	r2, r1
 8002a0a:	61da      	str	r2, [r3, #28]
 8002a0c:	4b05      	ldr	r3, [pc, #20]	; (8002a24 <HAL_MspInit+0x44>)
 8002a0e:	69da      	ldr	r2, [r3, #28]
 8002a10:	2380      	movs	r3, #128	; 0x80
 8002a12:	055b      	lsls	r3, r3, #21
 8002a14:	4013      	ands	r3, r2
 8002a16:	603b      	str	r3, [r7, #0]
 8002a18:	683b      	ldr	r3, [r7, #0]
 8002a1a:	46c0      	nop			; (mov r8, r8)
 8002a1c:	46bd      	mov	sp, r7
 8002a1e:	b002      	add	sp, #8
 8002a20:	bd80      	pop	{r7, pc}
 8002a22:	46c0      	nop			; (mov r8, r8)
 8002a24:	40021000 	.word	0x40021000

08002a28 <HAL_I2C_MspInit>:
 8002a28:	b590      	push	{r4, r7, lr}
 8002a2a:	b08b      	sub	sp, #44	; 0x2c
 8002a2c:	af00      	add	r7, sp, #0
 8002a2e:	6078      	str	r0, [r7, #4]
 8002a30:	2414      	movs	r4, #20
 8002a32:	193b      	adds	r3, r7, r4
 8002a34:	0018      	movs	r0, r3
 8002a36:	2314      	movs	r3, #20
 8002a38:	001a      	movs	r2, r3
 8002a3a:	2100      	movs	r1, #0
 8002a3c:	f002 ffb2 	bl	80059a4 <memset>
 8002a40:	687b      	ldr	r3, [r7, #4]
 8002a42:	681b      	ldr	r3, [r3, #0]
 8002a44:	4a1c      	ldr	r2, [pc, #112]	; (8002ab8 <HAL_I2C_MspInit+0x90>)
 8002a46:	4293      	cmp	r3, r2
 8002a48:	d132      	bne.n	8002ab0 <HAL_I2C_MspInit+0x88>
 8002a4a:	4b1c      	ldr	r3, [pc, #112]	; (8002abc <HAL_I2C_MspInit+0x94>)
 8002a4c:	695a      	ldr	r2, [r3, #20]
 8002a4e:	4b1b      	ldr	r3, [pc, #108]	; (8002abc <HAL_I2C_MspInit+0x94>)
 8002a50:	2180      	movs	r1, #128	; 0x80
 8002a52:	02c9      	lsls	r1, r1, #11
 8002a54:	430a      	orrs	r2, r1
 8002a56:	615a      	str	r2, [r3, #20]
 8002a58:	4b18      	ldr	r3, [pc, #96]	; (8002abc <HAL_I2C_MspInit+0x94>)
 8002a5a:	695a      	ldr	r2, [r3, #20]
 8002a5c:	2380      	movs	r3, #128	; 0x80
 8002a5e:	02db      	lsls	r3, r3, #11
 8002a60:	4013      	ands	r3, r2
 8002a62:	613b      	str	r3, [r7, #16]
 8002a64:	693b      	ldr	r3, [r7, #16]
 8002a66:	193b      	adds	r3, r7, r4
 8002a68:	22c0      	movs	r2, #192	; 0xc0
 8002a6a:	0092      	lsls	r2, r2, #2
 8002a6c:	601a      	str	r2, [r3, #0]
 8002a6e:	0021      	movs	r1, r4
 8002a70:	187b      	adds	r3, r7, r1
 8002a72:	2212      	movs	r2, #18
 8002a74:	605a      	str	r2, [r3, #4]
 8002a76:	187b      	adds	r3, r7, r1
 8002a78:	2201      	movs	r2, #1
 8002a7a:	609a      	str	r2, [r3, #8]
 8002a7c:	187b      	adds	r3, r7, r1
 8002a7e:	2203      	movs	r2, #3
 8002a80:	60da      	str	r2, [r3, #12]
 8002a82:	187b      	adds	r3, r7, r1
 8002a84:	2201      	movs	r2, #1
 8002a86:	611a      	str	r2, [r3, #16]
 8002a88:	187b      	adds	r3, r7, r1
 8002a8a:	4a0d      	ldr	r2, [pc, #52]	; (8002ac0 <HAL_I2C_MspInit+0x98>)
 8002a8c:	0019      	movs	r1, r3
 8002a8e:	0010      	movs	r0, r2
 8002a90:	f000 faec 	bl	800306c <HAL_GPIO_Init>
 8002a94:	4b09      	ldr	r3, [pc, #36]	; (8002abc <HAL_I2C_MspInit+0x94>)
 8002a96:	69da      	ldr	r2, [r3, #28]
 8002a98:	4b08      	ldr	r3, [pc, #32]	; (8002abc <HAL_I2C_MspInit+0x94>)
 8002a9a:	2180      	movs	r1, #128	; 0x80
 8002a9c:	0389      	lsls	r1, r1, #14
 8002a9e:	430a      	orrs	r2, r1
 8002aa0:	61da      	str	r2, [r3, #28]
 8002aa2:	4b06      	ldr	r3, [pc, #24]	; (8002abc <HAL_I2C_MspInit+0x94>)
 8002aa4:	69da      	ldr	r2, [r3, #28]
 8002aa6:	2380      	movs	r3, #128	; 0x80
 8002aa8:	039b      	lsls	r3, r3, #14
 8002aaa:	4013      	ands	r3, r2
 8002aac:	60fb      	str	r3, [r7, #12]
 8002aae:	68fb      	ldr	r3, [r7, #12]
 8002ab0:	46c0      	nop			; (mov r8, r8)
 8002ab2:	46bd      	mov	sp, r7
 8002ab4:	b00b      	add	sp, #44	; 0x2c
 8002ab6:	bd90      	pop	{r4, r7, pc}
 8002ab8:	40005400 	.word	0x40005400
 8002abc:	40021000 	.word	0x40021000
 8002ac0:	48000400 	.word	0x48000400

08002ac4 <HAL_TIM_Base_MspInit>:
 8002ac4:	b580      	push	{r7, lr}
 8002ac6:	b084      	sub	sp, #16
 8002ac8:	af00      	add	r7, sp, #0
 8002aca:	6078      	str	r0, [r7, #4]
 8002acc:	687b      	ldr	r3, [r7, #4]
 8002ace:	681b      	ldr	r3, [r3, #0]
 8002ad0:	4a1b      	ldr	r2, [pc, #108]	; (8002b40 <HAL_TIM_Base_MspInit+0x7c>)
 8002ad2:	4293      	cmp	r3, r2
 8002ad4:	d114      	bne.n	8002b00 <HAL_TIM_Base_MspInit+0x3c>
 8002ad6:	4b1b      	ldr	r3, [pc, #108]	; (8002b44 <HAL_TIM_Base_MspInit+0x80>)
 8002ad8:	69da      	ldr	r2, [r3, #28]
 8002ada:	4b1a      	ldr	r3, [pc, #104]	; (8002b44 <HAL_TIM_Base_MspInit+0x80>)
 8002adc:	2110      	movs	r1, #16
 8002ade:	430a      	orrs	r2, r1
 8002ae0:	61da      	str	r2, [r3, #28]
 8002ae2:	4b18      	ldr	r3, [pc, #96]	; (8002b44 <HAL_TIM_Base_MspInit+0x80>)
 8002ae4:	69db      	ldr	r3, [r3, #28]
 8002ae6:	2210      	movs	r2, #16
 8002ae8:	4013      	ands	r3, r2
 8002aea:	60fb      	str	r3, [r7, #12]
 8002aec:	68fb      	ldr	r3, [r7, #12]
 8002aee:	2200      	movs	r2, #0
 8002af0:	2100      	movs	r1, #0
 8002af2:	2011      	movs	r0, #17
 8002af4:	f000 fa88 	bl	8003008 <HAL_NVIC_SetPriority>
 8002af8:	2011      	movs	r0, #17
 8002afa:	f000 fa9a 	bl	8003032 <HAL_NVIC_EnableIRQ>
 8002afe:	e01a      	b.n	8002b36 <HAL_TIM_Base_MspInit+0x72>
 8002b00:	687b      	ldr	r3, [r7, #4]
 8002b02:	681b      	ldr	r3, [r3, #0]
 8002b04:	4a10      	ldr	r2, [pc, #64]	; (8002b48 <HAL_TIM_Base_MspInit+0x84>)
 8002b06:	4293      	cmp	r3, r2
 8002b08:	d115      	bne.n	8002b36 <HAL_TIM_Base_MspInit+0x72>
 8002b0a:	4b0e      	ldr	r3, [pc, #56]	; (8002b44 <HAL_TIM_Base_MspInit+0x80>)
 8002b0c:	69da      	ldr	r2, [r3, #28]
 8002b0e:	4b0d      	ldr	r3, [pc, #52]	; (8002b44 <HAL_TIM_Base_MspInit+0x80>)
 8002b10:	2180      	movs	r1, #128	; 0x80
 8002b12:	0049      	lsls	r1, r1, #1
 8002b14:	430a      	orrs	r2, r1
 8002b16:	61da      	str	r2, [r3, #28]
 8002b18:	4b0a      	ldr	r3, [pc, #40]	; (8002b44 <HAL_TIM_Base_MspInit+0x80>)
 8002b1a:	69da      	ldr	r2, [r3, #28]
 8002b1c:	2380      	movs	r3, #128	; 0x80
 8002b1e:	005b      	lsls	r3, r3, #1
 8002b20:	4013      	ands	r3, r2
 8002b22:	60bb      	str	r3, [r7, #8]
 8002b24:	68bb      	ldr	r3, [r7, #8]
 8002b26:	2200      	movs	r2, #0
 8002b28:	2100      	movs	r1, #0
 8002b2a:	2013      	movs	r0, #19
 8002b2c:	f000 fa6c 	bl	8003008 <HAL_NVIC_SetPriority>
 8002b30:	2013      	movs	r0, #19
 8002b32:	f000 fa7e 	bl	8003032 <HAL_NVIC_EnableIRQ>
 8002b36:	46c0      	nop			; (mov r8, r8)
 8002b38:	46bd      	mov	sp, r7
 8002b3a:	b004      	add	sp, #16
 8002b3c:	bd80      	pop	{r7, pc}
 8002b3e:	46c0      	nop			; (mov r8, r8)
 8002b40:	40001000 	.word	0x40001000
 8002b44:	40021000 	.word	0x40021000
 8002b48:	40002000 	.word	0x40002000

08002b4c <HAL_UART_MspInit>:
 8002b4c:	b590      	push	{r4, r7, lr}
 8002b4e:	b08b      	sub	sp, #44	; 0x2c
 8002b50:	af00      	add	r7, sp, #0
 8002b52:	6078      	str	r0, [r7, #4]
 8002b54:	2414      	movs	r4, #20
 8002b56:	193b      	adds	r3, r7, r4
 8002b58:	0018      	movs	r0, r3
 8002b5a:	2314      	movs	r3, #20
 8002b5c:	001a      	movs	r2, r3
 8002b5e:	2100      	movs	r1, #0
 8002b60:	f002 ff20 	bl	80059a4 <memset>
 8002b64:	687b      	ldr	r3, [r7, #4]
 8002b66:	681b      	ldr	r3, [r3, #0]
 8002b68:	4a2e      	ldr	r2, [pc, #184]	; (8002c24 <HAL_UART_MspInit+0xd8>)
 8002b6a:	4293      	cmp	r3, r2
 8002b6c:	d156      	bne.n	8002c1c <HAL_UART_MspInit+0xd0>
 8002b6e:	4b2e      	ldr	r3, [pc, #184]	; (8002c28 <HAL_UART_MspInit+0xdc>)
 8002b70:	699a      	ldr	r2, [r3, #24]
 8002b72:	4b2d      	ldr	r3, [pc, #180]	; (8002c28 <HAL_UART_MspInit+0xdc>)
 8002b74:	2180      	movs	r1, #128	; 0x80
 8002b76:	01c9      	lsls	r1, r1, #7
 8002b78:	430a      	orrs	r2, r1
 8002b7a:	619a      	str	r2, [r3, #24]
 8002b7c:	4b2a      	ldr	r3, [pc, #168]	; (8002c28 <HAL_UART_MspInit+0xdc>)
 8002b7e:	699a      	ldr	r2, [r3, #24]
 8002b80:	2380      	movs	r3, #128	; 0x80
 8002b82:	01db      	lsls	r3, r3, #7
 8002b84:	4013      	ands	r3, r2
 8002b86:	613b      	str	r3, [r7, #16]
 8002b88:	693b      	ldr	r3, [r7, #16]
 8002b8a:	4b27      	ldr	r3, [pc, #156]	; (8002c28 <HAL_UART_MspInit+0xdc>)
 8002b8c:	695a      	ldr	r2, [r3, #20]
 8002b8e:	4b26      	ldr	r3, [pc, #152]	; (8002c28 <HAL_UART_MspInit+0xdc>)
 8002b90:	2180      	movs	r1, #128	; 0x80
 8002b92:	0289      	lsls	r1, r1, #10
 8002b94:	430a      	orrs	r2, r1
 8002b96:	615a      	str	r2, [r3, #20]
 8002b98:	4b23      	ldr	r3, [pc, #140]	; (8002c28 <HAL_UART_MspInit+0xdc>)
 8002b9a:	695a      	ldr	r2, [r3, #20]
 8002b9c:	2380      	movs	r3, #128	; 0x80
 8002b9e:	029b      	lsls	r3, r3, #10
 8002ba0:	4013      	ands	r3, r2
 8002ba2:	60fb      	str	r3, [r7, #12]
 8002ba4:	68fb      	ldr	r3, [r7, #12]
 8002ba6:	4b20      	ldr	r3, [pc, #128]	; (8002c28 <HAL_UART_MspInit+0xdc>)
 8002ba8:	695a      	ldr	r2, [r3, #20]
 8002baa:	4b1f      	ldr	r3, [pc, #124]	; (8002c28 <HAL_UART_MspInit+0xdc>)
 8002bac:	2180      	movs	r1, #128	; 0x80
 8002bae:	02c9      	lsls	r1, r1, #11
 8002bb0:	430a      	orrs	r2, r1
 8002bb2:	615a      	str	r2, [r3, #20]
 8002bb4:	4b1c      	ldr	r3, [pc, #112]	; (8002c28 <HAL_UART_MspInit+0xdc>)
 8002bb6:	695a      	ldr	r2, [r3, #20]
 8002bb8:	2380      	movs	r3, #128	; 0x80
 8002bba:	02db      	lsls	r3, r3, #11
 8002bbc:	4013      	ands	r3, r2
 8002bbe:	60bb      	str	r3, [r7, #8]
 8002bc0:	68bb      	ldr	r3, [r7, #8]
 8002bc2:	193b      	adds	r3, r7, r4
 8002bc4:	2280      	movs	r2, #128	; 0x80
 8002bc6:	0152      	lsls	r2, r2, #5
 8002bc8:	601a      	str	r2, [r3, #0]
 8002bca:	193b      	adds	r3, r7, r4
 8002bcc:	2202      	movs	r2, #2
 8002bce:	605a      	str	r2, [r3, #4]
 8002bd0:	193b      	adds	r3, r7, r4
 8002bd2:	2200      	movs	r2, #0
 8002bd4:	609a      	str	r2, [r3, #8]
 8002bd6:	193b      	adds	r3, r7, r4
 8002bd8:	2203      	movs	r2, #3
 8002bda:	60da      	str	r2, [r3, #12]
 8002bdc:	193b      	adds	r3, r7, r4
 8002bde:	2201      	movs	r2, #1
 8002be0:	611a      	str	r2, [r3, #16]
 8002be2:	193a      	adds	r2, r7, r4
 8002be4:	2390      	movs	r3, #144	; 0x90
 8002be6:	05db      	lsls	r3, r3, #23
 8002be8:	0011      	movs	r1, r2
 8002bea:	0018      	movs	r0, r3
 8002bec:	f000 fa3e 	bl	800306c <HAL_GPIO_Init>
 8002bf0:	0021      	movs	r1, r4
 8002bf2:	187b      	adds	r3, r7, r1
 8002bf4:	22c0      	movs	r2, #192	; 0xc0
 8002bf6:	601a      	str	r2, [r3, #0]
 8002bf8:	187b      	adds	r3, r7, r1
 8002bfa:	2202      	movs	r2, #2
 8002bfc:	605a      	str	r2, [r3, #4]
 8002bfe:	187b      	adds	r3, r7, r1
 8002c00:	2200      	movs	r2, #0
 8002c02:	609a      	str	r2, [r3, #8]
 8002c04:	187b      	adds	r3, r7, r1
 8002c06:	2203      	movs	r2, #3
 8002c08:	60da      	str	r2, [r3, #12]
 8002c0a:	187b      	adds	r3, r7, r1
 8002c0c:	2200      	movs	r2, #0
 8002c0e:	611a      	str	r2, [r3, #16]
 8002c10:	187b      	adds	r3, r7, r1
 8002c12:	4a06      	ldr	r2, [pc, #24]	; (8002c2c <HAL_UART_MspInit+0xe0>)
 8002c14:	0019      	movs	r1, r3
 8002c16:	0010      	movs	r0, r2
 8002c18:	f000 fa28 	bl	800306c <HAL_GPIO_Init>
 8002c1c:	46c0      	nop			; (mov r8, r8)
 8002c1e:	46bd      	mov	sp, r7
 8002c20:	b00b      	add	sp, #44	; 0x2c
 8002c22:	bd90      	pop	{r4, r7, pc}
 8002c24:	40013800 	.word	0x40013800
 8002c28:	40021000 	.word	0x40021000
 8002c2c:	48000400 	.word	0x48000400

08002c30 <NMI_Handler>:
 8002c30:	b580      	push	{r7, lr}
 8002c32:	af00      	add	r7, sp, #0
 8002c34:	e7fe      	b.n	8002c34 <NMI_Handler+0x4>

08002c36 <HardFault_Handler>:
 8002c36:	b580      	push	{r7, lr}
 8002c38:	af00      	add	r7, sp, #0
 8002c3a:	e7fe      	b.n	8002c3a <HardFault_Handler+0x4>

08002c3c <SVC_Handler>:
 8002c3c:	b580      	push	{r7, lr}
 8002c3e:	af00      	add	r7, sp, #0
 8002c40:	46c0      	nop			; (mov r8, r8)
 8002c42:	46bd      	mov	sp, r7
 8002c44:	bd80      	pop	{r7, pc}

08002c46 <PendSV_Handler>:
 8002c46:	b580      	push	{r7, lr}
 8002c48:	af00      	add	r7, sp, #0
 8002c4a:	46c0      	nop			; (mov r8, r8)
 8002c4c:	46bd      	mov	sp, r7
 8002c4e:	bd80      	pop	{r7, pc}

08002c50 <SysTick_Handler>:
 8002c50:	b580      	push	{r7, lr}
 8002c52:	af00      	add	r7, sp, #0
 8002c54:	f000 f8ec 	bl	8002e30 <HAL_IncTick>
 8002c58:	46c0      	nop			; (mov r8, r8)
 8002c5a:	46bd      	mov	sp, r7
 8002c5c:	bd80      	pop	{r7, pc}

08002c5e <EXTI4_15_IRQHandler>:
 8002c5e:	b580      	push	{r7, lr}
 8002c60:	af00      	add	r7, sp, #0
 8002c62:	2380      	movs	r3, #128	; 0x80
 8002c64:	00db      	lsls	r3, r3, #3
 8002c66:	0018      	movs	r0, r3
 8002c68:	f000 fbaa 	bl	80033c0 <HAL_GPIO_EXTI_IRQHandler>
 8002c6c:	2380      	movs	r3, #128	; 0x80
 8002c6e:	011b      	lsls	r3, r3, #4
 8002c70:	0018      	movs	r0, r3
 8002c72:	f000 fba5 	bl	80033c0 <HAL_GPIO_EXTI_IRQHandler>
 8002c76:	2380      	movs	r3, #128	; 0x80
 8002c78:	015b      	lsls	r3, r3, #5
 8002c7a:	0018      	movs	r0, r3
 8002c7c:	f000 fba0 	bl	80033c0 <HAL_GPIO_EXTI_IRQHandler>
 8002c80:	2380      	movs	r3, #128	; 0x80
 8002c82:	019b      	lsls	r3, r3, #6
 8002c84:	0018      	movs	r0, r3
 8002c86:	f000 fb9b 	bl	80033c0 <HAL_GPIO_EXTI_IRQHandler>
 8002c8a:	2380      	movs	r3, #128	; 0x80
 8002c8c:	01db      	lsls	r3, r3, #7
 8002c8e:	0018      	movs	r0, r3
 8002c90:	f000 fb96 	bl	80033c0 <HAL_GPIO_EXTI_IRQHandler>
 8002c94:	2380      	movs	r3, #128	; 0x80
 8002c96:	021b      	lsls	r3, r3, #8
 8002c98:	0018      	movs	r0, r3
 8002c9a:	f000 fb91 	bl	80033c0 <HAL_GPIO_EXTI_IRQHandler>
 8002c9e:	46c0      	nop			; (mov r8, r8)
 8002ca0:	46bd      	mov	sp, r7
 8002ca2:	bd80      	pop	{r7, pc}

08002ca4 <TIM6_IRQHandler>:
 8002ca4:	b580      	push	{r7, lr}
 8002ca6:	af00      	add	r7, sp, #0
 8002ca8:	4b03      	ldr	r3, [pc, #12]	; (8002cb8 <TIM6_IRQHandler+0x14>)
 8002caa:	0018      	movs	r0, r3
 8002cac:	f002 f824 	bl	8004cf8 <HAL_TIM_IRQHandler>
 8002cb0:	46c0      	nop			; (mov r8, r8)
 8002cb2:	46bd      	mov	sp, r7
 8002cb4:	bd80      	pop	{r7, pc}
 8002cb6:	46c0      	nop			; (mov r8, r8)
 8002cb8:	20000108 	.word	0x20000108

08002cbc <TIM14_IRQHandler>:
 8002cbc:	b580      	push	{r7, lr}
 8002cbe:	af00      	add	r7, sp, #0
 8002cc0:	4b03      	ldr	r3, [pc, #12]	; (8002cd0 <TIM14_IRQHandler+0x14>)
 8002cc2:	0018      	movs	r0, r3
 8002cc4:	f002 f818 	bl	8004cf8 <HAL_TIM_IRQHandler>
 8002cc8:	46c0      	nop			; (mov r8, r8)
 8002cca:	46bd      	mov	sp, r7
 8002ccc:	bd80      	pop	{r7, pc}
 8002cce:	46c0      	nop			; (mov r8, r8)
 8002cd0:	20000150 	.word	0x20000150

08002cd4 <_sbrk>:
 8002cd4:	b580      	push	{r7, lr}
 8002cd6:	b086      	sub	sp, #24
 8002cd8:	af00      	add	r7, sp, #0
 8002cda:	6078      	str	r0, [r7, #4]
 8002cdc:	4a14      	ldr	r2, [pc, #80]	; (8002d30 <_sbrk+0x5c>)
 8002cde:	4b15      	ldr	r3, [pc, #84]	; (8002d34 <_sbrk+0x60>)
 8002ce0:	1ad3      	subs	r3, r2, r3
 8002ce2:	617b      	str	r3, [r7, #20]
 8002ce4:	697b      	ldr	r3, [r7, #20]
 8002ce6:	613b      	str	r3, [r7, #16]
 8002ce8:	4b13      	ldr	r3, [pc, #76]	; (8002d38 <_sbrk+0x64>)
 8002cea:	681b      	ldr	r3, [r3, #0]
 8002cec:	2b00      	cmp	r3, #0
 8002cee:	d102      	bne.n	8002cf6 <_sbrk+0x22>
 8002cf0:	4b11      	ldr	r3, [pc, #68]	; (8002d38 <_sbrk+0x64>)
 8002cf2:	4a12      	ldr	r2, [pc, #72]	; (8002d3c <_sbrk+0x68>)
 8002cf4:	601a      	str	r2, [r3, #0]
 8002cf6:	4b10      	ldr	r3, [pc, #64]	; (8002d38 <_sbrk+0x64>)
 8002cf8:	681a      	ldr	r2, [r3, #0]
 8002cfa:	687b      	ldr	r3, [r7, #4]
 8002cfc:	18d3      	adds	r3, r2, r3
 8002cfe:	693a      	ldr	r2, [r7, #16]
 8002d00:	429a      	cmp	r2, r3
 8002d02:	d207      	bcs.n	8002d14 <_sbrk+0x40>
 8002d04:	f002 fe56 	bl	80059b4 <__errno>
 8002d08:	0003      	movs	r3, r0
 8002d0a:	220c      	movs	r2, #12
 8002d0c:	601a      	str	r2, [r3, #0]
 8002d0e:	2301      	movs	r3, #1
 8002d10:	425b      	negs	r3, r3
 8002d12:	e009      	b.n	8002d28 <_sbrk+0x54>
 8002d14:	4b08      	ldr	r3, [pc, #32]	; (8002d38 <_sbrk+0x64>)
 8002d16:	681b      	ldr	r3, [r3, #0]
 8002d18:	60fb      	str	r3, [r7, #12]
 8002d1a:	4b07      	ldr	r3, [pc, #28]	; (8002d38 <_sbrk+0x64>)
 8002d1c:	681a      	ldr	r2, [r3, #0]
 8002d1e:	687b      	ldr	r3, [r7, #4]
 8002d20:	18d2      	adds	r2, r2, r3
 8002d22:	4b05      	ldr	r3, [pc, #20]	; (8002d38 <_sbrk+0x64>)
 8002d24:	601a      	str	r2, [r3, #0]
 8002d26:	68fb      	ldr	r3, [r7, #12]
 8002d28:	0018      	movs	r0, r3
 8002d2a:	46bd      	mov	sp, r7
 8002d2c:	b006      	add	sp, #24
 8002d2e:	bd80      	pop	{r7, pc}
 8002d30:	20002000 	.word	0x20002000
 8002d34:	00000400 	.word	0x00000400
 8002d38:	20000228 	.word	0x20000228
 8002d3c:	20000378 	.word	0x20000378

08002d40 <SystemInit>:
 8002d40:	b580      	push	{r7, lr}
 8002d42:	af00      	add	r7, sp, #0
 8002d44:	46c0      	nop			; (mov r8, r8)
 8002d46:	46bd      	mov	sp, r7
 8002d48:	bd80      	pop	{r7, pc}
	...

08002d4c <Reset_Handler>:
 8002d4c:	480d      	ldr	r0, [pc, #52]	; (8002d84 <LoopForever+0x2>)
 8002d4e:	4685      	mov	sp, r0
 8002d50:	f7ff fff6 	bl	8002d40 <SystemInit>
 8002d54:	480c      	ldr	r0, [pc, #48]	; (8002d88 <LoopForever+0x6>)
 8002d56:	490d      	ldr	r1, [pc, #52]	; (8002d8c <LoopForever+0xa>)
 8002d58:	4a0d      	ldr	r2, [pc, #52]	; (8002d90 <LoopForever+0xe>)
 8002d5a:	2300      	movs	r3, #0
 8002d5c:	e002      	b.n	8002d64 <LoopCopyDataInit>

08002d5e <CopyDataInit>:
 8002d5e:	58d4      	ldr	r4, [r2, r3]
 8002d60:	50c4      	str	r4, [r0, r3]
 8002d62:	3304      	adds	r3, #4

08002d64 <LoopCopyDataInit>:
 8002d64:	18c4      	adds	r4, r0, r3
 8002d66:	428c      	cmp	r4, r1
 8002d68:	d3f9      	bcc.n	8002d5e <CopyDataInit>
 8002d6a:	4a0a      	ldr	r2, [pc, #40]	; (8002d94 <LoopForever+0x12>)
 8002d6c:	4c0a      	ldr	r4, [pc, #40]	; (8002d98 <LoopForever+0x16>)
 8002d6e:	2300      	movs	r3, #0
 8002d70:	e001      	b.n	8002d76 <LoopFillZerobss>

08002d72 <FillZerobss>:
 8002d72:	6013      	str	r3, [r2, #0]
 8002d74:	3204      	adds	r2, #4

08002d76 <LoopFillZerobss>:
 8002d76:	42a2      	cmp	r2, r4
 8002d78:	d3fb      	bcc.n	8002d72 <FillZerobss>
 8002d7a:	f002 fe21 	bl	80059c0 <__libc_init_array>
 8002d7e:	f7ff f987 	bl	8002090 <main>

08002d82 <LoopForever>:
 8002d82:	e7fe      	b.n	8002d82 <LoopForever>
 8002d84:	20002000 	.word	0x20002000
 8002d88:	20000000 	.word	0x20000000
 8002d8c:	20000068 	.word	0x20000068
 8002d90:	08006578 	.word	0x08006578
 8002d94:	20000068 	.word	0x20000068
 8002d98:	20000378 	.word	0x20000378

08002d9c <ADC1_IRQHandler>:
 8002d9c:	e7fe      	b.n	8002d9c <ADC1_IRQHandler>
	...

08002da0 <HAL_Init>:
 8002da0:	b580      	push	{r7, lr}
 8002da2:	af00      	add	r7, sp, #0
 8002da4:	4b07      	ldr	r3, [pc, #28]	; (8002dc4 <HAL_Init+0x24>)
 8002da6:	681a      	ldr	r2, [r3, #0]
 8002da8:	4b06      	ldr	r3, [pc, #24]	; (8002dc4 <HAL_Init+0x24>)
 8002daa:	2110      	movs	r1, #16
 8002dac:	430a      	orrs	r2, r1
 8002dae:	601a      	str	r2, [r3, #0]
 8002db0:	2003      	movs	r0, #3
 8002db2:	f000 f809 	bl	8002dc8 <HAL_InitTick>
 8002db6:	f7ff fe13 	bl	80029e0 <HAL_MspInit>
 8002dba:	2300      	movs	r3, #0
 8002dbc:	0018      	movs	r0, r3
 8002dbe:	46bd      	mov	sp, r7
 8002dc0:	bd80      	pop	{r7, pc}
 8002dc2:	46c0      	nop			; (mov r8, r8)
 8002dc4:	40022000 	.word	0x40022000

08002dc8 <HAL_InitTick>:
 8002dc8:	b590      	push	{r4, r7, lr}
 8002dca:	b083      	sub	sp, #12
 8002dcc:	af00      	add	r7, sp, #0
 8002dce:	6078      	str	r0, [r7, #4]
 8002dd0:	4b14      	ldr	r3, [pc, #80]	; (8002e24 <HAL_InitTick+0x5c>)
 8002dd2:	681c      	ldr	r4, [r3, #0]
 8002dd4:	4b14      	ldr	r3, [pc, #80]	; (8002e28 <HAL_InitTick+0x60>)
 8002dd6:	781b      	ldrb	r3, [r3, #0]
 8002dd8:	0019      	movs	r1, r3
 8002dda:	23fa      	movs	r3, #250	; 0xfa
 8002ddc:	0098      	lsls	r0, r3, #2
 8002dde:	f7fd f99d 	bl	800011c <__udivsi3>
 8002de2:	0003      	movs	r3, r0
 8002de4:	0019      	movs	r1, r3
 8002de6:	0020      	movs	r0, r4
 8002de8:	f7fd f998 	bl	800011c <__udivsi3>
 8002dec:	0003      	movs	r3, r0
 8002dee:	0018      	movs	r0, r3
 8002df0:	f000 f92f 	bl	8003052 <HAL_SYSTICK_Config>
 8002df4:	1e03      	subs	r3, r0, #0
 8002df6:	d001      	beq.n	8002dfc <HAL_InitTick+0x34>
 8002df8:	2301      	movs	r3, #1
 8002dfa:	e00f      	b.n	8002e1c <HAL_InitTick+0x54>
 8002dfc:	687b      	ldr	r3, [r7, #4]
 8002dfe:	2b03      	cmp	r3, #3
 8002e00:	d80b      	bhi.n	8002e1a <HAL_InitTick+0x52>
 8002e02:	6879      	ldr	r1, [r7, #4]
 8002e04:	2301      	movs	r3, #1
 8002e06:	425b      	negs	r3, r3
 8002e08:	2200      	movs	r2, #0
 8002e0a:	0018      	movs	r0, r3
 8002e0c:	f000 f8fc 	bl	8003008 <HAL_NVIC_SetPriority>
 8002e10:	4b06      	ldr	r3, [pc, #24]	; (8002e2c <HAL_InitTick+0x64>)
 8002e12:	687a      	ldr	r2, [r7, #4]
 8002e14:	601a      	str	r2, [r3, #0]
 8002e16:	2300      	movs	r3, #0
 8002e18:	e000      	b.n	8002e1c <HAL_InitTick+0x54>
 8002e1a:	2301      	movs	r3, #1
 8002e1c:	0018      	movs	r0, r3
 8002e1e:	46bd      	mov	sp, r7
 8002e20:	b003      	add	sp, #12
 8002e22:	bd90      	pop	{r4, r7, pc}
 8002e24:	2000000c 	.word	0x2000000c
 8002e28:	20000014 	.word	0x20000014
 8002e2c:	20000010 	.word	0x20000010

08002e30 <HAL_IncTick>:
 8002e30:	b580      	push	{r7, lr}
 8002e32:	af00      	add	r7, sp, #0
 8002e34:	4b05      	ldr	r3, [pc, #20]	; (8002e4c <HAL_IncTick+0x1c>)
 8002e36:	781b      	ldrb	r3, [r3, #0]
 8002e38:	001a      	movs	r2, r3
 8002e3a:	4b05      	ldr	r3, [pc, #20]	; (8002e50 <HAL_IncTick+0x20>)
 8002e3c:	681b      	ldr	r3, [r3, #0]
 8002e3e:	18d2      	adds	r2, r2, r3
 8002e40:	4b03      	ldr	r3, [pc, #12]	; (8002e50 <HAL_IncTick+0x20>)
 8002e42:	601a      	str	r2, [r3, #0]
 8002e44:	46c0      	nop			; (mov r8, r8)
 8002e46:	46bd      	mov	sp, r7
 8002e48:	bd80      	pop	{r7, pc}
 8002e4a:	46c0      	nop			; (mov r8, r8)
 8002e4c:	20000014 	.word	0x20000014
 8002e50:	2000022c 	.word	0x2000022c

08002e54 <HAL_GetTick>:
 8002e54:	b580      	push	{r7, lr}
 8002e56:	af00      	add	r7, sp, #0
 8002e58:	4b02      	ldr	r3, [pc, #8]	; (8002e64 <HAL_GetTick+0x10>)
 8002e5a:	681b      	ldr	r3, [r3, #0]
 8002e5c:	0018      	movs	r0, r3
 8002e5e:	46bd      	mov	sp, r7
 8002e60:	bd80      	pop	{r7, pc}
 8002e62:	46c0      	nop			; (mov r8, r8)
 8002e64:	2000022c 	.word	0x2000022c

08002e68 <HAL_Delay>:
 8002e68:	b580      	push	{r7, lr}
 8002e6a:	b084      	sub	sp, #16
 8002e6c:	af00      	add	r7, sp, #0
 8002e6e:	6078      	str	r0, [r7, #4]
 8002e70:	f7ff fff0 	bl	8002e54 <HAL_GetTick>
 8002e74:	0003      	movs	r3, r0
 8002e76:	60bb      	str	r3, [r7, #8]
 8002e78:	687b      	ldr	r3, [r7, #4]
 8002e7a:	60fb      	str	r3, [r7, #12]
 8002e7c:	68fb      	ldr	r3, [r7, #12]
 8002e7e:	3301      	adds	r3, #1
 8002e80:	d005      	beq.n	8002e8e <HAL_Delay+0x26>
 8002e82:	4b0a      	ldr	r3, [pc, #40]	; (8002eac <HAL_Delay+0x44>)
 8002e84:	781b      	ldrb	r3, [r3, #0]
 8002e86:	001a      	movs	r2, r3
 8002e88:	68fb      	ldr	r3, [r7, #12]
 8002e8a:	189b      	adds	r3, r3, r2
 8002e8c:	60fb      	str	r3, [r7, #12]
 8002e8e:	46c0      	nop			; (mov r8, r8)
 8002e90:	f7ff ffe0 	bl	8002e54 <HAL_GetTick>
 8002e94:	0002      	movs	r2, r0
 8002e96:	68bb      	ldr	r3, [r7, #8]
 8002e98:	1ad3      	subs	r3, r2, r3
 8002e9a:	68fa      	ldr	r2, [r7, #12]
 8002e9c:	429a      	cmp	r2, r3
 8002e9e:	d8f7      	bhi.n	8002e90 <HAL_Delay+0x28>
 8002ea0:	46c0      	nop			; (mov r8, r8)
 8002ea2:	46c0      	nop			; (mov r8, r8)
 8002ea4:	46bd      	mov	sp, r7
 8002ea6:	b004      	add	sp, #16
 8002ea8:	bd80      	pop	{r7, pc}
 8002eaa:	46c0      	nop			; (mov r8, r8)
 8002eac:	20000014 	.word	0x20000014

08002eb0 <__NVIC_EnableIRQ>:
 8002eb0:	b580      	push	{r7, lr}
 8002eb2:	b082      	sub	sp, #8
 8002eb4:	af00      	add	r7, sp, #0
 8002eb6:	0002      	movs	r2, r0
 8002eb8:	1dfb      	adds	r3, r7, #7
 8002eba:	701a      	strb	r2, [r3, #0]
 8002ebc:	1dfb      	adds	r3, r7, #7
 8002ebe:	781b      	ldrb	r3, [r3, #0]
 8002ec0:	2b7f      	cmp	r3, #127	; 0x7f
 8002ec2:	d809      	bhi.n	8002ed8 <__NVIC_EnableIRQ+0x28>
 8002ec4:	1dfb      	adds	r3, r7, #7
 8002ec6:	781b      	ldrb	r3, [r3, #0]
 8002ec8:	001a      	movs	r2, r3
 8002eca:	231f      	movs	r3, #31
 8002ecc:	401a      	ands	r2, r3
 8002ece:	4b04      	ldr	r3, [pc, #16]	; (8002ee0 <__NVIC_EnableIRQ+0x30>)
 8002ed0:	2101      	movs	r1, #1
 8002ed2:	4091      	lsls	r1, r2
 8002ed4:	000a      	movs	r2, r1
 8002ed6:	601a      	str	r2, [r3, #0]
 8002ed8:	46c0      	nop			; (mov r8, r8)
 8002eda:	46bd      	mov	sp, r7
 8002edc:	b002      	add	sp, #8
 8002ede:	bd80      	pop	{r7, pc}
 8002ee0:	e000e100 	.word	0xe000e100

08002ee4 <__NVIC_SetPriority>:
 8002ee4:	b590      	push	{r4, r7, lr}
 8002ee6:	b083      	sub	sp, #12
 8002ee8:	af00      	add	r7, sp, #0
 8002eea:	0002      	movs	r2, r0
 8002eec:	6039      	str	r1, [r7, #0]
 8002eee:	1dfb      	adds	r3, r7, #7
 8002ef0:	701a      	strb	r2, [r3, #0]
 8002ef2:	1dfb      	adds	r3, r7, #7
 8002ef4:	781b      	ldrb	r3, [r3, #0]
 8002ef6:	2b7f      	cmp	r3, #127	; 0x7f
 8002ef8:	d828      	bhi.n	8002f4c <__NVIC_SetPriority+0x68>
 8002efa:	4a2f      	ldr	r2, [pc, #188]	; (8002fb8 <__NVIC_SetPriority+0xd4>)
 8002efc:	1dfb      	adds	r3, r7, #7
 8002efe:	781b      	ldrb	r3, [r3, #0]
 8002f00:	b25b      	sxtb	r3, r3
 8002f02:	089b      	lsrs	r3, r3, #2
 8002f04:	33c0      	adds	r3, #192	; 0xc0
 8002f06:	009b      	lsls	r3, r3, #2
 8002f08:	589b      	ldr	r3, [r3, r2]
 8002f0a:	1dfa      	adds	r2, r7, #7
 8002f0c:	7812      	ldrb	r2, [r2, #0]
 8002f0e:	0011      	movs	r1, r2
 8002f10:	2203      	movs	r2, #3
 8002f12:	400a      	ands	r2, r1
 8002f14:	00d2      	lsls	r2, r2, #3
 8002f16:	21ff      	movs	r1, #255	; 0xff
 8002f18:	4091      	lsls	r1, r2
 8002f1a:	000a      	movs	r2, r1
 8002f1c:	43d2      	mvns	r2, r2
 8002f1e:	401a      	ands	r2, r3
 8002f20:	0011      	movs	r1, r2
 8002f22:	683b      	ldr	r3, [r7, #0]
 8002f24:	019b      	lsls	r3, r3, #6
 8002f26:	22ff      	movs	r2, #255	; 0xff
 8002f28:	401a      	ands	r2, r3
 8002f2a:	1dfb      	adds	r3, r7, #7
 8002f2c:	781b      	ldrb	r3, [r3, #0]
 8002f2e:	0018      	movs	r0, r3
 8002f30:	2303      	movs	r3, #3
 8002f32:	4003      	ands	r3, r0
 8002f34:	00db      	lsls	r3, r3, #3
 8002f36:	409a      	lsls	r2, r3
 8002f38:	481f      	ldr	r0, [pc, #124]	; (8002fb8 <__NVIC_SetPriority+0xd4>)
 8002f3a:	1dfb      	adds	r3, r7, #7
 8002f3c:	781b      	ldrb	r3, [r3, #0]
 8002f3e:	b25b      	sxtb	r3, r3
 8002f40:	089b      	lsrs	r3, r3, #2
 8002f42:	430a      	orrs	r2, r1
 8002f44:	33c0      	adds	r3, #192	; 0xc0
 8002f46:	009b      	lsls	r3, r3, #2
 8002f48:	501a      	str	r2, [r3, r0]
 8002f4a:	e031      	b.n	8002fb0 <__NVIC_SetPriority+0xcc>
 8002f4c:	4a1b      	ldr	r2, [pc, #108]	; (8002fbc <__NVIC_SetPriority+0xd8>)
 8002f4e:	1dfb      	adds	r3, r7, #7
 8002f50:	781b      	ldrb	r3, [r3, #0]
 8002f52:	0019      	movs	r1, r3
 8002f54:	230f      	movs	r3, #15
 8002f56:	400b      	ands	r3, r1
 8002f58:	3b08      	subs	r3, #8
 8002f5a:	089b      	lsrs	r3, r3, #2
 8002f5c:	3306      	adds	r3, #6
 8002f5e:	009b      	lsls	r3, r3, #2
 8002f60:	18d3      	adds	r3, r2, r3
 8002f62:	3304      	adds	r3, #4
 8002f64:	681b      	ldr	r3, [r3, #0]
 8002f66:	1dfa      	adds	r2, r7, #7
 8002f68:	7812      	ldrb	r2, [r2, #0]
 8002f6a:	0011      	movs	r1, r2
 8002f6c:	2203      	movs	r2, #3
 8002f6e:	400a      	ands	r2, r1
 8002f70:	00d2      	lsls	r2, r2, #3
 8002f72:	21ff      	movs	r1, #255	; 0xff
 8002f74:	4091      	lsls	r1, r2
 8002f76:	000a      	movs	r2, r1
 8002f78:	43d2      	mvns	r2, r2
 8002f7a:	401a      	ands	r2, r3
 8002f7c:	0011      	movs	r1, r2
 8002f7e:	683b      	ldr	r3, [r7, #0]
 8002f80:	019b      	lsls	r3, r3, #6
 8002f82:	22ff      	movs	r2, #255	; 0xff
 8002f84:	401a      	ands	r2, r3
 8002f86:	1dfb      	adds	r3, r7, #7
 8002f88:	781b      	ldrb	r3, [r3, #0]
 8002f8a:	0018      	movs	r0, r3
 8002f8c:	2303      	movs	r3, #3
 8002f8e:	4003      	ands	r3, r0
 8002f90:	00db      	lsls	r3, r3, #3
 8002f92:	409a      	lsls	r2, r3
 8002f94:	4809      	ldr	r0, [pc, #36]	; (8002fbc <__NVIC_SetPriority+0xd8>)
 8002f96:	1dfb      	adds	r3, r7, #7
 8002f98:	781b      	ldrb	r3, [r3, #0]
 8002f9a:	001c      	movs	r4, r3
 8002f9c:	230f      	movs	r3, #15
 8002f9e:	4023      	ands	r3, r4
 8002fa0:	3b08      	subs	r3, #8
 8002fa2:	089b      	lsrs	r3, r3, #2
 8002fa4:	430a      	orrs	r2, r1
 8002fa6:	3306      	adds	r3, #6
 8002fa8:	009b      	lsls	r3, r3, #2
 8002faa:	18c3      	adds	r3, r0, r3
 8002fac:	3304      	adds	r3, #4
 8002fae:	601a      	str	r2, [r3, #0]
 8002fb0:	46c0      	nop			; (mov r8, r8)
 8002fb2:	46bd      	mov	sp, r7
 8002fb4:	b003      	add	sp, #12
 8002fb6:	bd90      	pop	{r4, r7, pc}
 8002fb8:	e000e100 	.word	0xe000e100
 8002fbc:	e000ed00 	.word	0xe000ed00

08002fc0 <SysTick_Config>:
 8002fc0:	b580      	push	{r7, lr}
 8002fc2:	b082      	sub	sp, #8
 8002fc4:	af00      	add	r7, sp, #0
 8002fc6:	6078      	str	r0, [r7, #4]
 8002fc8:	687b      	ldr	r3, [r7, #4]
 8002fca:	1e5a      	subs	r2, r3, #1
 8002fcc:	2380      	movs	r3, #128	; 0x80
 8002fce:	045b      	lsls	r3, r3, #17
 8002fd0:	429a      	cmp	r2, r3
 8002fd2:	d301      	bcc.n	8002fd8 <SysTick_Config+0x18>
 8002fd4:	2301      	movs	r3, #1
 8002fd6:	e010      	b.n	8002ffa <SysTick_Config+0x3a>
 8002fd8:	4b0a      	ldr	r3, [pc, #40]	; (8003004 <SysTick_Config+0x44>)
 8002fda:	687a      	ldr	r2, [r7, #4]
 8002fdc:	3a01      	subs	r2, #1
 8002fde:	605a      	str	r2, [r3, #4]
 8002fe0:	2301      	movs	r3, #1
 8002fe2:	425b      	negs	r3, r3
 8002fe4:	2103      	movs	r1, #3
 8002fe6:	0018      	movs	r0, r3
 8002fe8:	f7ff ff7c 	bl	8002ee4 <__NVIC_SetPriority>
 8002fec:	4b05      	ldr	r3, [pc, #20]	; (8003004 <SysTick_Config+0x44>)
 8002fee:	2200      	movs	r2, #0
 8002ff0:	609a      	str	r2, [r3, #8]
 8002ff2:	4b04      	ldr	r3, [pc, #16]	; (8003004 <SysTick_Config+0x44>)
 8002ff4:	2207      	movs	r2, #7
 8002ff6:	601a      	str	r2, [r3, #0]
 8002ff8:	2300      	movs	r3, #0
 8002ffa:	0018      	movs	r0, r3
 8002ffc:	46bd      	mov	sp, r7
 8002ffe:	b002      	add	sp, #8
 8003000:	bd80      	pop	{r7, pc}
 8003002:	46c0      	nop			; (mov r8, r8)
 8003004:	e000e010 	.word	0xe000e010

08003008 <HAL_NVIC_SetPriority>:
 8003008:	b580      	push	{r7, lr}
 800300a:	b084      	sub	sp, #16
 800300c:	af00      	add	r7, sp, #0
 800300e:	60b9      	str	r1, [r7, #8]
 8003010:	607a      	str	r2, [r7, #4]
 8003012:	210f      	movs	r1, #15
 8003014:	187b      	adds	r3, r7, r1
 8003016:	1c02      	adds	r2, r0, #0
 8003018:	701a      	strb	r2, [r3, #0]
 800301a:	68ba      	ldr	r2, [r7, #8]
 800301c:	187b      	adds	r3, r7, r1
 800301e:	781b      	ldrb	r3, [r3, #0]
 8003020:	b25b      	sxtb	r3, r3
 8003022:	0011      	movs	r1, r2
 8003024:	0018      	movs	r0, r3
 8003026:	f7ff ff5d 	bl	8002ee4 <__NVIC_SetPriority>
 800302a:	46c0      	nop			; (mov r8, r8)
 800302c:	46bd      	mov	sp, r7
 800302e:	b004      	add	sp, #16
 8003030:	bd80      	pop	{r7, pc}

08003032 <HAL_NVIC_EnableIRQ>:
 8003032:	b580      	push	{r7, lr}
 8003034:	b082      	sub	sp, #8
 8003036:	af00      	add	r7, sp, #0
 8003038:	0002      	movs	r2, r0
 800303a:	1dfb      	adds	r3, r7, #7
 800303c:	701a      	strb	r2, [r3, #0]
 800303e:	1dfb      	adds	r3, r7, #7
 8003040:	781b      	ldrb	r3, [r3, #0]
 8003042:	b25b      	sxtb	r3, r3
 8003044:	0018      	movs	r0, r3
 8003046:	f7ff ff33 	bl	8002eb0 <__NVIC_EnableIRQ>
 800304a:	46c0      	nop			; (mov r8, r8)
 800304c:	46bd      	mov	sp, r7
 800304e:	b002      	add	sp, #8
 8003050:	bd80      	pop	{r7, pc}

08003052 <HAL_SYSTICK_Config>:
 8003052:	b580      	push	{r7, lr}
 8003054:	b082      	sub	sp, #8
 8003056:	af00      	add	r7, sp, #0
 8003058:	6078      	str	r0, [r7, #4]
 800305a:	687b      	ldr	r3, [r7, #4]
 800305c:	0018      	movs	r0, r3
 800305e:	f7ff ffaf 	bl	8002fc0 <SysTick_Config>
 8003062:	0003      	movs	r3, r0
 8003064:	0018      	movs	r0, r3
 8003066:	46bd      	mov	sp, r7
 8003068:	b002      	add	sp, #8
 800306a:	bd80      	pop	{r7, pc}

0800306c <HAL_GPIO_Init>:
 800306c:	b580      	push	{r7, lr}
 800306e:	b086      	sub	sp, #24
 8003070:	af00      	add	r7, sp, #0
 8003072:	6078      	str	r0, [r7, #4]
 8003074:	6039      	str	r1, [r7, #0]
 8003076:	2300      	movs	r3, #0
 8003078:	617b      	str	r3, [r7, #20]
 800307a:	e14f      	b.n	800331c <HAL_GPIO_Init+0x2b0>
 800307c:	683b      	ldr	r3, [r7, #0]
 800307e:	681b      	ldr	r3, [r3, #0]
 8003080:	2101      	movs	r1, #1
 8003082:	697a      	ldr	r2, [r7, #20]
 8003084:	4091      	lsls	r1, r2
 8003086:	000a      	movs	r2, r1
 8003088:	4013      	ands	r3, r2
 800308a:	60fb      	str	r3, [r7, #12]
 800308c:	68fb      	ldr	r3, [r7, #12]
 800308e:	2b00      	cmp	r3, #0
 8003090:	d100      	bne.n	8003094 <HAL_GPIO_Init+0x28>
 8003092:	e140      	b.n	8003316 <HAL_GPIO_Init+0x2aa>
 8003094:	683b      	ldr	r3, [r7, #0]
 8003096:	685b      	ldr	r3, [r3, #4]
 8003098:	2203      	movs	r2, #3
 800309a:	4013      	ands	r3, r2
 800309c:	2b01      	cmp	r3, #1
 800309e:	d005      	beq.n	80030ac <HAL_GPIO_Init+0x40>
 80030a0:	683b      	ldr	r3, [r7, #0]
 80030a2:	685b      	ldr	r3, [r3, #4]
 80030a4:	2203      	movs	r2, #3
 80030a6:	4013      	ands	r3, r2
 80030a8:	2b02      	cmp	r3, #2
 80030aa:	d130      	bne.n	800310e <HAL_GPIO_Init+0xa2>
 80030ac:	687b      	ldr	r3, [r7, #4]
 80030ae:	689b      	ldr	r3, [r3, #8]
 80030b0:	613b      	str	r3, [r7, #16]
 80030b2:	697b      	ldr	r3, [r7, #20]
 80030b4:	005b      	lsls	r3, r3, #1
 80030b6:	2203      	movs	r2, #3
 80030b8:	409a      	lsls	r2, r3
 80030ba:	0013      	movs	r3, r2
 80030bc:	43da      	mvns	r2, r3
 80030be:	693b      	ldr	r3, [r7, #16]
 80030c0:	4013      	ands	r3, r2
 80030c2:	613b      	str	r3, [r7, #16]
 80030c4:	683b      	ldr	r3, [r7, #0]
 80030c6:	68da      	ldr	r2, [r3, #12]
 80030c8:	697b      	ldr	r3, [r7, #20]
 80030ca:	005b      	lsls	r3, r3, #1
 80030cc:	409a      	lsls	r2, r3
 80030ce:	0013      	movs	r3, r2
 80030d0:	693a      	ldr	r2, [r7, #16]
 80030d2:	4313      	orrs	r3, r2
 80030d4:	613b      	str	r3, [r7, #16]
 80030d6:	687b      	ldr	r3, [r7, #4]
 80030d8:	693a      	ldr	r2, [r7, #16]
 80030da:	609a      	str	r2, [r3, #8]
 80030dc:	687b      	ldr	r3, [r7, #4]
 80030de:	685b      	ldr	r3, [r3, #4]
 80030e0:	613b      	str	r3, [r7, #16]
 80030e2:	2201      	movs	r2, #1
 80030e4:	697b      	ldr	r3, [r7, #20]
 80030e6:	409a      	lsls	r2, r3
 80030e8:	0013      	movs	r3, r2
 80030ea:	43da      	mvns	r2, r3
 80030ec:	693b      	ldr	r3, [r7, #16]
 80030ee:	4013      	ands	r3, r2
 80030f0:	613b      	str	r3, [r7, #16]
 80030f2:	683b      	ldr	r3, [r7, #0]
 80030f4:	685b      	ldr	r3, [r3, #4]
 80030f6:	091b      	lsrs	r3, r3, #4
 80030f8:	2201      	movs	r2, #1
 80030fa:	401a      	ands	r2, r3
 80030fc:	697b      	ldr	r3, [r7, #20]
 80030fe:	409a      	lsls	r2, r3
 8003100:	0013      	movs	r3, r2
 8003102:	693a      	ldr	r2, [r7, #16]
 8003104:	4313      	orrs	r3, r2
 8003106:	613b      	str	r3, [r7, #16]
 8003108:	687b      	ldr	r3, [r7, #4]
 800310a:	693a      	ldr	r2, [r7, #16]
 800310c:	605a      	str	r2, [r3, #4]
 800310e:	683b      	ldr	r3, [r7, #0]
 8003110:	685b      	ldr	r3, [r3, #4]
 8003112:	2203      	movs	r2, #3
 8003114:	4013      	ands	r3, r2
 8003116:	2b03      	cmp	r3, #3
 8003118:	d017      	beq.n	800314a <HAL_GPIO_Init+0xde>
 800311a:	687b      	ldr	r3, [r7, #4]
 800311c:	68db      	ldr	r3, [r3, #12]
 800311e:	613b      	str	r3, [r7, #16]
 8003120:	697b      	ldr	r3, [r7, #20]
 8003122:	005b      	lsls	r3, r3, #1
 8003124:	2203      	movs	r2, #3
 8003126:	409a      	lsls	r2, r3
 8003128:	0013      	movs	r3, r2
 800312a:	43da      	mvns	r2, r3
 800312c:	693b      	ldr	r3, [r7, #16]
 800312e:	4013      	ands	r3, r2
 8003130:	613b      	str	r3, [r7, #16]
 8003132:	683b      	ldr	r3, [r7, #0]
 8003134:	689a      	ldr	r2, [r3, #8]
 8003136:	697b      	ldr	r3, [r7, #20]
 8003138:	005b      	lsls	r3, r3, #1
 800313a:	409a      	lsls	r2, r3
 800313c:	0013      	movs	r3, r2
 800313e:	693a      	ldr	r2, [r7, #16]
 8003140:	4313      	orrs	r3, r2
 8003142:	613b      	str	r3, [r7, #16]
 8003144:	687b      	ldr	r3, [r7, #4]
 8003146:	693a      	ldr	r2, [r7, #16]
 8003148:	60da      	str	r2, [r3, #12]
 800314a:	683b      	ldr	r3, [r7, #0]
 800314c:	685b      	ldr	r3, [r3, #4]
 800314e:	2203      	movs	r2, #3
 8003150:	4013      	ands	r3, r2
 8003152:	2b02      	cmp	r3, #2
 8003154:	d123      	bne.n	800319e <HAL_GPIO_Init+0x132>
 8003156:	697b      	ldr	r3, [r7, #20]
 8003158:	08da      	lsrs	r2, r3, #3
 800315a:	687b      	ldr	r3, [r7, #4]
 800315c:	3208      	adds	r2, #8
 800315e:	0092      	lsls	r2, r2, #2
 8003160:	58d3      	ldr	r3, [r2, r3]
 8003162:	613b      	str	r3, [r7, #16]
 8003164:	697b      	ldr	r3, [r7, #20]
 8003166:	2207      	movs	r2, #7
 8003168:	4013      	ands	r3, r2
 800316a:	009b      	lsls	r3, r3, #2
 800316c:	220f      	movs	r2, #15
 800316e:	409a      	lsls	r2, r3
 8003170:	0013      	movs	r3, r2
 8003172:	43da      	mvns	r2, r3
 8003174:	693b      	ldr	r3, [r7, #16]
 8003176:	4013      	ands	r3, r2
 8003178:	613b      	str	r3, [r7, #16]
 800317a:	683b      	ldr	r3, [r7, #0]
 800317c:	691a      	ldr	r2, [r3, #16]
 800317e:	697b      	ldr	r3, [r7, #20]
 8003180:	2107      	movs	r1, #7
 8003182:	400b      	ands	r3, r1
 8003184:	009b      	lsls	r3, r3, #2
 8003186:	409a      	lsls	r2, r3
 8003188:	0013      	movs	r3, r2
 800318a:	693a      	ldr	r2, [r7, #16]
 800318c:	4313      	orrs	r3, r2
 800318e:	613b      	str	r3, [r7, #16]
 8003190:	697b      	ldr	r3, [r7, #20]
 8003192:	08da      	lsrs	r2, r3, #3
 8003194:	687b      	ldr	r3, [r7, #4]
 8003196:	3208      	adds	r2, #8
 8003198:	0092      	lsls	r2, r2, #2
 800319a:	6939      	ldr	r1, [r7, #16]
 800319c:	50d1      	str	r1, [r2, r3]
 800319e:	687b      	ldr	r3, [r7, #4]
 80031a0:	681b      	ldr	r3, [r3, #0]
 80031a2:	613b      	str	r3, [r7, #16]
 80031a4:	697b      	ldr	r3, [r7, #20]
 80031a6:	005b      	lsls	r3, r3, #1
 80031a8:	2203      	movs	r2, #3
 80031aa:	409a      	lsls	r2, r3
 80031ac:	0013      	movs	r3, r2
 80031ae:	43da      	mvns	r2, r3
 80031b0:	693b      	ldr	r3, [r7, #16]
 80031b2:	4013      	ands	r3, r2
 80031b4:	613b      	str	r3, [r7, #16]
 80031b6:	683b      	ldr	r3, [r7, #0]
 80031b8:	685b      	ldr	r3, [r3, #4]
 80031ba:	2203      	movs	r2, #3
 80031bc:	401a      	ands	r2, r3
 80031be:	697b      	ldr	r3, [r7, #20]
 80031c0:	005b      	lsls	r3, r3, #1
 80031c2:	409a      	lsls	r2, r3
 80031c4:	0013      	movs	r3, r2
 80031c6:	693a      	ldr	r2, [r7, #16]
 80031c8:	4313      	orrs	r3, r2
 80031ca:	613b      	str	r3, [r7, #16]
 80031cc:	687b      	ldr	r3, [r7, #4]
 80031ce:	693a      	ldr	r2, [r7, #16]
 80031d0:	601a      	str	r2, [r3, #0]
 80031d2:	683b      	ldr	r3, [r7, #0]
 80031d4:	685a      	ldr	r2, [r3, #4]
 80031d6:	23c0      	movs	r3, #192	; 0xc0
 80031d8:	029b      	lsls	r3, r3, #10
 80031da:	4013      	ands	r3, r2
 80031dc:	d100      	bne.n	80031e0 <HAL_GPIO_Init+0x174>
 80031de:	e09a      	b.n	8003316 <HAL_GPIO_Init+0x2aa>
 80031e0:	4b54      	ldr	r3, [pc, #336]	; (8003334 <HAL_GPIO_Init+0x2c8>)
 80031e2:	699a      	ldr	r2, [r3, #24]
 80031e4:	4b53      	ldr	r3, [pc, #332]	; (8003334 <HAL_GPIO_Init+0x2c8>)
 80031e6:	2101      	movs	r1, #1
 80031e8:	430a      	orrs	r2, r1
 80031ea:	619a      	str	r2, [r3, #24]
 80031ec:	4b51      	ldr	r3, [pc, #324]	; (8003334 <HAL_GPIO_Init+0x2c8>)
 80031ee:	699b      	ldr	r3, [r3, #24]
 80031f0:	2201      	movs	r2, #1
 80031f2:	4013      	ands	r3, r2
 80031f4:	60bb      	str	r3, [r7, #8]
 80031f6:	68bb      	ldr	r3, [r7, #8]
 80031f8:	4a4f      	ldr	r2, [pc, #316]	; (8003338 <HAL_GPIO_Init+0x2cc>)
 80031fa:	697b      	ldr	r3, [r7, #20]
 80031fc:	089b      	lsrs	r3, r3, #2
 80031fe:	3302      	adds	r3, #2
 8003200:	009b      	lsls	r3, r3, #2
 8003202:	589b      	ldr	r3, [r3, r2]
 8003204:	613b      	str	r3, [r7, #16]
 8003206:	697b      	ldr	r3, [r7, #20]
 8003208:	2203      	movs	r2, #3
 800320a:	4013      	ands	r3, r2
 800320c:	009b      	lsls	r3, r3, #2
 800320e:	220f      	movs	r2, #15
 8003210:	409a      	lsls	r2, r3
 8003212:	0013      	movs	r3, r2
 8003214:	43da      	mvns	r2, r3
 8003216:	693b      	ldr	r3, [r7, #16]
 8003218:	4013      	ands	r3, r2
 800321a:	613b      	str	r3, [r7, #16]
 800321c:	687a      	ldr	r2, [r7, #4]
 800321e:	2390      	movs	r3, #144	; 0x90
 8003220:	05db      	lsls	r3, r3, #23
 8003222:	429a      	cmp	r2, r3
 8003224:	d013      	beq.n	800324e <HAL_GPIO_Init+0x1e2>
 8003226:	687b      	ldr	r3, [r7, #4]
 8003228:	4a44      	ldr	r2, [pc, #272]	; (800333c <HAL_GPIO_Init+0x2d0>)
 800322a:	4293      	cmp	r3, r2
 800322c:	d00d      	beq.n	800324a <HAL_GPIO_Init+0x1de>
 800322e:	687b      	ldr	r3, [r7, #4]
 8003230:	4a43      	ldr	r2, [pc, #268]	; (8003340 <HAL_GPIO_Init+0x2d4>)
 8003232:	4293      	cmp	r3, r2
 8003234:	d007      	beq.n	8003246 <HAL_GPIO_Init+0x1da>
 8003236:	687b      	ldr	r3, [r7, #4]
 8003238:	4a42      	ldr	r2, [pc, #264]	; (8003344 <HAL_GPIO_Init+0x2d8>)
 800323a:	4293      	cmp	r3, r2
 800323c:	d101      	bne.n	8003242 <HAL_GPIO_Init+0x1d6>
 800323e:	2303      	movs	r3, #3
 8003240:	e006      	b.n	8003250 <HAL_GPIO_Init+0x1e4>
 8003242:	2305      	movs	r3, #5
 8003244:	e004      	b.n	8003250 <HAL_GPIO_Init+0x1e4>
 8003246:	2302      	movs	r3, #2
 8003248:	e002      	b.n	8003250 <HAL_GPIO_Init+0x1e4>
 800324a:	2301      	movs	r3, #1
 800324c:	e000      	b.n	8003250 <HAL_GPIO_Init+0x1e4>
 800324e:	2300      	movs	r3, #0
 8003250:	697a      	ldr	r2, [r7, #20]
 8003252:	2103      	movs	r1, #3
 8003254:	400a      	ands	r2, r1
 8003256:	0092      	lsls	r2, r2, #2
 8003258:	4093      	lsls	r3, r2
 800325a:	693a      	ldr	r2, [r7, #16]
 800325c:	4313      	orrs	r3, r2
 800325e:	613b      	str	r3, [r7, #16]
 8003260:	4935      	ldr	r1, [pc, #212]	; (8003338 <HAL_GPIO_Init+0x2cc>)
 8003262:	697b      	ldr	r3, [r7, #20]
 8003264:	089b      	lsrs	r3, r3, #2
 8003266:	3302      	adds	r3, #2
 8003268:	009b      	lsls	r3, r3, #2
 800326a:	693a      	ldr	r2, [r7, #16]
 800326c:	505a      	str	r2, [r3, r1]
 800326e:	4b36      	ldr	r3, [pc, #216]	; (8003348 <HAL_GPIO_Init+0x2dc>)
 8003270:	689b      	ldr	r3, [r3, #8]
 8003272:	613b      	str	r3, [r7, #16]
 8003274:	68fb      	ldr	r3, [r7, #12]
 8003276:	43da      	mvns	r2, r3
 8003278:	693b      	ldr	r3, [r7, #16]
 800327a:	4013      	ands	r3, r2
 800327c:	613b      	str	r3, [r7, #16]
 800327e:	683b      	ldr	r3, [r7, #0]
 8003280:	685a      	ldr	r2, [r3, #4]
 8003282:	2380      	movs	r3, #128	; 0x80
 8003284:	035b      	lsls	r3, r3, #13
 8003286:	4013      	ands	r3, r2
 8003288:	d003      	beq.n	8003292 <HAL_GPIO_Init+0x226>
 800328a:	693a      	ldr	r2, [r7, #16]
 800328c:	68fb      	ldr	r3, [r7, #12]
 800328e:	4313      	orrs	r3, r2
 8003290:	613b      	str	r3, [r7, #16]
 8003292:	4b2d      	ldr	r3, [pc, #180]	; (8003348 <HAL_GPIO_Init+0x2dc>)
 8003294:	693a      	ldr	r2, [r7, #16]
 8003296:	609a      	str	r2, [r3, #8]
 8003298:	4b2b      	ldr	r3, [pc, #172]	; (8003348 <HAL_GPIO_Init+0x2dc>)
 800329a:	68db      	ldr	r3, [r3, #12]
 800329c:	613b      	str	r3, [r7, #16]
 800329e:	68fb      	ldr	r3, [r7, #12]
 80032a0:	43da      	mvns	r2, r3
 80032a2:	693b      	ldr	r3, [r7, #16]
 80032a4:	4013      	ands	r3, r2
 80032a6:	613b      	str	r3, [r7, #16]
 80032a8:	683b      	ldr	r3, [r7, #0]
 80032aa:	685a      	ldr	r2, [r3, #4]
 80032ac:	2380      	movs	r3, #128	; 0x80
 80032ae:	039b      	lsls	r3, r3, #14
 80032b0:	4013      	ands	r3, r2
 80032b2:	d003      	beq.n	80032bc <HAL_GPIO_Init+0x250>
 80032b4:	693a      	ldr	r2, [r7, #16]
 80032b6:	68fb      	ldr	r3, [r7, #12]
 80032b8:	4313      	orrs	r3, r2
 80032ba:	613b      	str	r3, [r7, #16]
 80032bc:	4b22      	ldr	r3, [pc, #136]	; (8003348 <HAL_GPIO_Init+0x2dc>)
 80032be:	693a      	ldr	r2, [r7, #16]
 80032c0:	60da      	str	r2, [r3, #12]
 80032c2:	4b21      	ldr	r3, [pc, #132]	; (8003348 <HAL_GPIO_Init+0x2dc>)
 80032c4:	685b      	ldr	r3, [r3, #4]
 80032c6:	613b      	str	r3, [r7, #16]
 80032c8:	68fb      	ldr	r3, [r7, #12]
 80032ca:	43da      	mvns	r2, r3
 80032cc:	693b      	ldr	r3, [r7, #16]
 80032ce:	4013      	ands	r3, r2
 80032d0:	613b      	str	r3, [r7, #16]
 80032d2:	683b      	ldr	r3, [r7, #0]
 80032d4:	685a      	ldr	r2, [r3, #4]
 80032d6:	2380      	movs	r3, #128	; 0x80
 80032d8:	029b      	lsls	r3, r3, #10
 80032da:	4013      	ands	r3, r2
 80032dc:	d003      	beq.n	80032e6 <HAL_GPIO_Init+0x27a>
 80032de:	693a      	ldr	r2, [r7, #16]
 80032e0:	68fb      	ldr	r3, [r7, #12]
 80032e2:	4313      	orrs	r3, r2
 80032e4:	613b      	str	r3, [r7, #16]
 80032e6:	4b18      	ldr	r3, [pc, #96]	; (8003348 <HAL_GPIO_Init+0x2dc>)
 80032e8:	693a      	ldr	r2, [r7, #16]
 80032ea:	605a      	str	r2, [r3, #4]
 80032ec:	4b16      	ldr	r3, [pc, #88]	; (8003348 <HAL_GPIO_Init+0x2dc>)
 80032ee:	681b      	ldr	r3, [r3, #0]
 80032f0:	613b      	str	r3, [r7, #16]
 80032f2:	68fb      	ldr	r3, [r7, #12]
 80032f4:	43da      	mvns	r2, r3
 80032f6:	693b      	ldr	r3, [r7, #16]
 80032f8:	4013      	ands	r3, r2
 80032fa:	613b      	str	r3, [r7, #16]
 80032fc:	683b      	ldr	r3, [r7, #0]
 80032fe:	685a      	ldr	r2, [r3, #4]
 8003300:	2380      	movs	r3, #128	; 0x80
 8003302:	025b      	lsls	r3, r3, #9
 8003304:	4013      	ands	r3, r2
 8003306:	d003      	beq.n	8003310 <HAL_GPIO_Init+0x2a4>
 8003308:	693a      	ldr	r2, [r7, #16]
 800330a:	68fb      	ldr	r3, [r7, #12]
 800330c:	4313      	orrs	r3, r2
 800330e:	613b      	str	r3, [r7, #16]
 8003310:	4b0d      	ldr	r3, [pc, #52]	; (8003348 <HAL_GPIO_Init+0x2dc>)
 8003312:	693a      	ldr	r2, [r7, #16]
 8003314:	601a      	str	r2, [r3, #0]
 8003316:	697b      	ldr	r3, [r7, #20]
 8003318:	3301      	adds	r3, #1
 800331a:	617b      	str	r3, [r7, #20]
 800331c:	683b      	ldr	r3, [r7, #0]
 800331e:	681a      	ldr	r2, [r3, #0]
 8003320:	697b      	ldr	r3, [r7, #20]
 8003322:	40da      	lsrs	r2, r3
 8003324:	1e13      	subs	r3, r2, #0
 8003326:	d000      	beq.n	800332a <HAL_GPIO_Init+0x2be>
 8003328:	e6a8      	b.n	800307c <HAL_GPIO_Init+0x10>
 800332a:	46c0      	nop			; (mov r8, r8)
 800332c:	46c0      	nop			; (mov r8, r8)
 800332e:	46bd      	mov	sp, r7
 8003330:	b006      	add	sp, #24
 8003332:	bd80      	pop	{r7, pc}
 8003334:	40021000 	.word	0x40021000
 8003338:	40010000 	.word	0x40010000
 800333c:	48000400 	.word	0x48000400
 8003340:	48000800 	.word	0x48000800
 8003344:	48000c00 	.word	0x48000c00
 8003348:	40010400 	.word	0x40010400

0800334c <HAL_GPIO_ReadPin>:
 800334c:	b580      	push	{r7, lr}
 800334e:	b084      	sub	sp, #16
 8003350:	af00      	add	r7, sp, #0
 8003352:	6078      	str	r0, [r7, #4]
 8003354:	000a      	movs	r2, r1
 8003356:	1cbb      	adds	r3, r7, #2
 8003358:	801a      	strh	r2, [r3, #0]
 800335a:	687b      	ldr	r3, [r7, #4]
 800335c:	691b      	ldr	r3, [r3, #16]
 800335e:	1cba      	adds	r2, r7, #2
 8003360:	8812      	ldrh	r2, [r2, #0]
 8003362:	4013      	ands	r3, r2
 8003364:	d004      	beq.n	8003370 <HAL_GPIO_ReadPin+0x24>
 8003366:	230f      	movs	r3, #15
 8003368:	18fb      	adds	r3, r7, r3
 800336a:	2201      	movs	r2, #1
 800336c:	701a      	strb	r2, [r3, #0]
 800336e:	e003      	b.n	8003378 <HAL_GPIO_ReadPin+0x2c>
 8003370:	230f      	movs	r3, #15
 8003372:	18fb      	adds	r3, r7, r3
 8003374:	2200      	movs	r2, #0
 8003376:	701a      	strb	r2, [r3, #0]
 8003378:	230f      	movs	r3, #15
 800337a:	18fb      	adds	r3, r7, r3
 800337c:	781b      	ldrb	r3, [r3, #0]
 800337e:	0018      	movs	r0, r3
 8003380:	46bd      	mov	sp, r7
 8003382:	b004      	add	sp, #16
 8003384:	bd80      	pop	{r7, pc}

08003386 <HAL_GPIO_WritePin>:
 8003386:	b580      	push	{r7, lr}
 8003388:	b082      	sub	sp, #8
 800338a:	af00      	add	r7, sp, #0
 800338c:	6078      	str	r0, [r7, #4]
 800338e:	0008      	movs	r0, r1
 8003390:	0011      	movs	r1, r2
 8003392:	1cbb      	adds	r3, r7, #2
 8003394:	1c02      	adds	r2, r0, #0
 8003396:	801a      	strh	r2, [r3, #0]
 8003398:	1c7b      	adds	r3, r7, #1
 800339a:	1c0a      	adds	r2, r1, #0
 800339c:	701a      	strb	r2, [r3, #0]
 800339e:	1c7b      	adds	r3, r7, #1
 80033a0:	781b      	ldrb	r3, [r3, #0]
 80033a2:	2b00      	cmp	r3, #0
 80033a4:	d004      	beq.n	80033b0 <HAL_GPIO_WritePin+0x2a>
 80033a6:	1cbb      	adds	r3, r7, #2
 80033a8:	881a      	ldrh	r2, [r3, #0]
 80033aa:	687b      	ldr	r3, [r7, #4]
 80033ac:	619a      	str	r2, [r3, #24]
 80033ae:	e003      	b.n	80033b8 <HAL_GPIO_WritePin+0x32>
 80033b0:	1cbb      	adds	r3, r7, #2
 80033b2:	881a      	ldrh	r2, [r3, #0]
 80033b4:	687b      	ldr	r3, [r7, #4]
 80033b6:	629a      	str	r2, [r3, #40]	; 0x28
 80033b8:	46c0      	nop			; (mov r8, r8)
 80033ba:	46bd      	mov	sp, r7
 80033bc:	b002      	add	sp, #8
 80033be:	bd80      	pop	{r7, pc}

080033c0 <HAL_GPIO_EXTI_IRQHandler>:
 80033c0:	b580      	push	{r7, lr}
 80033c2:	b082      	sub	sp, #8
 80033c4:	af00      	add	r7, sp, #0
 80033c6:	0002      	movs	r2, r0
 80033c8:	1dbb      	adds	r3, r7, #6
 80033ca:	801a      	strh	r2, [r3, #0]
 80033cc:	4b09      	ldr	r3, [pc, #36]	; (80033f4 <HAL_GPIO_EXTI_IRQHandler+0x34>)
 80033ce:	695b      	ldr	r3, [r3, #20]
 80033d0:	1dba      	adds	r2, r7, #6
 80033d2:	8812      	ldrh	r2, [r2, #0]
 80033d4:	4013      	ands	r3, r2
 80033d6:	d008      	beq.n	80033ea <HAL_GPIO_EXTI_IRQHandler+0x2a>
 80033d8:	4b06      	ldr	r3, [pc, #24]	; (80033f4 <HAL_GPIO_EXTI_IRQHandler+0x34>)
 80033da:	1dba      	adds	r2, r7, #6
 80033dc:	8812      	ldrh	r2, [r2, #0]
 80033de:	615a      	str	r2, [r3, #20]
 80033e0:	1dbb      	adds	r3, r7, #6
 80033e2:	881b      	ldrh	r3, [r3, #0]
 80033e4:	0018      	movs	r0, r3
 80033e6:	f7fe fe1d 	bl	8002024 <HAL_GPIO_EXTI_Callback>
 80033ea:	46c0      	nop			; (mov r8, r8)
 80033ec:	46bd      	mov	sp, r7
 80033ee:	b002      	add	sp, #8
 80033f0:	bd80      	pop	{r7, pc}
 80033f2:	46c0      	nop			; (mov r8, r8)
 80033f4:	40010400 	.word	0x40010400

080033f8 <HAL_I2C_Init>:
 80033f8:	b580      	push	{r7, lr}
 80033fa:	b082      	sub	sp, #8
 80033fc:	af00      	add	r7, sp, #0
 80033fe:	6078      	str	r0, [r7, #4]
 8003400:	687b      	ldr	r3, [r7, #4]
 8003402:	2b00      	cmp	r3, #0
 8003404:	d101      	bne.n	800340a <HAL_I2C_Init+0x12>
 8003406:	2301      	movs	r3, #1
 8003408:	e082      	b.n	8003510 <HAL_I2C_Init+0x118>
 800340a:	687b      	ldr	r3, [r7, #4]
 800340c:	2241      	movs	r2, #65	; 0x41
 800340e:	5c9b      	ldrb	r3, [r3, r2]
 8003410:	b2db      	uxtb	r3, r3
 8003412:	2b00      	cmp	r3, #0
 8003414:	d107      	bne.n	8003426 <HAL_I2C_Init+0x2e>
 8003416:	687b      	ldr	r3, [r7, #4]
 8003418:	2240      	movs	r2, #64	; 0x40
 800341a:	2100      	movs	r1, #0
 800341c:	5499      	strb	r1, [r3, r2]
 800341e:	687b      	ldr	r3, [r7, #4]
 8003420:	0018      	movs	r0, r3
 8003422:	f7ff fb01 	bl	8002a28 <HAL_I2C_MspInit>
 8003426:	687b      	ldr	r3, [r7, #4]
 8003428:	2241      	movs	r2, #65	; 0x41
 800342a:	2124      	movs	r1, #36	; 0x24
 800342c:	5499      	strb	r1, [r3, r2]
 800342e:	687b      	ldr	r3, [r7, #4]
 8003430:	681b      	ldr	r3, [r3, #0]
 8003432:	681a      	ldr	r2, [r3, #0]
 8003434:	687b      	ldr	r3, [r7, #4]
 8003436:	681b      	ldr	r3, [r3, #0]
 8003438:	2101      	movs	r1, #1
 800343a:	438a      	bics	r2, r1
 800343c:	601a      	str	r2, [r3, #0]
 800343e:	687b      	ldr	r3, [r7, #4]
 8003440:	685a      	ldr	r2, [r3, #4]
 8003442:	687b      	ldr	r3, [r7, #4]
 8003444:	681b      	ldr	r3, [r3, #0]
 8003446:	4934      	ldr	r1, [pc, #208]	; (8003518 <HAL_I2C_Init+0x120>)
 8003448:	400a      	ands	r2, r1
 800344a:	611a      	str	r2, [r3, #16]
 800344c:	687b      	ldr	r3, [r7, #4]
 800344e:	681b      	ldr	r3, [r3, #0]
 8003450:	689a      	ldr	r2, [r3, #8]
 8003452:	687b      	ldr	r3, [r7, #4]
 8003454:	681b      	ldr	r3, [r3, #0]
 8003456:	4931      	ldr	r1, [pc, #196]	; (800351c <HAL_I2C_Init+0x124>)
 8003458:	400a      	ands	r2, r1
 800345a:	609a      	str	r2, [r3, #8]
 800345c:	687b      	ldr	r3, [r7, #4]
 800345e:	68db      	ldr	r3, [r3, #12]
 8003460:	2b01      	cmp	r3, #1
 8003462:	d108      	bne.n	8003476 <HAL_I2C_Init+0x7e>
 8003464:	687b      	ldr	r3, [r7, #4]
 8003466:	689a      	ldr	r2, [r3, #8]
 8003468:	687b      	ldr	r3, [r7, #4]
 800346a:	681b      	ldr	r3, [r3, #0]
 800346c:	2180      	movs	r1, #128	; 0x80
 800346e:	0209      	lsls	r1, r1, #8
 8003470:	430a      	orrs	r2, r1
 8003472:	609a      	str	r2, [r3, #8]
 8003474:	e007      	b.n	8003486 <HAL_I2C_Init+0x8e>
 8003476:	687b      	ldr	r3, [r7, #4]
 8003478:	689a      	ldr	r2, [r3, #8]
 800347a:	687b      	ldr	r3, [r7, #4]
 800347c:	681b      	ldr	r3, [r3, #0]
 800347e:	2184      	movs	r1, #132	; 0x84
 8003480:	0209      	lsls	r1, r1, #8
 8003482:	430a      	orrs	r2, r1
 8003484:	609a      	str	r2, [r3, #8]
 8003486:	687b      	ldr	r3, [r7, #4]
 8003488:	68db      	ldr	r3, [r3, #12]
 800348a:	2b02      	cmp	r3, #2
 800348c:	d104      	bne.n	8003498 <HAL_I2C_Init+0xa0>
 800348e:	687b      	ldr	r3, [r7, #4]
 8003490:	681b      	ldr	r3, [r3, #0]
 8003492:	2280      	movs	r2, #128	; 0x80
 8003494:	0112      	lsls	r2, r2, #4
 8003496:	605a      	str	r2, [r3, #4]
 8003498:	687b      	ldr	r3, [r7, #4]
 800349a:	681b      	ldr	r3, [r3, #0]
 800349c:	685a      	ldr	r2, [r3, #4]
 800349e:	687b      	ldr	r3, [r7, #4]
 80034a0:	681b      	ldr	r3, [r3, #0]
 80034a2:	491f      	ldr	r1, [pc, #124]	; (8003520 <HAL_I2C_Init+0x128>)
 80034a4:	430a      	orrs	r2, r1
 80034a6:	605a      	str	r2, [r3, #4]
 80034a8:	687b      	ldr	r3, [r7, #4]
 80034aa:	681b      	ldr	r3, [r3, #0]
 80034ac:	68da      	ldr	r2, [r3, #12]
 80034ae:	687b      	ldr	r3, [r7, #4]
 80034b0:	681b      	ldr	r3, [r3, #0]
 80034b2:	491a      	ldr	r1, [pc, #104]	; (800351c <HAL_I2C_Init+0x124>)
 80034b4:	400a      	ands	r2, r1
 80034b6:	60da      	str	r2, [r3, #12]
 80034b8:	687b      	ldr	r3, [r7, #4]
 80034ba:	691a      	ldr	r2, [r3, #16]
 80034bc:	687b      	ldr	r3, [r7, #4]
 80034be:	695b      	ldr	r3, [r3, #20]
 80034c0:	431a      	orrs	r2, r3
 80034c2:	0011      	movs	r1, r2
 80034c4:	687b      	ldr	r3, [r7, #4]
 80034c6:	699b      	ldr	r3, [r3, #24]
 80034c8:	021a      	lsls	r2, r3, #8
 80034ca:	687b      	ldr	r3, [r7, #4]
 80034cc:	681b      	ldr	r3, [r3, #0]
 80034ce:	430a      	orrs	r2, r1
 80034d0:	60da      	str	r2, [r3, #12]
 80034d2:	687b      	ldr	r3, [r7, #4]
 80034d4:	69d9      	ldr	r1, [r3, #28]
 80034d6:	687b      	ldr	r3, [r7, #4]
 80034d8:	6a1a      	ldr	r2, [r3, #32]
 80034da:	687b      	ldr	r3, [r7, #4]
 80034dc:	681b      	ldr	r3, [r3, #0]
 80034de:	430a      	orrs	r2, r1
 80034e0:	601a      	str	r2, [r3, #0]
 80034e2:	687b      	ldr	r3, [r7, #4]
 80034e4:	681b      	ldr	r3, [r3, #0]
 80034e6:	681a      	ldr	r2, [r3, #0]
 80034e8:	687b      	ldr	r3, [r7, #4]
 80034ea:	681b      	ldr	r3, [r3, #0]
 80034ec:	2101      	movs	r1, #1
 80034ee:	430a      	orrs	r2, r1
 80034f0:	601a      	str	r2, [r3, #0]
 80034f2:	687b      	ldr	r3, [r7, #4]
 80034f4:	2200      	movs	r2, #0
 80034f6:	645a      	str	r2, [r3, #68]	; 0x44
 80034f8:	687b      	ldr	r3, [r7, #4]
 80034fa:	2241      	movs	r2, #65	; 0x41
 80034fc:	2120      	movs	r1, #32
 80034fe:	5499      	strb	r1, [r3, r2]
 8003500:	687b      	ldr	r3, [r7, #4]
 8003502:	2200      	movs	r2, #0
 8003504:	631a      	str	r2, [r3, #48]	; 0x30
 8003506:	687b      	ldr	r3, [r7, #4]
 8003508:	2242      	movs	r2, #66	; 0x42
 800350a:	2100      	movs	r1, #0
 800350c:	5499      	strb	r1, [r3, r2]
 800350e:	2300      	movs	r3, #0
 8003510:	0018      	movs	r0, r3
 8003512:	46bd      	mov	sp, r7
 8003514:	b002      	add	sp, #8
 8003516:	bd80      	pop	{r7, pc}
 8003518:	f0ffffff 	.word	0xf0ffffff
 800351c:	ffff7fff 	.word	0xffff7fff
 8003520:	02008000 	.word	0x02008000

08003524 <HAL_I2C_Mem_Write>:
 8003524:	b590      	push	{r4, r7, lr}
 8003526:	b089      	sub	sp, #36	; 0x24
 8003528:	af02      	add	r7, sp, #8
 800352a:	60f8      	str	r0, [r7, #12]
 800352c:	000c      	movs	r4, r1
 800352e:	0010      	movs	r0, r2
 8003530:	0019      	movs	r1, r3
 8003532:	230a      	movs	r3, #10
 8003534:	18fb      	adds	r3, r7, r3
 8003536:	1c22      	adds	r2, r4, #0
 8003538:	801a      	strh	r2, [r3, #0]
 800353a:	2308      	movs	r3, #8
 800353c:	18fb      	adds	r3, r7, r3
 800353e:	1c02      	adds	r2, r0, #0
 8003540:	801a      	strh	r2, [r3, #0]
 8003542:	1dbb      	adds	r3, r7, #6
 8003544:	1c0a      	adds	r2, r1, #0
 8003546:	801a      	strh	r2, [r3, #0]
 8003548:	68fb      	ldr	r3, [r7, #12]
 800354a:	2241      	movs	r2, #65	; 0x41
 800354c:	5c9b      	ldrb	r3, [r3, r2]
 800354e:	b2db      	uxtb	r3, r3
 8003550:	2b20      	cmp	r3, #32
 8003552:	d000      	beq.n	8003556 <HAL_I2C_Mem_Write+0x32>
 8003554:	e10c      	b.n	8003770 <HAL_I2C_Mem_Write+0x24c>
 8003556:	6abb      	ldr	r3, [r7, #40]	; 0x28
 8003558:	2b00      	cmp	r3, #0
 800355a:	d004      	beq.n	8003566 <HAL_I2C_Mem_Write+0x42>
 800355c:	232c      	movs	r3, #44	; 0x2c
 800355e:	18fb      	adds	r3, r7, r3
 8003560:	881b      	ldrh	r3, [r3, #0]
 8003562:	2b00      	cmp	r3, #0
 8003564:	d105      	bne.n	8003572 <HAL_I2C_Mem_Write+0x4e>
 8003566:	68fb      	ldr	r3, [r7, #12]
 8003568:	2280      	movs	r2, #128	; 0x80
 800356a:	0092      	lsls	r2, r2, #2
 800356c:	645a      	str	r2, [r3, #68]	; 0x44
 800356e:	2301      	movs	r3, #1
 8003570:	e0ff      	b.n	8003772 <HAL_I2C_Mem_Write+0x24e>
 8003572:	68fb      	ldr	r3, [r7, #12]
 8003574:	2240      	movs	r2, #64	; 0x40
 8003576:	5c9b      	ldrb	r3, [r3, r2]
 8003578:	2b01      	cmp	r3, #1
 800357a:	d101      	bne.n	8003580 <HAL_I2C_Mem_Write+0x5c>
 800357c:	2302      	movs	r3, #2
 800357e:	e0f8      	b.n	8003772 <HAL_I2C_Mem_Write+0x24e>
 8003580:	68fb      	ldr	r3, [r7, #12]
 8003582:	2240      	movs	r2, #64	; 0x40
 8003584:	2101      	movs	r1, #1
 8003586:	5499      	strb	r1, [r3, r2]
 8003588:	f7ff fc64 	bl	8002e54 <HAL_GetTick>
 800358c:	0003      	movs	r3, r0
 800358e:	617b      	str	r3, [r7, #20]
 8003590:	2380      	movs	r3, #128	; 0x80
 8003592:	0219      	lsls	r1, r3, #8
 8003594:	68f8      	ldr	r0, [r7, #12]
 8003596:	697b      	ldr	r3, [r7, #20]
 8003598:	9300      	str	r3, [sp, #0]
 800359a:	2319      	movs	r3, #25
 800359c:	2201      	movs	r2, #1
 800359e:	f000 fb0b 	bl	8003bb8 <I2C_WaitOnFlagUntilTimeout>
 80035a2:	1e03      	subs	r3, r0, #0
 80035a4:	d001      	beq.n	80035aa <HAL_I2C_Mem_Write+0x86>
 80035a6:	2301      	movs	r3, #1
 80035a8:	e0e3      	b.n	8003772 <HAL_I2C_Mem_Write+0x24e>
 80035aa:	68fb      	ldr	r3, [r7, #12]
 80035ac:	2241      	movs	r2, #65	; 0x41
 80035ae:	2121      	movs	r1, #33	; 0x21
 80035b0:	5499      	strb	r1, [r3, r2]
 80035b2:	68fb      	ldr	r3, [r7, #12]
 80035b4:	2242      	movs	r2, #66	; 0x42
 80035b6:	2140      	movs	r1, #64	; 0x40
 80035b8:	5499      	strb	r1, [r3, r2]
 80035ba:	68fb      	ldr	r3, [r7, #12]
 80035bc:	2200      	movs	r2, #0
 80035be:	645a      	str	r2, [r3, #68]	; 0x44
 80035c0:	68fb      	ldr	r3, [r7, #12]
 80035c2:	6aba      	ldr	r2, [r7, #40]	; 0x28
 80035c4:	625a      	str	r2, [r3, #36]	; 0x24
 80035c6:	68fb      	ldr	r3, [r7, #12]
 80035c8:	222c      	movs	r2, #44	; 0x2c
 80035ca:	18ba      	adds	r2, r7, r2
 80035cc:	8812      	ldrh	r2, [r2, #0]
 80035ce:	855a      	strh	r2, [r3, #42]	; 0x2a
 80035d0:	68fb      	ldr	r3, [r7, #12]
 80035d2:	2200      	movs	r2, #0
 80035d4:	635a      	str	r2, [r3, #52]	; 0x34
 80035d6:	1dbb      	adds	r3, r7, #6
 80035d8:	881c      	ldrh	r4, [r3, #0]
 80035da:	2308      	movs	r3, #8
 80035dc:	18fb      	adds	r3, r7, r3
 80035de:	881a      	ldrh	r2, [r3, #0]
 80035e0:	230a      	movs	r3, #10
 80035e2:	18fb      	adds	r3, r7, r3
 80035e4:	8819      	ldrh	r1, [r3, #0]
 80035e6:	68f8      	ldr	r0, [r7, #12]
 80035e8:	697b      	ldr	r3, [r7, #20]
 80035ea:	9301      	str	r3, [sp, #4]
 80035ec:	6b3b      	ldr	r3, [r7, #48]	; 0x30
 80035ee:	9300      	str	r3, [sp, #0]
 80035f0:	0023      	movs	r3, r4
 80035f2:	f000 f9f9 	bl	80039e8 <I2C_RequestMemoryWrite>
 80035f6:	1e03      	subs	r3, r0, #0
 80035f8:	d005      	beq.n	8003606 <HAL_I2C_Mem_Write+0xe2>
 80035fa:	68fb      	ldr	r3, [r7, #12]
 80035fc:	2240      	movs	r2, #64	; 0x40
 80035fe:	2100      	movs	r1, #0
 8003600:	5499      	strb	r1, [r3, r2]
 8003602:	2301      	movs	r3, #1
 8003604:	e0b5      	b.n	8003772 <HAL_I2C_Mem_Write+0x24e>
 8003606:	68fb      	ldr	r3, [r7, #12]
 8003608:	8d5b      	ldrh	r3, [r3, #42]	; 0x2a
 800360a:	b29b      	uxth	r3, r3
 800360c:	2bff      	cmp	r3, #255	; 0xff
 800360e:	d911      	bls.n	8003634 <HAL_I2C_Mem_Write+0x110>
 8003610:	68fb      	ldr	r3, [r7, #12]
 8003612:	22ff      	movs	r2, #255	; 0xff
 8003614:	851a      	strh	r2, [r3, #40]	; 0x28
 8003616:	68fb      	ldr	r3, [r7, #12]
 8003618:	8d1b      	ldrh	r3, [r3, #40]	; 0x28
 800361a:	b2da      	uxtb	r2, r3
 800361c:	2380      	movs	r3, #128	; 0x80
 800361e:	045c      	lsls	r4, r3, #17
 8003620:	230a      	movs	r3, #10
 8003622:	18fb      	adds	r3, r7, r3
 8003624:	8819      	ldrh	r1, [r3, #0]
 8003626:	68f8      	ldr	r0, [r7, #12]
 8003628:	2300      	movs	r3, #0
 800362a:	9300      	str	r3, [sp, #0]
 800362c:	0023      	movs	r3, r4
 800362e:	f000 fc9b 	bl	8003f68 <I2C_TransferConfig>
 8003632:	e012      	b.n	800365a <HAL_I2C_Mem_Write+0x136>
 8003634:	68fb      	ldr	r3, [r7, #12]
 8003636:	8d5b      	ldrh	r3, [r3, #42]	; 0x2a
 8003638:	b29a      	uxth	r2, r3
 800363a:	68fb      	ldr	r3, [r7, #12]
 800363c:	851a      	strh	r2, [r3, #40]	; 0x28
 800363e:	68fb      	ldr	r3, [r7, #12]
 8003640:	8d1b      	ldrh	r3, [r3, #40]	; 0x28
 8003642:	b2da      	uxtb	r2, r3
 8003644:	2380      	movs	r3, #128	; 0x80
 8003646:	049c      	lsls	r4, r3, #18
 8003648:	230a      	movs	r3, #10
 800364a:	18fb      	adds	r3, r7, r3
 800364c:	8819      	ldrh	r1, [r3, #0]
 800364e:	68f8      	ldr	r0, [r7, #12]
 8003650:	2300      	movs	r3, #0
 8003652:	9300      	str	r3, [sp, #0]
 8003654:	0023      	movs	r3, r4
 8003656:	f000 fc87 	bl	8003f68 <I2C_TransferConfig>
 800365a:	697a      	ldr	r2, [r7, #20]
 800365c:	6b39      	ldr	r1, [r7, #48]	; 0x30
 800365e:	68fb      	ldr	r3, [r7, #12]
 8003660:	0018      	movs	r0, r3
 8003662:	f000 faf7 	bl	8003c54 <I2C_WaitOnTXISFlagUntilTimeout>
 8003666:	1e03      	subs	r3, r0, #0
 8003668:	d001      	beq.n	800366e <HAL_I2C_Mem_Write+0x14a>
 800366a:	2301      	movs	r3, #1
 800366c:	e081      	b.n	8003772 <HAL_I2C_Mem_Write+0x24e>
 800366e:	68fb      	ldr	r3, [r7, #12]
 8003670:	6a5b      	ldr	r3, [r3, #36]	; 0x24
 8003672:	781a      	ldrb	r2, [r3, #0]
 8003674:	68fb      	ldr	r3, [r7, #12]
 8003676:	681b      	ldr	r3, [r3, #0]
 8003678:	629a      	str	r2, [r3, #40]	; 0x28
 800367a:	68fb      	ldr	r3, [r7, #12]
 800367c:	6a5b      	ldr	r3, [r3, #36]	; 0x24
 800367e:	1c5a      	adds	r2, r3, #1
 8003680:	68fb      	ldr	r3, [r7, #12]
 8003682:	625a      	str	r2, [r3, #36]	; 0x24
 8003684:	68fb      	ldr	r3, [r7, #12]
 8003686:	8d5b      	ldrh	r3, [r3, #42]	; 0x2a
 8003688:	b29b      	uxth	r3, r3
 800368a:	3b01      	subs	r3, #1
 800368c:	b29a      	uxth	r2, r3
 800368e:	68fb      	ldr	r3, [r7, #12]
 8003690:	855a      	strh	r2, [r3, #42]	; 0x2a
 8003692:	68fb      	ldr	r3, [r7, #12]
 8003694:	8d1b      	ldrh	r3, [r3, #40]	; 0x28
 8003696:	3b01      	subs	r3, #1
 8003698:	b29a      	uxth	r2, r3
 800369a:	68fb      	ldr	r3, [r7, #12]
 800369c:	851a      	strh	r2, [r3, #40]	; 0x28
 800369e:	68fb      	ldr	r3, [r7, #12]
 80036a0:	8d5b      	ldrh	r3, [r3, #42]	; 0x2a
 80036a2:	b29b      	uxth	r3, r3
 80036a4:	2b00      	cmp	r3, #0
 80036a6:	d03a      	beq.n	800371e <HAL_I2C_Mem_Write+0x1fa>
 80036a8:	68fb      	ldr	r3, [r7, #12]
 80036aa:	8d1b      	ldrh	r3, [r3, #40]	; 0x28
 80036ac:	2b00      	cmp	r3, #0
 80036ae:	d136      	bne.n	800371e <HAL_I2C_Mem_Write+0x1fa>
 80036b0:	6b3a      	ldr	r2, [r7, #48]	; 0x30
 80036b2:	68f8      	ldr	r0, [r7, #12]
 80036b4:	697b      	ldr	r3, [r7, #20]
 80036b6:	9300      	str	r3, [sp, #0]
 80036b8:	0013      	movs	r3, r2
 80036ba:	2200      	movs	r2, #0
 80036bc:	2180      	movs	r1, #128	; 0x80
 80036be:	f000 fa7b 	bl	8003bb8 <I2C_WaitOnFlagUntilTimeout>
 80036c2:	1e03      	subs	r3, r0, #0
 80036c4:	d001      	beq.n	80036ca <HAL_I2C_Mem_Write+0x1a6>
 80036c6:	2301      	movs	r3, #1
 80036c8:	e053      	b.n	8003772 <HAL_I2C_Mem_Write+0x24e>
 80036ca:	68fb      	ldr	r3, [r7, #12]
 80036cc:	8d5b      	ldrh	r3, [r3, #42]	; 0x2a
 80036ce:	b29b      	uxth	r3, r3
 80036d0:	2bff      	cmp	r3, #255	; 0xff
 80036d2:	d911      	bls.n	80036f8 <HAL_I2C_Mem_Write+0x1d4>
 80036d4:	68fb      	ldr	r3, [r7, #12]
 80036d6:	22ff      	movs	r2, #255	; 0xff
 80036d8:	851a      	strh	r2, [r3, #40]	; 0x28
 80036da:	68fb      	ldr	r3, [r7, #12]
 80036dc:	8d1b      	ldrh	r3, [r3, #40]	; 0x28
 80036de:	b2da      	uxtb	r2, r3
 80036e0:	2380      	movs	r3, #128	; 0x80
 80036e2:	045c      	lsls	r4, r3, #17
 80036e4:	230a      	movs	r3, #10
 80036e6:	18fb      	adds	r3, r7, r3
 80036e8:	8819      	ldrh	r1, [r3, #0]
 80036ea:	68f8      	ldr	r0, [r7, #12]
 80036ec:	2300      	movs	r3, #0
 80036ee:	9300      	str	r3, [sp, #0]
 80036f0:	0023      	movs	r3, r4
 80036f2:	f000 fc39 	bl	8003f68 <I2C_TransferConfig>
 80036f6:	e012      	b.n	800371e <HAL_I2C_Mem_Write+0x1fa>
 80036f8:	68fb      	ldr	r3, [r7, #12]
 80036fa:	8d5b      	ldrh	r3, [r3, #42]	; 0x2a
 80036fc:	b29a      	uxth	r2, r3
 80036fe:	68fb      	ldr	r3, [r7, #12]
 8003700:	851a      	strh	r2, [r3, #40]	; 0x28
 8003702:	68fb      	ldr	r3, [r7, #12]
 8003704:	8d1b      	ldrh	r3, [r3, #40]	; 0x28
 8003706:	b2da      	uxtb	r2, r3
 8003708:	2380      	movs	r3, #128	; 0x80
 800370a:	049c      	lsls	r4, r3, #18
 800370c:	230a      	movs	r3, #10
 800370e:	18fb      	adds	r3, r7, r3
 8003710:	8819      	ldrh	r1, [r3, #0]
 8003712:	68f8      	ldr	r0, [r7, #12]
 8003714:	2300      	movs	r3, #0
 8003716:	9300      	str	r3, [sp, #0]
 8003718:	0023      	movs	r3, r4
 800371a:	f000 fc25 	bl	8003f68 <I2C_TransferConfig>
 800371e:	68fb      	ldr	r3, [r7, #12]
 8003720:	8d5b      	ldrh	r3, [r3, #42]	; 0x2a
 8003722:	b29b      	uxth	r3, r3
 8003724:	2b00      	cmp	r3, #0
 8003726:	d198      	bne.n	800365a <HAL_I2C_Mem_Write+0x136>
 8003728:	697a      	ldr	r2, [r7, #20]
 800372a:	6b39      	ldr	r1, [r7, #48]	; 0x30
 800372c:	68fb      	ldr	r3, [r7, #12]
 800372e:	0018      	movs	r0, r3
 8003730:	f000 fad6 	bl	8003ce0 <I2C_WaitOnSTOPFlagUntilTimeout>
 8003734:	1e03      	subs	r3, r0, #0
 8003736:	d001      	beq.n	800373c <HAL_I2C_Mem_Write+0x218>
 8003738:	2301      	movs	r3, #1
 800373a:	e01a      	b.n	8003772 <HAL_I2C_Mem_Write+0x24e>
 800373c:	68fb      	ldr	r3, [r7, #12]
 800373e:	681b      	ldr	r3, [r3, #0]
 8003740:	2220      	movs	r2, #32
 8003742:	61da      	str	r2, [r3, #28]
 8003744:	68fb      	ldr	r3, [r7, #12]
 8003746:	681b      	ldr	r3, [r3, #0]
 8003748:	685a      	ldr	r2, [r3, #4]
 800374a:	68fb      	ldr	r3, [r7, #12]
 800374c:	681b      	ldr	r3, [r3, #0]
 800374e:	490b      	ldr	r1, [pc, #44]	; (800377c <HAL_I2C_Mem_Write+0x258>)
 8003750:	400a      	ands	r2, r1
 8003752:	605a      	str	r2, [r3, #4]
 8003754:	68fb      	ldr	r3, [r7, #12]
 8003756:	2241      	movs	r2, #65	; 0x41
 8003758:	2120      	movs	r1, #32
 800375a:	5499      	strb	r1, [r3, r2]
 800375c:	68fb      	ldr	r3, [r7, #12]
 800375e:	2242      	movs	r2, #66	; 0x42
 8003760:	2100      	movs	r1, #0
 8003762:	5499      	strb	r1, [r3, r2]
 8003764:	68fb      	ldr	r3, [r7, #12]
 8003766:	2240      	movs	r2, #64	; 0x40
 8003768:	2100      	movs	r1, #0
 800376a:	5499      	strb	r1, [r3, r2]
 800376c:	2300      	movs	r3, #0
 800376e:	e000      	b.n	8003772 <HAL_I2C_Mem_Write+0x24e>
 8003770:	2302      	movs	r3, #2
 8003772:	0018      	movs	r0, r3
 8003774:	46bd      	mov	sp, r7
 8003776:	b007      	add	sp, #28
 8003778:	bd90      	pop	{r4, r7, pc}
 800377a:	46c0      	nop			; (mov r8, r8)
 800377c:	fe00e800 	.word	0xfe00e800

08003780 <HAL_I2C_Mem_Read>:
 8003780:	b590      	push	{r4, r7, lr}
 8003782:	b089      	sub	sp, #36	; 0x24
 8003784:	af02      	add	r7, sp, #8
 8003786:	60f8      	str	r0, [r7, #12]
 8003788:	000c      	movs	r4, r1
 800378a:	0010      	movs	r0, r2
 800378c:	0019      	movs	r1, r3
 800378e:	230a      	movs	r3, #10
 8003790:	18fb      	adds	r3, r7, r3
 8003792:	1c22      	adds	r2, r4, #0
 8003794:	801a      	strh	r2, [r3, #0]
 8003796:	2308      	movs	r3, #8
 8003798:	18fb      	adds	r3, r7, r3
 800379a:	1c02      	adds	r2, r0, #0
 800379c:	801a      	strh	r2, [r3, #0]
 800379e:	1dbb      	adds	r3, r7, #6
 80037a0:	1c0a      	adds	r2, r1, #0
 80037a2:	801a      	strh	r2, [r3, #0]
 80037a4:	68fb      	ldr	r3, [r7, #12]
 80037a6:	2241      	movs	r2, #65	; 0x41
 80037a8:	5c9b      	ldrb	r3, [r3, r2]
 80037aa:	b2db      	uxtb	r3, r3
 80037ac:	2b20      	cmp	r3, #32
 80037ae:	d000      	beq.n	80037b2 <HAL_I2C_Mem_Read+0x32>
 80037b0:	e110      	b.n	80039d4 <HAL_I2C_Mem_Read+0x254>
 80037b2:	6abb      	ldr	r3, [r7, #40]	; 0x28
 80037b4:	2b00      	cmp	r3, #0
 80037b6:	d004      	beq.n	80037c2 <HAL_I2C_Mem_Read+0x42>
 80037b8:	232c      	movs	r3, #44	; 0x2c
 80037ba:	18fb      	adds	r3, r7, r3
 80037bc:	881b      	ldrh	r3, [r3, #0]
 80037be:	2b00      	cmp	r3, #0
 80037c0:	d105      	bne.n	80037ce <HAL_I2C_Mem_Read+0x4e>
 80037c2:	68fb      	ldr	r3, [r7, #12]
 80037c4:	2280      	movs	r2, #128	; 0x80
 80037c6:	0092      	lsls	r2, r2, #2
 80037c8:	645a      	str	r2, [r3, #68]	; 0x44
 80037ca:	2301      	movs	r3, #1
 80037cc:	e103      	b.n	80039d6 <HAL_I2C_Mem_Read+0x256>
 80037ce:	68fb      	ldr	r3, [r7, #12]
 80037d0:	2240      	movs	r2, #64	; 0x40
 80037d2:	5c9b      	ldrb	r3, [r3, r2]
 80037d4:	2b01      	cmp	r3, #1
 80037d6:	d101      	bne.n	80037dc <HAL_I2C_Mem_Read+0x5c>
 80037d8:	2302      	movs	r3, #2
 80037da:	e0fc      	b.n	80039d6 <HAL_I2C_Mem_Read+0x256>
 80037dc:	68fb      	ldr	r3, [r7, #12]
 80037de:	2240      	movs	r2, #64	; 0x40
 80037e0:	2101      	movs	r1, #1
 80037e2:	5499      	strb	r1, [r3, r2]
 80037e4:	f7ff fb36 	bl	8002e54 <HAL_GetTick>
 80037e8:	0003      	movs	r3, r0
 80037ea:	617b      	str	r3, [r7, #20]
 80037ec:	2380      	movs	r3, #128	; 0x80
 80037ee:	0219      	lsls	r1, r3, #8
 80037f0:	68f8      	ldr	r0, [r7, #12]
 80037f2:	697b      	ldr	r3, [r7, #20]
 80037f4:	9300      	str	r3, [sp, #0]
 80037f6:	2319      	movs	r3, #25
 80037f8:	2201      	movs	r2, #1
 80037fa:	f000 f9dd 	bl	8003bb8 <I2C_WaitOnFlagUntilTimeout>
 80037fe:	1e03      	subs	r3, r0, #0
 8003800:	d001      	beq.n	8003806 <HAL_I2C_Mem_Read+0x86>
 8003802:	2301      	movs	r3, #1
 8003804:	e0e7      	b.n	80039d6 <HAL_I2C_Mem_Read+0x256>
 8003806:	68fb      	ldr	r3, [r7, #12]
 8003808:	2241      	movs	r2, #65	; 0x41
 800380a:	2122      	movs	r1, #34	; 0x22
 800380c:	5499      	strb	r1, [r3, r2]
 800380e:	68fb      	ldr	r3, [r7, #12]
 8003810:	2242      	movs	r2, #66	; 0x42
 8003812:	2140      	movs	r1, #64	; 0x40
 8003814:	5499      	strb	r1, [r3, r2]
 8003816:	68fb      	ldr	r3, [r7, #12]
 8003818:	2200      	movs	r2, #0
 800381a:	645a      	str	r2, [r3, #68]	; 0x44
 800381c:	68fb      	ldr	r3, [r7, #12]
 800381e:	6aba      	ldr	r2, [r7, #40]	; 0x28
 8003820:	625a      	str	r2, [r3, #36]	; 0x24
 8003822:	68fb      	ldr	r3, [r7, #12]
 8003824:	222c      	movs	r2, #44	; 0x2c
 8003826:	18ba      	adds	r2, r7, r2
 8003828:	8812      	ldrh	r2, [r2, #0]
 800382a:	855a      	strh	r2, [r3, #42]	; 0x2a
 800382c:	68fb      	ldr	r3, [r7, #12]
 800382e:	2200      	movs	r2, #0
 8003830:	635a      	str	r2, [r3, #52]	; 0x34
 8003832:	1dbb      	adds	r3, r7, #6
 8003834:	881c      	ldrh	r4, [r3, #0]
 8003836:	2308      	movs	r3, #8
 8003838:	18fb      	adds	r3, r7, r3
 800383a:	881a      	ldrh	r2, [r3, #0]
 800383c:	230a      	movs	r3, #10
 800383e:	18fb      	adds	r3, r7, r3
 8003840:	8819      	ldrh	r1, [r3, #0]
 8003842:	68f8      	ldr	r0, [r7, #12]
 8003844:	697b      	ldr	r3, [r7, #20]
 8003846:	9301      	str	r3, [sp, #4]
 8003848:	6b3b      	ldr	r3, [r7, #48]	; 0x30
 800384a:	9300      	str	r3, [sp, #0]
 800384c:	0023      	movs	r3, r4
 800384e:	f000 f92f 	bl	8003ab0 <I2C_RequestMemoryRead>
 8003852:	1e03      	subs	r3, r0, #0
 8003854:	d005      	beq.n	8003862 <HAL_I2C_Mem_Read+0xe2>
 8003856:	68fb      	ldr	r3, [r7, #12]
 8003858:	2240      	movs	r2, #64	; 0x40
 800385a:	2100      	movs	r1, #0
 800385c:	5499      	strb	r1, [r3, r2]
 800385e:	2301      	movs	r3, #1
 8003860:	e0b9      	b.n	80039d6 <HAL_I2C_Mem_Read+0x256>
 8003862:	68fb      	ldr	r3, [r7, #12]
 8003864:	8d5b      	ldrh	r3, [r3, #42]	; 0x2a
 8003866:	b29b      	uxth	r3, r3
 8003868:	2bff      	cmp	r3, #255	; 0xff
 800386a:	d911      	bls.n	8003890 <HAL_I2C_Mem_Read+0x110>
 800386c:	68fb      	ldr	r3, [r7, #12]
 800386e:	22ff      	movs	r2, #255	; 0xff
 8003870:	851a      	strh	r2, [r3, #40]	; 0x28
 8003872:	68fb      	ldr	r3, [r7, #12]
 8003874:	8d1b      	ldrh	r3, [r3, #40]	; 0x28
 8003876:	b2da      	uxtb	r2, r3
 8003878:	2380      	movs	r3, #128	; 0x80
 800387a:	045c      	lsls	r4, r3, #17
 800387c:	230a      	movs	r3, #10
 800387e:	18fb      	adds	r3, r7, r3
 8003880:	8819      	ldrh	r1, [r3, #0]
 8003882:	68f8      	ldr	r0, [r7, #12]
 8003884:	4b56      	ldr	r3, [pc, #344]	; (80039e0 <HAL_I2C_Mem_Read+0x260>)
 8003886:	9300      	str	r3, [sp, #0]
 8003888:	0023      	movs	r3, r4
 800388a:	f000 fb6d 	bl	8003f68 <I2C_TransferConfig>
 800388e:	e012      	b.n	80038b6 <HAL_I2C_Mem_Read+0x136>
 8003890:	68fb      	ldr	r3, [r7, #12]
 8003892:	8d5b      	ldrh	r3, [r3, #42]	; 0x2a
 8003894:	b29a      	uxth	r2, r3
 8003896:	68fb      	ldr	r3, [r7, #12]
 8003898:	851a      	strh	r2, [r3, #40]	; 0x28
 800389a:	68fb      	ldr	r3, [r7, #12]
 800389c:	8d1b      	ldrh	r3, [r3, #40]	; 0x28
 800389e:	b2da      	uxtb	r2, r3
 80038a0:	2380      	movs	r3, #128	; 0x80
 80038a2:	049c      	lsls	r4, r3, #18
 80038a4:	230a      	movs	r3, #10
 80038a6:	18fb      	adds	r3, r7, r3
 80038a8:	8819      	ldrh	r1, [r3, #0]
 80038aa:	68f8      	ldr	r0, [r7, #12]
 80038ac:	4b4c      	ldr	r3, [pc, #304]	; (80039e0 <HAL_I2C_Mem_Read+0x260>)
 80038ae:	9300      	str	r3, [sp, #0]
 80038b0:	0023      	movs	r3, r4
 80038b2:	f000 fb59 	bl	8003f68 <I2C_TransferConfig>
 80038b6:	6b3a      	ldr	r2, [r7, #48]	; 0x30
 80038b8:	68f8      	ldr	r0, [r7, #12]
 80038ba:	697b      	ldr	r3, [r7, #20]
 80038bc:	9300      	str	r3, [sp, #0]
 80038be:	0013      	movs	r3, r2
 80038c0:	2200      	movs	r2, #0
 80038c2:	2104      	movs	r1, #4
 80038c4:	f000 f978 	bl	8003bb8 <I2C_WaitOnFlagUntilTimeout>
 80038c8:	1e03      	subs	r3, r0, #0
 80038ca:	d001      	beq.n	80038d0 <HAL_I2C_Mem_Read+0x150>
 80038cc:	2301      	movs	r3, #1
 80038ce:	e082      	b.n	80039d6 <HAL_I2C_Mem_Read+0x256>
 80038d0:	68fb      	ldr	r3, [r7, #12]
 80038d2:	681b      	ldr	r3, [r3, #0]
 80038d4:	6a5a      	ldr	r2, [r3, #36]	; 0x24
 80038d6:	68fb      	ldr	r3, [r7, #12]
 80038d8:	6a5b      	ldr	r3, [r3, #36]	; 0x24
 80038da:	b2d2      	uxtb	r2, r2
 80038dc:	701a      	strb	r2, [r3, #0]
 80038de:	68fb      	ldr	r3, [r7, #12]
 80038e0:	6a5b      	ldr	r3, [r3, #36]	; 0x24
 80038e2:	1c5a      	adds	r2, r3, #1
 80038e4:	68fb      	ldr	r3, [r7, #12]
 80038e6:	625a      	str	r2, [r3, #36]	; 0x24
 80038e8:	68fb      	ldr	r3, [r7, #12]
 80038ea:	8d1b      	ldrh	r3, [r3, #40]	; 0x28
 80038ec:	3b01      	subs	r3, #1
 80038ee:	b29a      	uxth	r2, r3
 80038f0:	68fb      	ldr	r3, [r7, #12]
 80038f2:	851a      	strh	r2, [r3, #40]	; 0x28
 80038f4:	68fb      	ldr	r3, [r7, #12]
 80038f6:	8d5b      	ldrh	r3, [r3, #42]	; 0x2a
 80038f8:	b29b      	uxth	r3, r3
 80038fa:	3b01      	subs	r3, #1
 80038fc:	b29a      	uxth	r2, r3
 80038fe:	68fb      	ldr	r3, [r7, #12]
 8003900:	855a      	strh	r2, [r3, #42]	; 0x2a
 8003902:	68fb      	ldr	r3, [r7, #12]
 8003904:	8d5b      	ldrh	r3, [r3, #42]	; 0x2a
 8003906:	b29b      	uxth	r3, r3
 8003908:	2b00      	cmp	r3, #0
 800390a:	d03a      	beq.n	8003982 <HAL_I2C_Mem_Read+0x202>
 800390c:	68fb      	ldr	r3, [r7, #12]
 800390e:	8d1b      	ldrh	r3, [r3, #40]	; 0x28
 8003910:	2b00      	cmp	r3, #0
 8003912:	d136      	bne.n	8003982 <HAL_I2C_Mem_Read+0x202>
 8003914:	6b3a      	ldr	r2, [r7, #48]	; 0x30
 8003916:	68f8      	ldr	r0, [r7, #12]
 8003918:	697b      	ldr	r3, [r7, #20]
 800391a:	9300      	str	r3, [sp, #0]
 800391c:	0013      	movs	r3, r2
 800391e:	2200      	movs	r2, #0
 8003920:	2180      	movs	r1, #128	; 0x80
 8003922:	f000 f949 	bl	8003bb8 <I2C_WaitOnFlagUntilTimeout>
 8003926:	1e03      	subs	r3, r0, #0
 8003928:	d001      	beq.n	800392e <HAL_I2C_Mem_Read+0x1ae>
 800392a:	2301      	movs	r3, #1
 800392c:	e053      	b.n	80039d6 <HAL_I2C_Mem_Read+0x256>
 800392e:	68fb      	ldr	r3, [r7, #12]
 8003930:	8d5b      	ldrh	r3, [r3, #42]	; 0x2a
 8003932:	b29b      	uxth	r3, r3
 8003934:	2bff      	cmp	r3, #255	; 0xff
 8003936:	d911      	bls.n	800395c <HAL_I2C_Mem_Read+0x1dc>
 8003938:	68fb      	ldr	r3, [r7, #12]
 800393a:	22ff      	movs	r2, #255	; 0xff
 800393c:	851a      	strh	r2, [r3, #40]	; 0x28
 800393e:	68fb      	ldr	r3, [r7, #12]
 8003940:	8d1b      	ldrh	r3, [r3, #40]	; 0x28
 8003942:	b2da      	uxtb	r2, r3
 8003944:	2380      	movs	r3, #128	; 0x80
 8003946:	045c      	lsls	r4, r3, #17
 8003948:	230a      	movs	r3, #10
 800394a:	18fb      	adds	r3, r7, r3
 800394c:	8819      	ldrh	r1, [r3, #0]
 800394e:	68f8      	ldr	r0, [r7, #12]
 8003950:	2300      	movs	r3, #0
 8003952:	9300      	str	r3, [sp, #0]
 8003954:	0023      	movs	r3, r4
 8003956:	f000 fb07 	bl	8003f68 <I2C_TransferConfig>
 800395a:	e012      	b.n	8003982 <HAL_I2C_Mem_Read+0x202>
 800395c:	68fb      	ldr	r3, [r7, #12]
 800395e:	8d5b      	ldrh	r3, [r3, #42]	; 0x2a
 8003960:	b29a      	uxth	r2, r3
 8003962:	68fb      	ldr	r3, [r7, #12]
 8003964:	851a      	strh	r2, [r3, #40]	; 0x28
 8003966:	68fb      	ldr	r3, [r7, #12]
 8003968:	8d1b      	ldrh	r3, [r3, #40]	; 0x28
 800396a:	b2da      	uxtb	r2, r3
 800396c:	2380      	movs	r3, #128	; 0x80
 800396e:	049c      	lsls	r4, r3, #18
 8003970:	230a      	movs	r3, #10
 8003972:	18fb      	adds	r3, r7, r3
 8003974:	8819      	ldrh	r1, [r3, #0]
 8003976:	68f8      	ldr	r0, [r7, #12]
 8003978:	2300      	movs	r3, #0
 800397a:	9300      	str	r3, [sp, #0]
 800397c:	0023      	movs	r3, r4
 800397e:	f000 faf3 	bl	8003f68 <I2C_TransferConfig>
 8003982:	68fb      	ldr	r3, [r7, #12]
 8003984:	8d5b      	ldrh	r3, [r3, #42]	; 0x2a
 8003986:	b29b      	uxth	r3, r3
 8003988:	2b00      	cmp	r3, #0
 800398a:	d194      	bne.n	80038b6 <HAL_I2C_Mem_Read+0x136>
 800398c:	697a      	ldr	r2, [r7, #20]
 800398e:	6b39      	ldr	r1, [r7, #48]	; 0x30
 8003990:	68fb      	ldr	r3, [r7, #12]
 8003992:	0018      	movs	r0, r3
 8003994:	f000 f9a4 	bl	8003ce0 <I2C_WaitOnSTOPFlagUntilTimeout>
 8003998:	1e03      	subs	r3, r0, #0
 800399a:	d001      	beq.n	80039a0 <HAL_I2C_Mem_Read+0x220>
 800399c:	2301      	movs	r3, #1
 800399e:	e01a      	b.n	80039d6 <HAL_I2C_Mem_Read+0x256>
 80039a0:	68fb      	ldr	r3, [r7, #12]
 80039a2:	681b      	ldr	r3, [r3, #0]
 80039a4:	2220      	movs	r2, #32
 80039a6:	61da      	str	r2, [r3, #28]
 80039a8:	68fb      	ldr	r3, [r7, #12]
 80039aa:	681b      	ldr	r3, [r3, #0]
 80039ac:	685a      	ldr	r2, [r3, #4]
 80039ae:	68fb      	ldr	r3, [r7, #12]
 80039b0:	681b      	ldr	r3, [r3, #0]
 80039b2:	490c      	ldr	r1, [pc, #48]	; (80039e4 <HAL_I2C_Mem_Read+0x264>)
 80039b4:	400a      	ands	r2, r1
 80039b6:	605a      	str	r2, [r3, #4]
 80039b8:	68fb      	ldr	r3, [r7, #12]
 80039ba:	2241      	movs	r2, #65	; 0x41
 80039bc:	2120      	movs	r1, #32
 80039be:	5499      	strb	r1, [r3, r2]
 80039c0:	68fb      	ldr	r3, [r7, #12]
 80039c2:	2242      	movs	r2, #66	; 0x42
 80039c4:	2100      	movs	r1, #0
 80039c6:	5499      	strb	r1, [r3, r2]
 80039c8:	68fb      	ldr	r3, [r7, #12]
 80039ca:	2240      	movs	r2, #64	; 0x40
 80039cc:	2100      	movs	r1, #0
 80039ce:	5499      	strb	r1, [r3, r2]
 80039d0:	2300      	movs	r3, #0
 80039d2:	e000      	b.n	80039d6 <HAL_I2C_Mem_Read+0x256>
 80039d4:	2302      	movs	r3, #2
 80039d6:	0018      	movs	r0, r3
 80039d8:	46bd      	mov	sp, r7
 80039da:	b007      	add	sp, #28
 80039dc:	bd90      	pop	{r4, r7, pc}
 80039de:	46c0      	nop			; (mov r8, r8)
 80039e0:	80002400 	.word	0x80002400
 80039e4:	fe00e800 	.word	0xfe00e800

080039e8 <I2C_RequestMemoryWrite>:
 80039e8:	b5b0      	push	{r4, r5, r7, lr}
 80039ea:	b086      	sub	sp, #24
 80039ec:	af02      	add	r7, sp, #8
 80039ee:	60f8      	str	r0, [r7, #12]
 80039f0:	000c      	movs	r4, r1
 80039f2:	0010      	movs	r0, r2
 80039f4:	0019      	movs	r1, r3
 80039f6:	250a      	movs	r5, #10
 80039f8:	197b      	adds	r3, r7, r5
 80039fa:	1c22      	adds	r2, r4, #0
 80039fc:	801a      	strh	r2, [r3, #0]
 80039fe:	2308      	movs	r3, #8
 8003a00:	18fb      	adds	r3, r7, r3
 8003a02:	1c02      	adds	r2, r0, #0
 8003a04:	801a      	strh	r2, [r3, #0]
 8003a06:	1dbb      	adds	r3, r7, #6
 8003a08:	1c0a      	adds	r2, r1, #0
 8003a0a:	801a      	strh	r2, [r3, #0]
 8003a0c:	1dbb      	adds	r3, r7, #6
 8003a0e:	881b      	ldrh	r3, [r3, #0]
 8003a10:	b2da      	uxtb	r2, r3
 8003a12:	2380      	movs	r3, #128	; 0x80
 8003a14:	045c      	lsls	r4, r3, #17
 8003a16:	197b      	adds	r3, r7, r5
 8003a18:	8819      	ldrh	r1, [r3, #0]
 8003a1a:	68f8      	ldr	r0, [r7, #12]
 8003a1c:	4b23      	ldr	r3, [pc, #140]	; (8003aac <I2C_RequestMemoryWrite+0xc4>)
 8003a1e:	9300      	str	r3, [sp, #0]
 8003a20:	0023      	movs	r3, r4
 8003a22:	f000 faa1 	bl	8003f68 <I2C_TransferConfig>
 8003a26:	6a7a      	ldr	r2, [r7, #36]	; 0x24
 8003a28:	6a39      	ldr	r1, [r7, #32]
 8003a2a:	68fb      	ldr	r3, [r7, #12]
 8003a2c:	0018      	movs	r0, r3
 8003a2e:	f000 f911 	bl	8003c54 <I2C_WaitOnTXISFlagUntilTimeout>
 8003a32:	1e03      	subs	r3, r0, #0
 8003a34:	d001      	beq.n	8003a3a <I2C_RequestMemoryWrite+0x52>
 8003a36:	2301      	movs	r3, #1
 8003a38:	e033      	b.n	8003aa2 <I2C_RequestMemoryWrite+0xba>
 8003a3a:	1dbb      	adds	r3, r7, #6
 8003a3c:	881b      	ldrh	r3, [r3, #0]
 8003a3e:	2b01      	cmp	r3, #1
 8003a40:	d107      	bne.n	8003a52 <I2C_RequestMemoryWrite+0x6a>
 8003a42:	2308      	movs	r3, #8
 8003a44:	18fb      	adds	r3, r7, r3
 8003a46:	881b      	ldrh	r3, [r3, #0]
 8003a48:	b2da      	uxtb	r2, r3
 8003a4a:	68fb      	ldr	r3, [r7, #12]
 8003a4c:	681b      	ldr	r3, [r3, #0]
 8003a4e:	629a      	str	r2, [r3, #40]	; 0x28
 8003a50:	e019      	b.n	8003a86 <I2C_RequestMemoryWrite+0x9e>
 8003a52:	2308      	movs	r3, #8
 8003a54:	18fb      	adds	r3, r7, r3
 8003a56:	881b      	ldrh	r3, [r3, #0]
 8003a58:	0a1b      	lsrs	r3, r3, #8
 8003a5a:	b29b      	uxth	r3, r3
 8003a5c:	b2da      	uxtb	r2, r3
 8003a5e:	68fb      	ldr	r3, [r7, #12]
 8003a60:	681b      	ldr	r3, [r3, #0]
 8003a62:	629a      	str	r2, [r3, #40]	; 0x28
 8003a64:	6a7a      	ldr	r2, [r7, #36]	; 0x24
 8003a66:	6a39      	ldr	r1, [r7, #32]
 8003a68:	68fb      	ldr	r3, [r7, #12]
 8003a6a:	0018      	movs	r0, r3
 8003a6c:	f000 f8f2 	bl	8003c54 <I2C_WaitOnTXISFlagUntilTimeout>
 8003a70:	1e03      	subs	r3, r0, #0
 8003a72:	d001      	beq.n	8003a78 <I2C_RequestMemoryWrite+0x90>
 8003a74:	2301      	movs	r3, #1
 8003a76:	e014      	b.n	8003aa2 <I2C_RequestMemoryWrite+0xba>
 8003a78:	2308      	movs	r3, #8
 8003a7a:	18fb      	adds	r3, r7, r3
 8003a7c:	881b      	ldrh	r3, [r3, #0]
 8003a7e:	b2da      	uxtb	r2, r3
 8003a80:	68fb      	ldr	r3, [r7, #12]
 8003a82:	681b      	ldr	r3, [r3, #0]
 8003a84:	629a      	str	r2, [r3, #40]	; 0x28
 8003a86:	6a3a      	ldr	r2, [r7, #32]
 8003a88:	68f8      	ldr	r0, [r7, #12]
 8003a8a:	6a7b      	ldr	r3, [r7, #36]	; 0x24
 8003a8c:	9300      	str	r3, [sp, #0]
 8003a8e:	0013      	movs	r3, r2
 8003a90:	2200      	movs	r2, #0
 8003a92:	2180      	movs	r1, #128	; 0x80
 8003a94:	f000 f890 	bl	8003bb8 <I2C_WaitOnFlagUntilTimeout>
 8003a98:	1e03      	subs	r3, r0, #0
 8003a9a:	d001      	beq.n	8003aa0 <I2C_RequestMemoryWrite+0xb8>
 8003a9c:	2301      	movs	r3, #1
 8003a9e:	e000      	b.n	8003aa2 <I2C_RequestMemoryWrite+0xba>
 8003aa0:	2300      	movs	r3, #0
 8003aa2:	0018      	movs	r0, r3
 8003aa4:	46bd      	mov	sp, r7
 8003aa6:	b004      	add	sp, #16
 8003aa8:	bdb0      	pop	{r4, r5, r7, pc}
 8003aaa:	46c0      	nop			; (mov r8, r8)
 8003aac:	80002000 	.word	0x80002000

08003ab0 <I2C_RequestMemoryRead>:
 8003ab0:	b5b0      	push	{r4, r5, r7, lr}
 8003ab2:	b086      	sub	sp, #24
 8003ab4:	af02      	add	r7, sp, #8
 8003ab6:	60f8      	str	r0, [r7, #12]
 8003ab8:	000c      	movs	r4, r1
 8003aba:	0010      	movs	r0, r2
 8003abc:	0019      	movs	r1, r3
 8003abe:	250a      	movs	r5, #10
 8003ac0:	197b      	adds	r3, r7, r5
 8003ac2:	1c22      	adds	r2, r4, #0
 8003ac4:	801a      	strh	r2, [r3, #0]
 8003ac6:	2308      	movs	r3, #8
 8003ac8:	18fb      	adds	r3, r7, r3
 8003aca:	1c02      	adds	r2, r0, #0
 8003acc:	801a      	strh	r2, [r3, #0]
 8003ace:	1dbb      	adds	r3, r7, #6
 8003ad0:	1c0a      	adds	r2, r1, #0
 8003ad2:	801a      	strh	r2, [r3, #0]
 8003ad4:	1dbb      	adds	r3, r7, #6
 8003ad6:	881b      	ldrh	r3, [r3, #0]
 8003ad8:	b2da      	uxtb	r2, r3
 8003ada:	197b      	adds	r3, r7, r5
 8003adc:	8819      	ldrh	r1, [r3, #0]
 8003ade:	68f8      	ldr	r0, [r7, #12]
 8003ae0:	4b23      	ldr	r3, [pc, #140]	; (8003b70 <I2C_RequestMemoryRead+0xc0>)
 8003ae2:	9300      	str	r3, [sp, #0]
 8003ae4:	2300      	movs	r3, #0
 8003ae6:	f000 fa3f 	bl	8003f68 <I2C_TransferConfig>
 8003aea:	6a7a      	ldr	r2, [r7, #36]	; 0x24
 8003aec:	6a39      	ldr	r1, [r7, #32]
 8003aee:	68fb      	ldr	r3, [r7, #12]
 8003af0:	0018      	movs	r0, r3
 8003af2:	f000 f8af 	bl	8003c54 <I2C_WaitOnTXISFlagUntilTimeout>
 8003af6:	1e03      	subs	r3, r0, #0
 8003af8:	d001      	beq.n	8003afe <I2C_RequestMemoryRead+0x4e>
 8003afa:	2301      	movs	r3, #1
 8003afc:	e033      	b.n	8003b66 <I2C_RequestMemoryRead+0xb6>
 8003afe:	1dbb      	adds	r3, r7, #6
 8003b00:	881b      	ldrh	r3, [r3, #0]
 8003b02:	2b01      	cmp	r3, #1
 8003b04:	d107      	bne.n	8003b16 <I2C_RequestMemoryRead+0x66>
 8003b06:	2308      	movs	r3, #8
 8003b08:	18fb      	adds	r3, r7, r3
 8003b0a:	881b      	ldrh	r3, [r3, #0]
 8003b0c:	b2da      	uxtb	r2, r3
 8003b0e:	68fb      	ldr	r3, [r7, #12]
 8003b10:	681b      	ldr	r3, [r3, #0]
 8003b12:	629a      	str	r2, [r3, #40]	; 0x28
 8003b14:	e019      	b.n	8003b4a <I2C_RequestMemoryRead+0x9a>
 8003b16:	2308      	movs	r3, #8
 8003b18:	18fb      	adds	r3, r7, r3
 8003b1a:	881b      	ldrh	r3, [r3, #0]
 8003b1c:	0a1b      	lsrs	r3, r3, #8
 8003b1e:	b29b      	uxth	r3, r3
 8003b20:	b2da      	uxtb	r2, r3
 8003b22:	68fb      	ldr	r3, [r7, #12]
 8003b24:	681b      	ldr	r3, [r3, #0]
 8003b26:	629a      	str	r2, [r3, #40]	; 0x28
 8003b28:	6a7a      	ldr	r2, [r7, #36]	; 0x24
 8003b2a:	6a39      	ldr	r1, [r7, #32]
 8003b2c:	68fb      	ldr	r3, [r7, #12]
 8003b2e:	0018      	movs	r0, r3
 8003b30:	f000 f890 	bl	8003c54 <I2C_WaitOnTXISFlagUntilTimeout>
 8003b34:	1e03      	subs	r3, r0, #0
 8003b36:	d001      	beq.n	8003b3c <I2C_RequestMemoryRead+0x8c>
 8003b38:	2301      	movs	r3, #1
 8003b3a:	e014      	b.n	8003b66 <I2C_RequestMemoryRead+0xb6>
 8003b3c:	2308      	movs	r3, #8
 8003b3e:	18fb      	adds	r3, r7, r3
 8003b40:	881b      	ldrh	r3, [r3, #0]
 8003b42:	b2da      	uxtb	r2, r3
 8003b44:	68fb      	ldr	r3, [r7, #12]
 8003b46:	681b      	ldr	r3, [r3, #0]
 8003b48:	629a      	str	r2, [r3, #40]	; 0x28
 8003b4a:	6a3a      	ldr	r2, [r7, #32]
 8003b4c:	68f8      	ldr	r0, [r7, #12]
 8003b4e:	6a7b      	ldr	r3, [r7, #36]	; 0x24
 8003b50:	9300      	str	r3, [sp, #0]
 8003b52:	0013      	movs	r3, r2
 8003b54:	2200      	movs	r2, #0
 8003b56:	2140      	movs	r1, #64	; 0x40
 8003b58:	f000 f82e 	bl	8003bb8 <I2C_WaitOnFlagUntilTimeout>
 8003b5c:	1e03      	subs	r3, r0, #0
 8003b5e:	d001      	beq.n	8003b64 <I2C_RequestMemoryRead+0xb4>
 8003b60:	2301      	movs	r3, #1
 8003b62:	e000      	b.n	8003b66 <I2C_RequestMemoryRead+0xb6>
 8003b64:	2300      	movs	r3, #0
 8003b66:	0018      	movs	r0, r3
 8003b68:	46bd      	mov	sp, r7
 8003b6a:	b004      	add	sp, #16
 8003b6c:	bdb0      	pop	{r4, r5, r7, pc}
 8003b6e:	46c0      	nop			; (mov r8, r8)
 8003b70:	80002000 	.word	0x80002000

08003b74 <I2C_Flush_TXDR>:
 8003b74:	b580      	push	{r7, lr}
 8003b76:	b082      	sub	sp, #8
 8003b78:	af00      	add	r7, sp, #0
 8003b7a:	6078      	str	r0, [r7, #4]
 8003b7c:	687b      	ldr	r3, [r7, #4]
 8003b7e:	681b      	ldr	r3, [r3, #0]
 8003b80:	699b      	ldr	r3, [r3, #24]
 8003b82:	2202      	movs	r2, #2
 8003b84:	4013      	ands	r3, r2
 8003b86:	2b02      	cmp	r3, #2
 8003b88:	d103      	bne.n	8003b92 <I2C_Flush_TXDR+0x1e>
 8003b8a:	687b      	ldr	r3, [r7, #4]
 8003b8c:	681b      	ldr	r3, [r3, #0]
 8003b8e:	2200      	movs	r2, #0
 8003b90:	629a      	str	r2, [r3, #40]	; 0x28
 8003b92:	687b      	ldr	r3, [r7, #4]
 8003b94:	681b      	ldr	r3, [r3, #0]
 8003b96:	699b      	ldr	r3, [r3, #24]
 8003b98:	2201      	movs	r2, #1
 8003b9a:	4013      	ands	r3, r2
 8003b9c:	2b01      	cmp	r3, #1
 8003b9e:	d007      	beq.n	8003bb0 <I2C_Flush_TXDR+0x3c>
 8003ba0:	687b      	ldr	r3, [r7, #4]
 8003ba2:	681b      	ldr	r3, [r3, #0]
 8003ba4:	699a      	ldr	r2, [r3, #24]
 8003ba6:	687b      	ldr	r3, [r7, #4]
 8003ba8:	681b      	ldr	r3, [r3, #0]
 8003baa:	2101      	movs	r1, #1
 8003bac:	430a      	orrs	r2, r1
 8003bae:	619a      	str	r2, [r3, #24]
 8003bb0:	46c0      	nop			; (mov r8, r8)
 8003bb2:	46bd      	mov	sp, r7
 8003bb4:	b002      	add	sp, #8
 8003bb6:	bd80      	pop	{r7, pc}

08003bb8 <I2C_WaitOnFlagUntilTimeout>:
 8003bb8:	b580      	push	{r7, lr}
 8003bba:	b084      	sub	sp, #16
 8003bbc:	af00      	add	r7, sp, #0
 8003bbe:	60f8      	str	r0, [r7, #12]
 8003bc0:	60b9      	str	r1, [r7, #8]
 8003bc2:	603b      	str	r3, [r7, #0]
 8003bc4:	1dfb      	adds	r3, r7, #7
 8003bc6:	701a      	strb	r2, [r3, #0]
 8003bc8:	e030      	b.n	8003c2c <I2C_WaitOnFlagUntilTimeout+0x74>
 8003bca:	683b      	ldr	r3, [r7, #0]
 8003bcc:	3301      	adds	r3, #1
 8003bce:	d02d      	beq.n	8003c2c <I2C_WaitOnFlagUntilTimeout+0x74>
 8003bd0:	f7ff f940 	bl	8002e54 <HAL_GetTick>
 8003bd4:	0002      	movs	r2, r0
 8003bd6:	69bb      	ldr	r3, [r7, #24]
 8003bd8:	1ad3      	subs	r3, r2, r3
 8003bda:	683a      	ldr	r2, [r7, #0]
 8003bdc:	429a      	cmp	r2, r3
 8003bde:	d302      	bcc.n	8003be6 <I2C_WaitOnFlagUntilTimeout+0x2e>
 8003be0:	683b      	ldr	r3, [r7, #0]
 8003be2:	2b00      	cmp	r3, #0
 8003be4:	d122      	bne.n	8003c2c <I2C_WaitOnFlagUntilTimeout+0x74>
 8003be6:	68fb      	ldr	r3, [r7, #12]
 8003be8:	681b      	ldr	r3, [r3, #0]
 8003bea:	699b      	ldr	r3, [r3, #24]
 8003bec:	68ba      	ldr	r2, [r7, #8]
 8003bee:	4013      	ands	r3, r2
 8003bf0:	68ba      	ldr	r2, [r7, #8]
 8003bf2:	1ad3      	subs	r3, r2, r3
 8003bf4:	425a      	negs	r2, r3
 8003bf6:	4153      	adcs	r3, r2
 8003bf8:	b2db      	uxtb	r3, r3
 8003bfa:	001a      	movs	r2, r3
 8003bfc:	1dfb      	adds	r3, r7, #7
 8003bfe:	781b      	ldrb	r3, [r3, #0]
 8003c00:	429a      	cmp	r2, r3
 8003c02:	d113      	bne.n	8003c2c <I2C_WaitOnFlagUntilTimeout+0x74>
 8003c04:	68fb      	ldr	r3, [r7, #12]
 8003c06:	6c5b      	ldr	r3, [r3, #68]	; 0x44
 8003c08:	2220      	movs	r2, #32
 8003c0a:	431a      	orrs	r2, r3
 8003c0c:	68fb      	ldr	r3, [r7, #12]
 8003c0e:	645a      	str	r2, [r3, #68]	; 0x44
 8003c10:	68fb      	ldr	r3, [r7, #12]
 8003c12:	2241      	movs	r2, #65	; 0x41
 8003c14:	2120      	movs	r1, #32
 8003c16:	5499      	strb	r1, [r3, r2]
 8003c18:	68fb      	ldr	r3, [r7, #12]
 8003c1a:	2242      	movs	r2, #66	; 0x42
 8003c1c:	2100      	movs	r1, #0
 8003c1e:	5499      	strb	r1, [r3, r2]
 8003c20:	68fb      	ldr	r3, [r7, #12]
 8003c22:	2240      	movs	r2, #64	; 0x40
 8003c24:	2100      	movs	r1, #0
 8003c26:	5499      	strb	r1, [r3, r2]
 8003c28:	2301      	movs	r3, #1
 8003c2a:	e00f      	b.n	8003c4c <I2C_WaitOnFlagUntilTimeout+0x94>
 8003c2c:	68fb      	ldr	r3, [r7, #12]
 8003c2e:	681b      	ldr	r3, [r3, #0]
 8003c30:	699b      	ldr	r3, [r3, #24]
 8003c32:	68ba      	ldr	r2, [r7, #8]
 8003c34:	4013      	ands	r3, r2
 8003c36:	68ba      	ldr	r2, [r7, #8]
 8003c38:	1ad3      	subs	r3, r2, r3
 8003c3a:	425a      	negs	r2, r3
 8003c3c:	4153      	adcs	r3, r2
 8003c3e:	b2db      	uxtb	r3, r3
 8003c40:	001a      	movs	r2, r3
 8003c42:	1dfb      	adds	r3, r7, #7
 8003c44:	781b      	ldrb	r3, [r3, #0]
 8003c46:	429a      	cmp	r2, r3
 8003c48:	d0bf      	beq.n	8003bca <I2C_WaitOnFlagUntilTimeout+0x12>
 8003c4a:	2300      	movs	r3, #0
 8003c4c:	0018      	movs	r0, r3
 8003c4e:	46bd      	mov	sp, r7
 8003c50:	b004      	add	sp, #16
 8003c52:	bd80      	pop	{r7, pc}

08003c54 <I2C_WaitOnTXISFlagUntilTimeout>:
 8003c54:	b580      	push	{r7, lr}
 8003c56:	b084      	sub	sp, #16
 8003c58:	af00      	add	r7, sp, #0
 8003c5a:	60f8      	str	r0, [r7, #12]
 8003c5c:	60b9      	str	r1, [r7, #8]
 8003c5e:	607a      	str	r2, [r7, #4]
 8003c60:	e032      	b.n	8003cc8 <I2C_WaitOnTXISFlagUntilTimeout+0x74>
 8003c62:	687a      	ldr	r2, [r7, #4]
 8003c64:	68b9      	ldr	r1, [r7, #8]
 8003c66:	68fb      	ldr	r3, [r7, #12]
 8003c68:	0018      	movs	r0, r3
 8003c6a:	f000 f87d 	bl	8003d68 <I2C_IsErrorOccurred>
 8003c6e:	1e03      	subs	r3, r0, #0
 8003c70:	d001      	beq.n	8003c76 <I2C_WaitOnTXISFlagUntilTimeout+0x22>
 8003c72:	2301      	movs	r3, #1
 8003c74:	e030      	b.n	8003cd8 <I2C_WaitOnTXISFlagUntilTimeout+0x84>
 8003c76:	68bb      	ldr	r3, [r7, #8]
 8003c78:	3301      	adds	r3, #1
 8003c7a:	d025      	beq.n	8003cc8 <I2C_WaitOnTXISFlagUntilTimeout+0x74>
 8003c7c:	f7ff f8ea 	bl	8002e54 <HAL_GetTick>
 8003c80:	0002      	movs	r2, r0
 8003c82:	687b      	ldr	r3, [r7, #4]
 8003c84:	1ad3      	subs	r3, r2, r3
 8003c86:	68ba      	ldr	r2, [r7, #8]
 8003c88:	429a      	cmp	r2, r3
 8003c8a:	d302      	bcc.n	8003c92 <I2C_WaitOnTXISFlagUntilTimeout+0x3e>
 8003c8c:	68bb      	ldr	r3, [r7, #8]
 8003c8e:	2b00      	cmp	r3, #0
 8003c90:	d11a      	bne.n	8003cc8 <I2C_WaitOnTXISFlagUntilTimeout+0x74>
 8003c92:	68fb      	ldr	r3, [r7, #12]
 8003c94:	681b      	ldr	r3, [r3, #0]
 8003c96:	699b      	ldr	r3, [r3, #24]
 8003c98:	2202      	movs	r2, #2
 8003c9a:	4013      	ands	r3, r2
 8003c9c:	2b02      	cmp	r3, #2
 8003c9e:	d013      	beq.n	8003cc8 <I2C_WaitOnTXISFlagUntilTimeout+0x74>
 8003ca0:	68fb      	ldr	r3, [r7, #12]
 8003ca2:	6c5b      	ldr	r3, [r3, #68]	; 0x44
 8003ca4:	2220      	movs	r2, #32
 8003ca6:	431a      	orrs	r2, r3
 8003ca8:	68fb      	ldr	r3, [r7, #12]
 8003caa:	645a      	str	r2, [r3, #68]	; 0x44
 8003cac:	68fb      	ldr	r3, [r7, #12]
 8003cae:	2241      	movs	r2, #65	; 0x41
 8003cb0:	2120      	movs	r1, #32
 8003cb2:	5499      	strb	r1, [r3, r2]
 8003cb4:	68fb      	ldr	r3, [r7, #12]
 8003cb6:	2242      	movs	r2, #66	; 0x42
 8003cb8:	2100      	movs	r1, #0
 8003cba:	5499      	strb	r1, [r3, r2]
 8003cbc:	68fb      	ldr	r3, [r7, #12]
 8003cbe:	2240      	movs	r2, #64	; 0x40
 8003cc0:	2100      	movs	r1, #0
 8003cc2:	5499      	strb	r1, [r3, r2]
 8003cc4:	2301      	movs	r3, #1
 8003cc6:	e007      	b.n	8003cd8 <I2C_WaitOnTXISFlagUntilTimeout+0x84>
 8003cc8:	68fb      	ldr	r3, [r7, #12]
 8003cca:	681b      	ldr	r3, [r3, #0]
 8003ccc:	699b      	ldr	r3, [r3, #24]
 8003cce:	2202      	movs	r2, #2
 8003cd0:	4013      	ands	r3, r2
 8003cd2:	2b02      	cmp	r3, #2
 8003cd4:	d1c5      	bne.n	8003c62 <I2C_WaitOnTXISFlagUntilTimeout+0xe>
 8003cd6:	2300      	movs	r3, #0
 8003cd8:	0018      	movs	r0, r3
 8003cda:	46bd      	mov	sp, r7
 8003cdc:	b004      	add	sp, #16
 8003cde:	bd80      	pop	{r7, pc}

08003ce0 <I2C_WaitOnSTOPFlagUntilTimeout>:
 8003ce0:	b580      	push	{r7, lr}
 8003ce2:	b084      	sub	sp, #16
 8003ce4:	af00      	add	r7, sp, #0
 8003ce6:	60f8      	str	r0, [r7, #12]
 8003ce8:	60b9      	str	r1, [r7, #8]
 8003cea:	607a      	str	r2, [r7, #4]
 8003cec:	e02f      	b.n	8003d4e <I2C_WaitOnSTOPFlagUntilTimeout+0x6e>
 8003cee:	687a      	ldr	r2, [r7, #4]
 8003cf0:	68b9      	ldr	r1, [r7, #8]
 8003cf2:	68fb      	ldr	r3, [r7, #12]
 8003cf4:	0018      	movs	r0, r3
 8003cf6:	f000 f837 	bl	8003d68 <I2C_IsErrorOccurred>
 8003cfa:	1e03      	subs	r3, r0, #0
 8003cfc:	d001      	beq.n	8003d02 <I2C_WaitOnSTOPFlagUntilTimeout+0x22>
 8003cfe:	2301      	movs	r3, #1
 8003d00:	e02d      	b.n	8003d5e <I2C_WaitOnSTOPFlagUntilTimeout+0x7e>
 8003d02:	f7ff f8a7 	bl	8002e54 <HAL_GetTick>
 8003d06:	0002      	movs	r2, r0
 8003d08:	687b      	ldr	r3, [r7, #4]
 8003d0a:	1ad3      	subs	r3, r2, r3
 8003d0c:	68ba      	ldr	r2, [r7, #8]
 8003d0e:	429a      	cmp	r2, r3
 8003d10:	d302      	bcc.n	8003d18 <I2C_WaitOnSTOPFlagUntilTimeout+0x38>
 8003d12:	68bb      	ldr	r3, [r7, #8]
 8003d14:	2b00      	cmp	r3, #0
 8003d16:	d11a      	bne.n	8003d4e <I2C_WaitOnSTOPFlagUntilTimeout+0x6e>
 8003d18:	68fb      	ldr	r3, [r7, #12]
 8003d1a:	681b      	ldr	r3, [r3, #0]
 8003d1c:	699b      	ldr	r3, [r3, #24]
 8003d1e:	2220      	movs	r2, #32
 8003d20:	4013      	ands	r3, r2
 8003d22:	2b20      	cmp	r3, #32
 8003d24:	d013      	beq.n	8003d4e <I2C_WaitOnSTOPFlagUntilTimeout+0x6e>
 8003d26:	68fb      	ldr	r3, [r7, #12]
 8003d28:	6c5b      	ldr	r3, [r3, #68]	; 0x44
 8003d2a:	2220      	movs	r2, #32
 8003d2c:	431a      	orrs	r2, r3
 8003d2e:	68fb      	ldr	r3, [r7, #12]
 8003d30:	645a      	str	r2, [r3, #68]	; 0x44
 8003d32:	68fb      	ldr	r3, [r7, #12]
 8003d34:	2241      	movs	r2, #65	; 0x41
 8003d36:	2120      	movs	r1, #32
 8003d38:	5499      	strb	r1, [r3, r2]
 8003d3a:	68fb      	ldr	r3, [r7, #12]
 8003d3c:	2242      	movs	r2, #66	; 0x42
 8003d3e:	2100      	movs	r1, #0
 8003d40:	5499      	strb	r1, [r3, r2]
 8003d42:	68fb      	ldr	r3, [r7, #12]
 8003d44:	2240      	movs	r2, #64	; 0x40
 8003d46:	2100      	movs	r1, #0
 8003d48:	5499      	strb	r1, [r3, r2]
 8003d4a:	2301      	movs	r3, #1
 8003d4c:	e007      	b.n	8003d5e <I2C_WaitOnSTOPFlagUntilTimeout+0x7e>
 8003d4e:	68fb      	ldr	r3, [r7, #12]
 8003d50:	681b      	ldr	r3, [r3, #0]
 8003d52:	699b      	ldr	r3, [r3, #24]
 8003d54:	2220      	movs	r2, #32
 8003d56:	4013      	ands	r3, r2
 8003d58:	2b20      	cmp	r3, #32
 8003d5a:	d1c8      	bne.n	8003cee <I2C_WaitOnSTOPFlagUntilTimeout+0xe>
 8003d5c:	2300      	movs	r3, #0
 8003d5e:	0018      	movs	r0, r3
 8003d60:	46bd      	mov	sp, r7
 8003d62:	b004      	add	sp, #16
 8003d64:	bd80      	pop	{r7, pc}
	...

08003d68 <I2C_IsErrorOccurred>:
 8003d68:	b590      	push	{r4, r7, lr}
 8003d6a:	b08b      	sub	sp, #44	; 0x2c
 8003d6c:	af00      	add	r7, sp, #0
 8003d6e:	60f8      	str	r0, [r7, #12]
 8003d70:	60b9      	str	r1, [r7, #8]
 8003d72:	607a      	str	r2, [r7, #4]
 8003d74:	2327      	movs	r3, #39	; 0x27
 8003d76:	18fb      	adds	r3, r7, r3
 8003d78:	2200      	movs	r2, #0
 8003d7a:	701a      	strb	r2, [r3, #0]
 8003d7c:	68fb      	ldr	r3, [r7, #12]
 8003d7e:	681b      	ldr	r3, [r3, #0]
 8003d80:	699b      	ldr	r3, [r3, #24]
 8003d82:	61bb      	str	r3, [r7, #24]
 8003d84:	2300      	movs	r3, #0
 8003d86:	623b      	str	r3, [r7, #32]
 8003d88:	687b      	ldr	r3, [r7, #4]
 8003d8a:	61fb      	str	r3, [r7, #28]
 8003d8c:	69bb      	ldr	r3, [r7, #24]
 8003d8e:	2210      	movs	r2, #16
 8003d90:	4013      	ands	r3, r2
 8003d92:	d100      	bne.n	8003d96 <I2C_IsErrorOccurred+0x2e>
 8003d94:	e082      	b.n	8003e9c <I2C_IsErrorOccurred+0x134>
 8003d96:	68fb      	ldr	r3, [r7, #12]
 8003d98:	681b      	ldr	r3, [r3, #0]
 8003d9a:	2210      	movs	r2, #16
 8003d9c:	61da      	str	r2, [r3, #28]
 8003d9e:	e060      	b.n	8003e62 <I2C_IsErrorOccurred+0xfa>
 8003da0:	2427      	movs	r4, #39	; 0x27
 8003da2:	193b      	adds	r3, r7, r4
 8003da4:	193a      	adds	r2, r7, r4
 8003da6:	7812      	ldrb	r2, [r2, #0]
 8003da8:	701a      	strb	r2, [r3, #0]
 8003daa:	68bb      	ldr	r3, [r7, #8]
 8003dac:	3301      	adds	r3, #1
 8003dae:	d058      	beq.n	8003e62 <I2C_IsErrorOccurred+0xfa>
 8003db0:	f7ff f850 	bl	8002e54 <HAL_GetTick>
 8003db4:	0002      	movs	r2, r0
 8003db6:	69fb      	ldr	r3, [r7, #28]
 8003db8:	1ad3      	subs	r3, r2, r3
 8003dba:	68ba      	ldr	r2, [r7, #8]
 8003dbc:	429a      	cmp	r2, r3
 8003dbe:	d306      	bcc.n	8003dce <I2C_IsErrorOccurred+0x66>
 8003dc0:	193b      	adds	r3, r7, r4
 8003dc2:	193a      	adds	r2, r7, r4
 8003dc4:	7812      	ldrb	r2, [r2, #0]
 8003dc6:	701a      	strb	r2, [r3, #0]
 8003dc8:	68bb      	ldr	r3, [r7, #8]
 8003dca:	2b00      	cmp	r3, #0
 8003dcc:	d149      	bne.n	8003e62 <I2C_IsErrorOccurred+0xfa>
 8003dce:	68fb      	ldr	r3, [r7, #12]
 8003dd0:	681b      	ldr	r3, [r3, #0]
 8003dd2:	685a      	ldr	r2, [r3, #4]
 8003dd4:	2380      	movs	r3, #128	; 0x80
 8003dd6:	01db      	lsls	r3, r3, #7
 8003dd8:	4013      	ands	r3, r2
 8003dda:	617b      	str	r3, [r7, #20]
 8003ddc:	2013      	movs	r0, #19
 8003dde:	183b      	adds	r3, r7, r0
 8003de0:	68fa      	ldr	r2, [r7, #12]
 8003de2:	2142      	movs	r1, #66	; 0x42
 8003de4:	5c52      	ldrb	r2, [r2, r1]
 8003de6:	701a      	strb	r2, [r3, #0]
 8003de8:	68fb      	ldr	r3, [r7, #12]
 8003dea:	681b      	ldr	r3, [r3, #0]
 8003dec:	699a      	ldr	r2, [r3, #24]
 8003dee:	2380      	movs	r3, #128	; 0x80
 8003df0:	021b      	lsls	r3, r3, #8
 8003df2:	401a      	ands	r2, r3
 8003df4:	2380      	movs	r3, #128	; 0x80
 8003df6:	021b      	lsls	r3, r3, #8
 8003df8:	429a      	cmp	r2, r3
 8003dfa:	d126      	bne.n	8003e4a <I2C_IsErrorOccurred+0xe2>
 8003dfc:	697a      	ldr	r2, [r7, #20]
 8003dfe:	2380      	movs	r3, #128	; 0x80
 8003e00:	01db      	lsls	r3, r3, #7
 8003e02:	429a      	cmp	r2, r3
 8003e04:	d021      	beq.n	8003e4a <I2C_IsErrorOccurred+0xe2>
 8003e06:	183b      	adds	r3, r7, r0
 8003e08:	781b      	ldrb	r3, [r3, #0]
 8003e0a:	2b20      	cmp	r3, #32
 8003e0c:	d01d      	beq.n	8003e4a <I2C_IsErrorOccurred+0xe2>
 8003e0e:	68fb      	ldr	r3, [r7, #12]
 8003e10:	681b      	ldr	r3, [r3, #0]
 8003e12:	685a      	ldr	r2, [r3, #4]
 8003e14:	68fb      	ldr	r3, [r7, #12]
 8003e16:	681b      	ldr	r3, [r3, #0]
 8003e18:	2180      	movs	r1, #128	; 0x80
 8003e1a:	01c9      	lsls	r1, r1, #7
 8003e1c:	430a      	orrs	r2, r1
 8003e1e:	605a      	str	r2, [r3, #4]
 8003e20:	f7ff f818 	bl	8002e54 <HAL_GetTick>
 8003e24:	0003      	movs	r3, r0
 8003e26:	61fb      	str	r3, [r7, #28]
 8003e28:	e00f      	b.n	8003e4a <I2C_IsErrorOccurred+0xe2>
 8003e2a:	f7ff f813 	bl	8002e54 <HAL_GetTick>
 8003e2e:	0002      	movs	r2, r0
 8003e30:	69fb      	ldr	r3, [r7, #28]
 8003e32:	1ad3      	subs	r3, r2, r3
 8003e34:	2b19      	cmp	r3, #25
 8003e36:	d908      	bls.n	8003e4a <I2C_IsErrorOccurred+0xe2>
 8003e38:	6a3b      	ldr	r3, [r7, #32]
 8003e3a:	2220      	movs	r2, #32
 8003e3c:	4313      	orrs	r3, r2
 8003e3e:	623b      	str	r3, [r7, #32]
 8003e40:	2327      	movs	r3, #39	; 0x27
 8003e42:	18fb      	adds	r3, r7, r3
 8003e44:	2201      	movs	r2, #1
 8003e46:	701a      	strb	r2, [r3, #0]
 8003e48:	e00b      	b.n	8003e62 <I2C_IsErrorOccurred+0xfa>
 8003e4a:	68fb      	ldr	r3, [r7, #12]
 8003e4c:	681b      	ldr	r3, [r3, #0]
 8003e4e:	699b      	ldr	r3, [r3, #24]
 8003e50:	2220      	movs	r2, #32
 8003e52:	4013      	ands	r3, r2
 8003e54:	2127      	movs	r1, #39	; 0x27
 8003e56:	187a      	adds	r2, r7, r1
 8003e58:	1879      	adds	r1, r7, r1
 8003e5a:	7809      	ldrb	r1, [r1, #0]
 8003e5c:	7011      	strb	r1, [r2, #0]
 8003e5e:	2b20      	cmp	r3, #32
 8003e60:	d1e3      	bne.n	8003e2a <I2C_IsErrorOccurred+0xc2>
 8003e62:	68fb      	ldr	r3, [r7, #12]
 8003e64:	681b      	ldr	r3, [r3, #0]
 8003e66:	699b      	ldr	r3, [r3, #24]
 8003e68:	2220      	movs	r2, #32
 8003e6a:	4013      	ands	r3, r2
 8003e6c:	2b20      	cmp	r3, #32
 8003e6e:	d004      	beq.n	8003e7a <I2C_IsErrorOccurred+0x112>
 8003e70:	2327      	movs	r3, #39	; 0x27
 8003e72:	18fb      	adds	r3, r7, r3
 8003e74:	781b      	ldrb	r3, [r3, #0]
 8003e76:	2b00      	cmp	r3, #0
 8003e78:	d092      	beq.n	8003da0 <I2C_IsErrorOccurred+0x38>
 8003e7a:	2327      	movs	r3, #39	; 0x27
 8003e7c:	18fb      	adds	r3, r7, r3
 8003e7e:	781b      	ldrb	r3, [r3, #0]
 8003e80:	2b00      	cmp	r3, #0
 8003e82:	d103      	bne.n	8003e8c <I2C_IsErrorOccurred+0x124>
 8003e84:	68fb      	ldr	r3, [r7, #12]
 8003e86:	681b      	ldr	r3, [r3, #0]
 8003e88:	2220      	movs	r2, #32
 8003e8a:	61da      	str	r2, [r3, #28]
 8003e8c:	6a3b      	ldr	r3, [r7, #32]
 8003e8e:	2204      	movs	r2, #4
 8003e90:	4313      	orrs	r3, r2
 8003e92:	623b      	str	r3, [r7, #32]
 8003e94:	2327      	movs	r3, #39	; 0x27
 8003e96:	18fb      	adds	r3, r7, r3
 8003e98:	2201      	movs	r2, #1
 8003e9a:	701a      	strb	r2, [r3, #0]
 8003e9c:	68fb      	ldr	r3, [r7, #12]
 8003e9e:	681b      	ldr	r3, [r3, #0]
 8003ea0:	699b      	ldr	r3, [r3, #24]
 8003ea2:	61bb      	str	r3, [r7, #24]
 8003ea4:	69ba      	ldr	r2, [r7, #24]
 8003ea6:	2380      	movs	r3, #128	; 0x80
 8003ea8:	005b      	lsls	r3, r3, #1
 8003eaa:	4013      	ands	r3, r2
 8003eac:	d00c      	beq.n	8003ec8 <I2C_IsErrorOccurred+0x160>
 8003eae:	6a3b      	ldr	r3, [r7, #32]
 8003eb0:	2201      	movs	r2, #1
 8003eb2:	4313      	orrs	r3, r2
 8003eb4:	623b      	str	r3, [r7, #32]
 8003eb6:	68fb      	ldr	r3, [r7, #12]
 8003eb8:	681b      	ldr	r3, [r3, #0]
 8003eba:	2280      	movs	r2, #128	; 0x80
 8003ebc:	0052      	lsls	r2, r2, #1
 8003ebe:	61da      	str	r2, [r3, #28]
 8003ec0:	2327      	movs	r3, #39	; 0x27
 8003ec2:	18fb      	adds	r3, r7, r3
 8003ec4:	2201      	movs	r2, #1
 8003ec6:	701a      	strb	r2, [r3, #0]
 8003ec8:	69ba      	ldr	r2, [r7, #24]
 8003eca:	2380      	movs	r3, #128	; 0x80
 8003ecc:	00db      	lsls	r3, r3, #3
 8003ece:	4013      	ands	r3, r2
 8003ed0:	d00c      	beq.n	8003eec <I2C_IsErrorOccurred+0x184>
 8003ed2:	6a3b      	ldr	r3, [r7, #32]
 8003ed4:	2208      	movs	r2, #8
 8003ed6:	4313      	orrs	r3, r2
 8003ed8:	623b      	str	r3, [r7, #32]
 8003eda:	68fb      	ldr	r3, [r7, #12]
 8003edc:	681b      	ldr	r3, [r3, #0]
 8003ede:	2280      	movs	r2, #128	; 0x80
 8003ee0:	00d2      	lsls	r2, r2, #3
 8003ee2:	61da      	str	r2, [r3, #28]
 8003ee4:	2327      	movs	r3, #39	; 0x27
 8003ee6:	18fb      	adds	r3, r7, r3
 8003ee8:	2201      	movs	r2, #1
 8003eea:	701a      	strb	r2, [r3, #0]
 8003eec:	69ba      	ldr	r2, [r7, #24]
 8003eee:	2380      	movs	r3, #128	; 0x80
 8003ef0:	009b      	lsls	r3, r3, #2
 8003ef2:	4013      	ands	r3, r2
 8003ef4:	d00c      	beq.n	8003f10 <I2C_IsErrorOccurred+0x1a8>
 8003ef6:	6a3b      	ldr	r3, [r7, #32]
 8003ef8:	2202      	movs	r2, #2
 8003efa:	4313      	orrs	r3, r2
 8003efc:	623b      	str	r3, [r7, #32]
 8003efe:	68fb      	ldr	r3, [r7, #12]
 8003f00:	681b      	ldr	r3, [r3, #0]
 8003f02:	2280      	movs	r2, #128	; 0x80
 8003f04:	0092      	lsls	r2, r2, #2
 8003f06:	61da      	str	r2, [r3, #28]
 8003f08:	2327      	movs	r3, #39	; 0x27
 8003f0a:	18fb      	adds	r3, r7, r3
 8003f0c:	2201      	movs	r2, #1
 8003f0e:	701a      	strb	r2, [r3, #0]
 8003f10:	2327      	movs	r3, #39	; 0x27
 8003f12:	18fb      	adds	r3, r7, r3
 8003f14:	781b      	ldrb	r3, [r3, #0]
 8003f16:	2b00      	cmp	r3, #0
 8003f18:	d01d      	beq.n	8003f56 <I2C_IsErrorOccurred+0x1ee>
 8003f1a:	68fb      	ldr	r3, [r7, #12]
 8003f1c:	0018      	movs	r0, r3
 8003f1e:	f7ff fe29 	bl	8003b74 <I2C_Flush_TXDR>
 8003f22:	68fb      	ldr	r3, [r7, #12]
 8003f24:	681b      	ldr	r3, [r3, #0]
 8003f26:	685a      	ldr	r2, [r3, #4]
 8003f28:	68fb      	ldr	r3, [r7, #12]
 8003f2a:	681b      	ldr	r3, [r3, #0]
 8003f2c:	490d      	ldr	r1, [pc, #52]	; (8003f64 <I2C_IsErrorOccurred+0x1fc>)
 8003f2e:	400a      	ands	r2, r1
 8003f30:	605a      	str	r2, [r3, #4]
 8003f32:	68fb      	ldr	r3, [r7, #12]
 8003f34:	6c5a      	ldr	r2, [r3, #68]	; 0x44
 8003f36:	6a3b      	ldr	r3, [r7, #32]
 8003f38:	431a      	orrs	r2, r3
 8003f3a:	68fb      	ldr	r3, [r7, #12]
 8003f3c:	645a      	str	r2, [r3, #68]	; 0x44
 8003f3e:	68fb      	ldr	r3, [r7, #12]
 8003f40:	2241      	movs	r2, #65	; 0x41
 8003f42:	2120      	movs	r1, #32
 8003f44:	5499      	strb	r1, [r3, r2]
 8003f46:	68fb      	ldr	r3, [r7, #12]
 8003f48:	2242      	movs	r2, #66	; 0x42
 8003f4a:	2100      	movs	r1, #0
 8003f4c:	5499      	strb	r1, [r3, r2]
 8003f4e:	68fb      	ldr	r3, [r7, #12]
 8003f50:	2240      	movs	r2, #64	; 0x40
 8003f52:	2100      	movs	r1, #0
 8003f54:	5499      	strb	r1, [r3, r2]
 8003f56:	2327      	movs	r3, #39	; 0x27
 8003f58:	18fb      	adds	r3, r7, r3
 8003f5a:	781b      	ldrb	r3, [r3, #0]
 8003f5c:	0018      	movs	r0, r3
 8003f5e:	46bd      	mov	sp, r7
 8003f60:	b00b      	add	sp, #44	; 0x2c
 8003f62:	bd90      	pop	{r4, r7, pc}
 8003f64:	fe00e800 	.word	0xfe00e800

08003f68 <I2C_TransferConfig>:
 8003f68:	b590      	push	{r4, r7, lr}
 8003f6a:	b087      	sub	sp, #28
 8003f6c:	af00      	add	r7, sp, #0
 8003f6e:	60f8      	str	r0, [r7, #12]
 8003f70:	0008      	movs	r0, r1
 8003f72:	0011      	movs	r1, r2
 8003f74:	607b      	str	r3, [r7, #4]
 8003f76:	240a      	movs	r4, #10
 8003f78:	193b      	adds	r3, r7, r4
 8003f7a:	1c02      	adds	r2, r0, #0
 8003f7c:	801a      	strh	r2, [r3, #0]
 8003f7e:	2009      	movs	r0, #9
 8003f80:	183b      	adds	r3, r7, r0
 8003f82:	1c0a      	adds	r2, r1, #0
 8003f84:	701a      	strb	r2, [r3, #0]
 8003f86:	193b      	adds	r3, r7, r4
 8003f88:	881b      	ldrh	r3, [r3, #0]
 8003f8a:	059b      	lsls	r3, r3, #22
 8003f8c:	0d9a      	lsrs	r2, r3, #22
 8003f8e:	183b      	adds	r3, r7, r0
 8003f90:	781b      	ldrb	r3, [r3, #0]
 8003f92:	0419      	lsls	r1, r3, #16
 8003f94:	23ff      	movs	r3, #255	; 0xff
 8003f96:	041b      	lsls	r3, r3, #16
 8003f98:	400b      	ands	r3, r1
 8003f9a:	431a      	orrs	r2, r3
 8003f9c:	687b      	ldr	r3, [r7, #4]
 8003f9e:	431a      	orrs	r2, r3
 8003fa0:	6abb      	ldr	r3, [r7, #40]	; 0x28
 8003fa2:	4313      	orrs	r3, r2
 8003fa4:	005b      	lsls	r3, r3, #1
 8003fa6:	085b      	lsrs	r3, r3, #1
 8003fa8:	617b      	str	r3, [r7, #20]
 8003faa:	68fb      	ldr	r3, [r7, #12]
 8003fac:	681b      	ldr	r3, [r3, #0]
 8003fae:	685b      	ldr	r3, [r3, #4]
 8003fb0:	6aba      	ldr	r2, [r7, #40]	; 0x28
 8003fb2:	0d51      	lsrs	r1, r2, #21
 8003fb4:	2280      	movs	r2, #128	; 0x80
 8003fb6:	00d2      	lsls	r2, r2, #3
 8003fb8:	400a      	ands	r2, r1
 8003fba:	4907      	ldr	r1, [pc, #28]	; (8003fd8 <I2C_TransferConfig+0x70>)
 8003fbc:	430a      	orrs	r2, r1
 8003fbe:	43d2      	mvns	r2, r2
 8003fc0:	401a      	ands	r2, r3
 8003fc2:	0011      	movs	r1, r2
 8003fc4:	68fb      	ldr	r3, [r7, #12]
 8003fc6:	681b      	ldr	r3, [r3, #0]
 8003fc8:	697a      	ldr	r2, [r7, #20]
 8003fca:	430a      	orrs	r2, r1
 8003fcc:	605a      	str	r2, [r3, #4]
 8003fce:	46c0      	nop			; (mov r8, r8)
 8003fd0:	46bd      	mov	sp, r7
 8003fd2:	b007      	add	sp, #28
 8003fd4:	bd90      	pop	{r4, r7, pc}
 8003fd6:	46c0      	nop			; (mov r8, r8)
 8003fd8:	03ff63ff 	.word	0x03ff63ff

08003fdc <HAL_I2CEx_ConfigAnalogFilter>:
 8003fdc:	b580      	push	{r7, lr}
 8003fde:	b082      	sub	sp, #8
 8003fe0:	af00      	add	r7, sp, #0
 8003fe2:	6078      	str	r0, [r7, #4]
 8003fe4:	6039      	str	r1, [r7, #0]
 8003fe6:	687b      	ldr	r3, [r7, #4]
 8003fe8:	2241      	movs	r2, #65	; 0x41
 8003fea:	5c9b      	ldrb	r3, [r3, r2]
 8003fec:	b2db      	uxtb	r3, r3
 8003fee:	2b20      	cmp	r3, #32
 8003ff0:	d138      	bne.n	8004064 <HAL_I2CEx_ConfigAnalogFilter+0x88>
 8003ff2:	687b      	ldr	r3, [r7, #4]
 8003ff4:	2240      	movs	r2, #64	; 0x40
 8003ff6:	5c9b      	ldrb	r3, [r3, r2]
 8003ff8:	2b01      	cmp	r3, #1
 8003ffa:	d101      	bne.n	8004000 <HAL_I2CEx_ConfigAnalogFilter+0x24>
 8003ffc:	2302      	movs	r3, #2
 8003ffe:	e032      	b.n	8004066 <HAL_I2CEx_ConfigAnalogFilter+0x8a>
 8004000:	687b      	ldr	r3, [r7, #4]
 8004002:	2240      	movs	r2, #64	; 0x40
 8004004:	2101      	movs	r1, #1
 8004006:	5499      	strb	r1, [r3, r2]
 8004008:	687b      	ldr	r3, [r7, #4]
 800400a:	2241      	movs	r2, #65	; 0x41
 800400c:	2124      	movs	r1, #36	; 0x24
 800400e:	5499      	strb	r1, [r3, r2]
 8004010:	687b      	ldr	r3, [r7, #4]
 8004012:	681b      	ldr	r3, [r3, #0]
 8004014:	681a      	ldr	r2, [r3, #0]
 8004016:	687b      	ldr	r3, [r7, #4]
 8004018:	681b      	ldr	r3, [r3, #0]
 800401a:	2101      	movs	r1, #1
 800401c:	438a      	bics	r2, r1
 800401e:	601a      	str	r2, [r3, #0]
 8004020:	687b      	ldr	r3, [r7, #4]
 8004022:	681b      	ldr	r3, [r3, #0]
 8004024:	681a      	ldr	r2, [r3, #0]
 8004026:	687b      	ldr	r3, [r7, #4]
 8004028:	681b      	ldr	r3, [r3, #0]
 800402a:	4911      	ldr	r1, [pc, #68]	; (8004070 <HAL_I2CEx_ConfigAnalogFilter+0x94>)
 800402c:	400a      	ands	r2, r1
 800402e:	601a      	str	r2, [r3, #0]
 8004030:	687b      	ldr	r3, [r7, #4]
 8004032:	681b      	ldr	r3, [r3, #0]
 8004034:	6819      	ldr	r1, [r3, #0]
 8004036:	687b      	ldr	r3, [r7, #4]
 8004038:	681b      	ldr	r3, [r3, #0]
 800403a:	683a      	ldr	r2, [r7, #0]
 800403c:	430a      	orrs	r2, r1
 800403e:	601a      	str	r2, [r3, #0]
 8004040:	687b      	ldr	r3, [r7, #4]
 8004042:	681b      	ldr	r3, [r3, #0]
 8004044:	681a      	ldr	r2, [r3, #0]
 8004046:	687b      	ldr	r3, [r7, #4]
 8004048:	681b      	ldr	r3, [r3, #0]
 800404a:	2101      	movs	r1, #1
 800404c:	430a      	orrs	r2, r1
 800404e:	601a      	str	r2, [r3, #0]
 8004050:	687b      	ldr	r3, [r7, #4]
 8004052:	2241      	movs	r2, #65	; 0x41
 8004054:	2120      	movs	r1, #32
 8004056:	5499      	strb	r1, [r3, r2]
 8004058:	687b      	ldr	r3, [r7, #4]
 800405a:	2240      	movs	r2, #64	; 0x40
 800405c:	2100      	movs	r1, #0
 800405e:	5499      	strb	r1, [r3, r2]
 8004060:	2300      	movs	r3, #0
 8004062:	e000      	b.n	8004066 <HAL_I2CEx_ConfigAnalogFilter+0x8a>
 8004064:	2302      	movs	r3, #2
 8004066:	0018      	movs	r0, r3
 8004068:	46bd      	mov	sp, r7
 800406a:	b002      	add	sp, #8
 800406c:	bd80      	pop	{r7, pc}
 800406e:	46c0      	nop			; (mov r8, r8)
 8004070:	ffffefff 	.word	0xffffefff

08004074 <HAL_I2CEx_ConfigDigitalFilter>:
 8004074:	b580      	push	{r7, lr}
 8004076:	b084      	sub	sp, #16
 8004078:	af00      	add	r7, sp, #0
 800407a:	6078      	str	r0, [r7, #4]
 800407c:	6039      	str	r1, [r7, #0]
 800407e:	687b      	ldr	r3, [r7, #4]
 8004080:	2241      	movs	r2, #65	; 0x41
 8004082:	5c9b      	ldrb	r3, [r3, r2]
 8004084:	b2db      	uxtb	r3, r3
 8004086:	2b20      	cmp	r3, #32
 8004088:	d139      	bne.n	80040fe <HAL_I2CEx_ConfigDigitalFilter+0x8a>
 800408a:	687b      	ldr	r3, [r7, #4]
 800408c:	2240      	movs	r2, #64	; 0x40
 800408e:	5c9b      	ldrb	r3, [r3, r2]
 8004090:	2b01      	cmp	r3, #1
 8004092:	d101      	bne.n	8004098 <HAL_I2CEx_ConfigDigitalFilter+0x24>
 8004094:	2302      	movs	r3, #2
 8004096:	e033      	b.n	8004100 <HAL_I2CEx_ConfigDigitalFilter+0x8c>
 8004098:	687b      	ldr	r3, [r7, #4]
 800409a:	2240      	movs	r2, #64	; 0x40
 800409c:	2101      	movs	r1, #1
 800409e:	5499      	strb	r1, [r3, r2]
 80040a0:	687b      	ldr	r3, [r7, #4]
 80040a2:	2241      	movs	r2, #65	; 0x41
 80040a4:	2124      	movs	r1, #36	; 0x24
 80040a6:	5499      	strb	r1, [r3, r2]
 80040a8:	687b      	ldr	r3, [r7, #4]
 80040aa:	681b      	ldr	r3, [r3, #0]
 80040ac:	681a      	ldr	r2, [r3, #0]
 80040ae:	687b      	ldr	r3, [r7, #4]
 80040b0:	681b      	ldr	r3, [r3, #0]
 80040b2:	2101      	movs	r1, #1
 80040b4:	438a      	bics	r2, r1
 80040b6:	601a      	str	r2, [r3, #0]
 80040b8:	687b      	ldr	r3, [r7, #4]
 80040ba:	681b      	ldr	r3, [r3, #0]
 80040bc:	681b      	ldr	r3, [r3, #0]
 80040be:	60fb      	str	r3, [r7, #12]
 80040c0:	68fb      	ldr	r3, [r7, #12]
 80040c2:	4a11      	ldr	r2, [pc, #68]	; (8004108 <HAL_I2CEx_ConfigDigitalFilter+0x94>)
 80040c4:	4013      	ands	r3, r2
 80040c6:	60fb      	str	r3, [r7, #12]
 80040c8:	683b      	ldr	r3, [r7, #0]
 80040ca:	021b      	lsls	r3, r3, #8
 80040cc:	68fa      	ldr	r2, [r7, #12]
 80040ce:	4313      	orrs	r3, r2
 80040d0:	60fb      	str	r3, [r7, #12]
 80040d2:	687b      	ldr	r3, [r7, #4]
 80040d4:	681b      	ldr	r3, [r3, #0]
 80040d6:	68fa      	ldr	r2, [r7, #12]
 80040d8:	601a      	str	r2, [r3, #0]
 80040da:	687b      	ldr	r3, [r7, #4]
 80040dc:	681b      	ldr	r3, [r3, #0]
 80040de:	681a      	ldr	r2, [r3, #0]
 80040e0:	687b      	ldr	r3, [r7, #4]
 80040e2:	681b      	ldr	r3, [r3, #0]
 80040e4:	2101      	movs	r1, #1
 80040e6:	430a      	orrs	r2, r1
 80040e8:	601a      	str	r2, [r3, #0]
 80040ea:	687b      	ldr	r3, [r7, #4]
 80040ec:	2241      	movs	r2, #65	; 0x41
 80040ee:	2120      	movs	r1, #32
 80040f0:	5499      	strb	r1, [r3, r2]
 80040f2:	687b      	ldr	r3, [r7, #4]
 80040f4:	2240      	movs	r2, #64	; 0x40
 80040f6:	2100      	movs	r1, #0
 80040f8:	5499      	strb	r1, [r3, r2]
 80040fa:	2300      	movs	r3, #0
 80040fc:	e000      	b.n	8004100 <HAL_I2CEx_ConfigDigitalFilter+0x8c>
 80040fe:	2302      	movs	r3, #2
 8004100:	0018      	movs	r0, r3
 8004102:	46bd      	mov	sp, r7
 8004104:	b004      	add	sp, #16
 8004106:	bd80      	pop	{r7, pc}
 8004108:	fffff0ff 	.word	0xfffff0ff

0800410c <HAL_RCC_OscConfig>:
 800410c:	b580      	push	{r7, lr}
 800410e:	b088      	sub	sp, #32
 8004110:	af00      	add	r7, sp, #0
 8004112:	6078      	str	r0, [r7, #4]
 8004114:	687b      	ldr	r3, [r7, #4]
 8004116:	2b00      	cmp	r3, #0
 8004118:	d101      	bne.n	800411e <HAL_RCC_OscConfig+0x12>
 800411a:	2301      	movs	r3, #1
 800411c:	e301      	b.n	8004722 <HAL_RCC_OscConfig+0x616>
 800411e:	687b      	ldr	r3, [r7, #4]
 8004120:	681b      	ldr	r3, [r3, #0]
 8004122:	2201      	movs	r2, #1
 8004124:	4013      	ands	r3, r2
 8004126:	d100      	bne.n	800412a <HAL_RCC_OscConfig+0x1e>
 8004128:	e08d      	b.n	8004246 <HAL_RCC_OscConfig+0x13a>
 800412a:	4bc3      	ldr	r3, [pc, #780]	; (8004438 <HAL_RCC_OscConfig+0x32c>)
 800412c:	685b      	ldr	r3, [r3, #4]
 800412e:	220c      	movs	r2, #12
 8004130:	4013      	ands	r3, r2
 8004132:	2b04      	cmp	r3, #4
 8004134:	d00e      	beq.n	8004154 <HAL_RCC_OscConfig+0x48>
 8004136:	4bc0      	ldr	r3, [pc, #768]	; (8004438 <HAL_RCC_OscConfig+0x32c>)
 8004138:	685b      	ldr	r3, [r3, #4]
 800413a:	220c      	movs	r2, #12
 800413c:	4013      	ands	r3, r2
 800413e:	2b08      	cmp	r3, #8
 8004140:	d116      	bne.n	8004170 <HAL_RCC_OscConfig+0x64>
 8004142:	4bbd      	ldr	r3, [pc, #756]	; (8004438 <HAL_RCC_OscConfig+0x32c>)
 8004144:	685a      	ldr	r2, [r3, #4]
 8004146:	2380      	movs	r3, #128	; 0x80
 8004148:	025b      	lsls	r3, r3, #9
 800414a:	401a      	ands	r2, r3
 800414c:	2380      	movs	r3, #128	; 0x80
 800414e:	025b      	lsls	r3, r3, #9
 8004150:	429a      	cmp	r2, r3
 8004152:	d10d      	bne.n	8004170 <HAL_RCC_OscConfig+0x64>
 8004154:	4bb8      	ldr	r3, [pc, #736]	; (8004438 <HAL_RCC_OscConfig+0x32c>)
 8004156:	681a      	ldr	r2, [r3, #0]
 8004158:	2380      	movs	r3, #128	; 0x80
 800415a:	029b      	lsls	r3, r3, #10
 800415c:	4013      	ands	r3, r2
 800415e:	d100      	bne.n	8004162 <HAL_RCC_OscConfig+0x56>
 8004160:	e070      	b.n	8004244 <HAL_RCC_OscConfig+0x138>
 8004162:	687b      	ldr	r3, [r7, #4]
 8004164:	685b      	ldr	r3, [r3, #4]
 8004166:	2b00      	cmp	r3, #0
 8004168:	d000      	beq.n	800416c <HAL_RCC_OscConfig+0x60>
 800416a:	e06b      	b.n	8004244 <HAL_RCC_OscConfig+0x138>
 800416c:	2301      	movs	r3, #1
 800416e:	e2d8      	b.n	8004722 <HAL_RCC_OscConfig+0x616>
 8004170:	687b      	ldr	r3, [r7, #4]
 8004172:	685b      	ldr	r3, [r3, #4]
 8004174:	2b01      	cmp	r3, #1
 8004176:	d107      	bne.n	8004188 <HAL_RCC_OscConfig+0x7c>
 8004178:	4baf      	ldr	r3, [pc, #700]	; (8004438 <HAL_RCC_OscConfig+0x32c>)
 800417a:	681a      	ldr	r2, [r3, #0]
 800417c:	4bae      	ldr	r3, [pc, #696]	; (8004438 <HAL_RCC_OscConfig+0x32c>)
 800417e:	2180      	movs	r1, #128	; 0x80
 8004180:	0249      	lsls	r1, r1, #9
 8004182:	430a      	orrs	r2, r1
 8004184:	601a      	str	r2, [r3, #0]
 8004186:	e02f      	b.n	80041e8 <HAL_RCC_OscConfig+0xdc>
 8004188:	687b      	ldr	r3, [r7, #4]
 800418a:	685b      	ldr	r3, [r3, #4]
 800418c:	2b00      	cmp	r3, #0
 800418e:	d10c      	bne.n	80041aa <HAL_RCC_OscConfig+0x9e>
 8004190:	4ba9      	ldr	r3, [pc, #676]	; (8004438 <HAL_RCC_OscConfig+0x32c>)
 8004192:	681a      	ldr	r2, [r3, #0]
 8004194:	4ba8      	ldr	r3, [pc, #672]	; (8004438 <HAL_RCC_OscConfig+0x32c>)
 8004196:	49a9      	ldr	r1, [pc, #676]	; (800443c <HAL_RCC_OscConfig+0x330>)
 8004198:	400a      	ands	r2, r1
 800419a:	601a      	str	r2, [r3, #0]
 800419c:	4ba6      	ldr	r3, [pc, #664]	; (8004438 <HAL_RCC_OscConfig+0x32c>)
 800419e:	681a      	ldr	r2, [r3, #0]
 80041a0:	4ba5      	ldr	r3, [pc, #660]	; (8004438 <HAL_RCC_OscConfig+0x32c>)
 80041a2:	49a7      	ldr	r1, [pc, #668]	; (8004440 <HAL_RCC_OscConfig+0x334>)
 80041a4:	400a      	ands	r2, r1
 80041a6:	601a      	str	r2, [r3, #0]
 80041a8:	e01e      	b.n	80041e8 <HAL_RCC_OscConfig+0xdc>
 80041aa:	687b      	ldr	r3, [r7, #4]
 80041ac:	685b      	ldr	r3, [r3, #4]
 80041ae:	2b05      	cmp	r3, #5
 80041b0:	d10e      	bne.n	80041d0 <HAL_RCC_OscConfig+0xc4>
 80041b2:	4ba1      	ldr	r3, [pc, #644]	; (8004438 <HAL_RCC_OscConfig+0x32c>)
 80041b4:	681a      	ldr	r2, [r3, #0]
 80041b6:	4ba0      	ldr	r3, [pc, #640]	; (8004438 <HAL_RCC_OscConfig+0x32c>)
 80041b8:	2180      	movs	r1, #128	; 0x80
 80041ba:	02c9      	lsls	r1, r1, #11
 80041bc:	430a      	orrs	r2, r1
 80041be:	601a      	str	r2, [r3, #0]
 80041c0:	4b9d      	ldr	r3, [pc, #628]	; (8004438 <HAL_RCC_OscConfig+0x32c>)
 80041c2:	681a      	ldr	r2, [r3, #0]
 80041c4:	4b9c      	ldr	r3, [pc, #624]	; (8004438 <HAL_RCC_OscConfig+0x32c>)
 80041c6:	2180      	movs	r1, #128	; 0x80
 80041c8:	0249      	lsls	r1, r1, #9
 80041ca:	430a      	orrs	r2, r1
 80041cc:	601a      	str	r2, [r3, #0]
 80041ce:	e00b      	b.n	80041e8 <HAL_RCC_OscConfig+0xdc>
 80041d0:	4b99      	ldr	r3, [pc, #612]	; (8004438 <HAL_RCC_OscConfig+0x32c>)
 80041d2:	681a      	ldr	r2, [r3, #0]
 80041d4:	4b98      	ldr	r3, [pc, #608]	; (8004438 <HAL_RCC_OscConfig+0x32c>)
 80041d6:	4999      	ldr	r1, [pc, #612]	; (800443c <HAL_RCC_OscConfig+0x330>)
 80041d8:	400a      	ands	r2, r1
 80041da:	601a      	str	r2, [r3, #0]
 80041dc:	4b96      	ldr	r3, [pc, #600]	; (8004438 <HAL_RCC_OscConfig+0x32c>)
 80041de:	681a      	ldr	r2, [r3, #0]
 80041e0:	4b95      	ldr	r3, [pc, #596]	; (8004438 <HAL_RCC_OscConfig+0x32c>)
 80041e2:	4997      	ldr	r1, [pc, #604]	; (8004440 <HAL_RCC_OscConfig+0x334>)
 80041e4:	400a      	ands	r2, r1
 80041e6:	601a      	str	r2, [r3, #0]
 80041e8:	687b      	ldr	r3, [r7, #4]
 80041ea:	685b      	ldr	r3, [r3, #4]
 80041ec:	2b00      	cmp	r3, #0
 80041ee:	d014      	beq.n	800421a <HAL_RCC_OscConfig+0x10e>
 80041f0:	f7fe fe30 	bl	8002e54 <HAL_GetTick>
 80041f4:	0003      	movs	r3, r0
 80041f6:	61bb      	str	r3, [r7, #24]
 80041f8:	e008      	b.n	800420c <HAL_RCC_OscConfig+0x100>
 80041fa:	f7fe fe2b 	bl	8002e54 <HAL_GetTick>
 80041fe:	0002      	movs	r2, r0
 8004200:	69bb      	ldr	r3, [r7, #24]
 8004202:	1ad3      	subs	r3, r2, r3
 8004204:	2b64      	cmp	r3, #100	; 0x64
 8004206:	d901      	bls.n	800420c <HAL_RCC_OscConfig+0x100>
 8004208:	2303      	movs	r3, #3
 800420a:	e28a      	b.n	8004722 <HAL_RCC_OscConfig+0x616>
 800420c:	4b8a      	ldr	r3, [pc, #552]	; (8004438 <HAL_RCC_OscConfig+0x32c>)
 800420e:	681a      	ldr	r2, [r3, #0]
 8004210:	2380      	movs	r3, #128	; 0x80
 8004212:	029b      	lsls	r3, r3, #10
 8004214:	4013      	ands	r3, r2
 8004216:	d0f0      	beq.n	80041fa <HAL_RCC_OscConfig+0xee>
 8004218:	e015      	b.n	8004246 <HAL_RCC_OscConfig+0x13a>
 800421a:	f7fe fe1b 	bl	8002e54 <HAL_GetTick>
 800421e:	0003      	movs	r3, r0
 8004220:	61bb      	str	r3, [r7, #24]
 8004222:	e008      	b.n	8004236 <HAL_RCC_OscConfig+0x12a>
 8004224:	f7fe fe16 	bl	8002e54 <HAL_GetTick>
 8004228:	0002      	movs	r2, r0
 800422a:	69bb      	ldr	r3, [r7, #24]
 800422c:	1ad3      	subs	r3, r2, r3
 800422e:	2b64      	cmp	r3, #100	; 0x64
 8004230:	d901      	bls.n	8004236 <HAL_RCC_OscConfig+0x12a>
 8004232:	2303      	movs	r3, #3
 8004234:	e275      	b.n	8004722 <HAL_RCC_OscConfig+0x616>
 8004236:	4b80      	ldr	r3, [pc, #512]	; (8004438 <HAL_RCC_OscConfig+0x32c>)
 8004238:	681a      	ldr	r2, [r3, #0]
 800423a:	2380      	movs	r3, #128	; 0x80
 800423c:	029b      	lsls	r3, r3, #10
 800423e:	4013      	ands	r3, r2
 8004240:	d1f0      	bne.n	8004224 <HAL_RCC_OscConfig+0x118>
 8004242:	e000      	b.n	8004246 <HAL_RCC_OscConfig+0x13a>
 8004244:	46c0      	nop			; (mov r8, r8)
 8004246:	687b      	ldr	r3, [r7, #4]
 8004248:	681b      	ldr	r3, [r3, #0]
 800424a:	2202      	movs	r2, #2
 800424c:	4013      	ands	r3, r2
 800424e:	d100      	bne.n	8004252 <HAL_RCC_OscConfig+0x146>
 8004250:	e069      	b.n	8004326 <HAL_RCC_OscConfig+0x21a>
 8004252:	4b79      	ldr	r3, [pc, #484]	; (8004438 <HAL_RCC_OscConfig+0x32c>)
 8004254:	685b      	ldr	r3, [r3, #4]
 8004256:	220c      	movs	r2, #12
 8004258:	4013      	ands	r3, r2
 800425a:	d00b      	beq.n	8004274 <HAL_RCC_OscConfig+0x168>
 800425c:	4b76      	ldr	r3, [pc, #472]	; (8004438 <HAL_RCC_OscConfig+0x32c>)
 800425e:	685b      	ldr	r3, [r3, #4]
 8004260:	220c      	movs	r2, #12
 8004262:	4013      	ands	r3, r2
 8004264:	2b08      	cmp	r3, #8
 8004266:	d11c      	bne.n	80042a2 <HAL_RCC_OscConfig+0x196>
 8004268:	4b73      	ldr	r3, [pc, #460]	; (8004438 <HAL_RCC_OscConfig+0x32c>)
 800426a:	685a      	ldr	r2, [r3, #4]
 800426c:	2380      	movs	r3, #128	; 0x80
 800426e:	025b      	lsls	r3, r3, #9
 8004270:	4013      	ands	r3, r2
 8004272:	d116      	bne.n	80042a2 <HAL_RCC_OscConfig+0x196>
 8004274:	4b70      	ldr	r3, [pc, #448]	; (8004438 <HAL_RCC_OscConfig+0x32c>)
 8004276:	681b      	ldr	r3, [r3, #0]
 8004278:	2202      	movs	r2, #2
 800427a:	4013      	ands	r3, r2
 800427c:	d005      	beq.n	800428a <HAL_RCC_OscConfig+0x17e>
 800427e:	687b      	ldr	r3, [r7, #4]
 8004280:	68db      	ldr	r3, [r3, #12]
 8004282:	2b01      	cmp	r3, #1
 8004284:	d001      	beq.n	800428a <HAL_RCC_OscConfig+0x17e>
 8004286:	2301      	movs	r3, #1
 8004288:	e24b      	b.n	8004722 <HAL_RCC_OscConfig+0x616>
 800428a:	4b6b      	ldr	r3, [pc, #428]	; (8004438 <HAL_RCC_OscConfig+0x32c>)
 800428c:	681b      	ldr	r3, [r3, #0]
 800428e:	22f8      	movs	r2, #248	; 0xf8
 8004290:	4393      	bics	r3, r2
 8004292:	0019      	movs	r1, r3
 8004294:	687b      	ldr	r3, [r7, #4]
 8004296:	691b      	ldr	r3, [r3, #16]
 8004298:	00da      	lsls	r2, r3, #3
 800429a:	4b67      	ldr	r3, [pc, #412]	; (8004438 <HAL_RCC_OscConfig+0x32c>)
 800429c:	430a      	orrs	r2, r1
 800429e:	601a      	str	r2, [r3, #0]
 80042a0:	e041      	b.n	8004326 <HAL_RCC_OscConfig+0x21a>
 80042a2:	687b      	ldr	r3, [r7, #4]
 80042a4:	68db      	ldr	r3, [r3, #12]
 80042a6:	2b00      	cmp	r3, #0
 80042a8:	d024      	beq.n	80042f4 <HAL_RCC_OscConfig+0x1e8>
 80042aa:	4b63      	ldr	r3, [pc, #396]	; (8004438 <HAL_RCC_OscConfig+0x32c>)
 80042ac:	681a      	ldr	r2, [r3, #0]
 80042ae:	4b62      	ldr	r3, [pc, #392]	; (8004438 <HAL_RCC_OscConfig+0x32c>)
 80042b0:	2101      	movs	r1, #1
 80042b2:	430a      	orrs	r2, r1
 80042b4:	601a      	str	r2, [r3, #0]
 80042b6:	f7fe fdcd 	bl	8002e54 <HAL_GetTick>
 80042ba:	0003      	movs	r3, r0
 80042bc:	61bb      	str	r3, [r7, #24]
 80042be:	e008      	b.n	80042d2 <HAL_RCC_OscConfig+0x1c6>
 80042c0:	f7fe fdc8 	bl	8002e54 <HAL_GetTick>
 80042c4:	0002      	movs	r2, r0
 80042c6:	69bb      	ldr	r3, [r7, #24]
 80042c8:	1ad3      	subs	r3, r2, r3
 80042ca:	2b02      	cmp	r3, #2
 80042cc:	d901      	bls.n	80042d2 <HAL_RCC_OscConfig+0x1c6>
 80042ce:	2303      	movs	r3, #3
 80042d0:	e227      	b.n	8004722 <HAL_RCC_OscConfig+0x616>
 80042d2:	4b59      	ldr	r3, [pc, #356]	; (8004438 <HAL_RCC_OscConfig+0x32c>)
 80042d4:	681b      	ldr	r3, [r3, #0]
 80042d6:	2202      	movs	r2, #2
 80042d8:	4013      	ands	r3, r2
 80042da:	d0f1      	beq.n	80042c0 <HAL_RCC_OscConfig+0x1b4>
 80042dc:	4b56      	ldr	r3, [pc, #344]	; (8004438 <HAL_RCC_OscConfig+0x32c>)
 80042de:	681b      	ldr	r3, [r3, #0]
 80042e0:	22f8      	movs	r2, #248	; 0xf8
 80042e2:	4393      	bics	r3, r2
 80042e4:	0019      	movs	r1, r3
 80042e6:	687b      	ldr	r3, [r7, #4]
 80042e8:	691b      	ldr	r3, [r3, #16]
 80042ea:	00da      	lsls	r2, r3, #3
 80042ec:	4b52      	ldr	r3, [pc, #328]	; (8004438 <HAL_RCC_OscConfig+0x32c>)
 80042ee:	430a      	orrs	r2, r1
 80042f0:	601a      	str	r2, [r3, #0]
 80042f2:	e018      	b.n	8004326 <HAL_RCC_OscConfig+0x21a>
 80042f4:	4b50      	ldr	r3, [pc, #320]	; (8004438 <HAL_RCC_OscConfig+0x32c>)
 80042f6:	681a      	ldr	r2, [r3, #0]
 80042f8:	4b4f      	ldr	r3, [pc, #316]	; (8004438 <HAL_RCC_OscConfig+0x32c>)
 80042fa:	2101      	movs	r1, #1
 80042fc:	438a      	bics	r2, r1
 80042fe:	601a      	str	r2, [r3, #0]
 8004300:	f7fe fda8 	bl	8002e54 <HAL_GetTick>
 8004304:	0003      	movs	r3, r0
 8004306:	61bb      	str	r3, [r7, #24]
 8004308:	e008      	b.n	800431c <HAL_RCC_OscConfig+0x210>
 800430a:	f7fe fda3 	bl	8002e54 <HAL_GetTick>
 800430e:	0002      	movs	r2, r0
 8004310:	69bb      	ldr	r3, [r7, #24]
 8004312:	1ad3      	subs	r3, r2, r3
 8004314:	2b02      	cmp	r3, #2
 8004316:	d901      	bls.n	800431c <HAL_RCC_OscConfig+0x210>
 8004318:	2303      	movs	r3, #3
 800431a:	e202      	b.n	8004722 <HAL_RCC_OscConfig+0x616>
 800431c:	4b46      	ldr	r3, [pc, #280]	; (8004438 <HAL_RCC_OscConfig+0x32c>)
 800431e:	681b      	ldr	r3, [r3, #0]
 8004320:	2202      	movs	r2, #2
 8004322:	4013      	ands	r3, r2
 8004324:	d1f1      	bne.n	800430a <HAL_RCC_OscConfig+0x1fe>
 8004326:	687b      	ldr	r3, [r7, #4]
 8004328:	681b      	ldr	r3, [r3, #0]
 800432a:	2208      	movs	r2, #8
 800432c:	4013      	ands	r3, r2
 800432e:	d036      	beq.n	800439e <HAL_RCC_OscConfig+0x292>
 8004330:	687b      	ldr	r3, [r7, #4]
 8004332:	69db      	ldr	r3, [r3, #28]
 8004334:	2b00      	cmp	r3, #0
 8004336:	d019      	beq.n	800436c <HAL_RCC_OscConfig+0x260>
 8004338:	4b3f      	ldr	r3, [pc, #252]	; (8004438 <HAL_RCC_OscConfig+0x32c>)
 800433a:	6a5a      	ldr	r2, [r3, #36]	; 0x24
 800433c:	4b3e      	ldr	r3, [pc, #248]	; (8004438 <HAL_RCC_OscConfig+0x32c>)
 800433e:	2101      	movs	r1, #1
 8004340:	430a      	orrs	r2, r1
 8004342:	625a      	str	r2, [r3, #36]	; 0x24
 8004344:	f7fe fd86 	bl	8002e54 <HAL_GetTick>
 8004348:	0003      	movs	r3, r0
 800434a:	61bb      	str	r3, [r7, #24]
 800434c:	e008      	b.n	8004360 <HAL_RCC_OscConfig+0x254>
 800434e:	f7fe fd81 	bl	8002e54 <HAL_GetTick>
 8004352:	0002      	movs	r2, r0
 8004354:	69bb      	ldr	r3, [r7, #24]
 8004356:	1ad3      	subs	r3, r2, r3
 8004358:	2b02      	cmp	r3, #2
 800435a:	d901      	bls.n	8004360 <HAL_RCC_OscConfig+0x254>
 800435c:	2303      	movs	r3, #3
 800435e:	e1e0      	b.n	8004722 <HAL_RCC_OscConfig+0x616>
 8004360:	4b35      	ldr	r3, [pc, #212]	; (8004438 <HAL_RCC_OscConfig+0x32c>)
 8004362:	6a5b      	ldr	r3, [r3, #36]	; 0x24
 8004364:	2202      	movs	r2, #2
 8004366:	4013      	ands	r3, r2
 8004368:	d0f1      	beq.n	800434e <HAL_RCC_OscConfig+0x242>
 800436a:	e018      	b.n	800439e <HAL_RCC_OscConfig+0x292>
 800436c:	4b32      	ldr	r3, [pc, #200]	; (8004438 <HAL_RCC_OscConfig+0x32c>)
 800436e:	6a5a      	ldr	r2, [r3, #36]	; 0x24
 8004370:	4b31      	ldr	r3, [pc, #196]	; (8004438 <HAL_RCC_OscConfig+0x32c>)
 8004372:	2101      	movs	r1, #1
 8004374:	438a      	bics	r2, r1
 8004376:	625a      	str	r2, [r3, #36]	; 0x24
 8004378:	f7fe fd6c 	bl	8002e54 <HAL_GetTick>
 800437c:	0003      	movs	r3, r0
 800437e:	61bb      	str	r3, [r7, #24]
 8004380:	e008      	b.n	8004394 <HAL_RCC_OscConfig+0x288>
 8004382:	f7fe fd67 	bl	8002e54 <HAL_GetTick>
 8004386:	0002      	movs	r2, r0
 8004388:	69bb      	ldr	r3, [r7, #24]
 800438a:	1ad3      	subs	r3, r2, r3
 800438c:	2b02      	cmp	r3, #2
 800438e:	d901      	bls.n	8004394 <HAL_RCC_OscConfig+0x288>
 8004390:	2303      	movs	r3, #3
 8004392:	e1c6      	b.n	8004722 <HAL_RCC_OscConfig+0x616>
 8004394:	4b28      	ldr	r3, [pc, #160]	; (8004438 <HAL_RCC_OscConfig+0x32c>)
 8004396:	6a5b      	ldr	r3, [r3, #36]	; 0x24
 8004398:	2202      	movs	r2, #2
 800439a:	4013      	ands	r3, r2
 800439c:	d1f1      	bne.n	8004382 <HAL_RCC_OscConfig+0x276>
 800439e:	687b      	ldr	r3, [r7, #4]
 80043a0:	681b      	ldr	r3, [r3, #0]
 80043a2:	2204      	movs	r2, #4
 80043a4:	4013      	ands	r3, r2
 80043a6:	d100      	bne.n	80043aa <HAL_RCC_OscConfig+0x29e>
 80043a8:	e0b4      	b.n	8004514 <HAL_RCC_OscConfig+0x408>
 80043aa:	201f      	movs	r0, #31
 80043ac:	183b      	adds	r3, r7, r0
 80043ae:	2200      	movs	r2, #0
 80043b0:	701a      	strb	r2, [r3, #0]
 80043b2:	4b21      	ldr	r3, [pc, #132]	; (8004438 <HAL_RCC_OscConfig+0x32c>)
 80043b4:	69da      	ldr	r2, [r3, #28]
 80043b6:	2380      	movs	r3, #128	; 0x80
 80043b8:	055b      	lsls	r3, r3, #21
 80043ba:	4013      	ands	r3, r2
 80043bc:	d110      	bne.n	80043e0 <HAL_RCC_OscConfig+0x2d4>
 80043be:	4b1e      	ldr	r3, [pc, #120]	; (8004438 <HAL_RCC_OscConfig+0x32c>)
 80043c0:	69da      	ldr	r2, [r3, #28]
 80043c2:	4b1d      	ldr	r3, [pc, #116]	; (8004438 <HAL_RCC_OscConfig+0x32c>)
 80043c4:	2180      	movs	r1, #128	; 0x80
 80043c6:	0549      	lsls	r1, r1, #21
 80043c8:	430a      	orrs	r2, r1
 80043ca:	61da      	str	r2, [r3, #28]
 80043cc:	4b1a      	ldr	r3, [pc, #104]	; (8004438 <HAL_RCC_OscConfig+0x32c>)
 80043ce:	69da      	ldr	r2, [r3, #28]
 80043d0:	2380      	movs	r3, #128	; 0x80
 80043d2:	055b      	lsls	r3, r3, #21
 80043d4:	4013      	ands	r3, r2
 80043d6:	60fb      	str	r3, [r7, #12]
 80043d8:	68fb      	ldr	r3, [r7, #12]
 80043da:	183b      	adds	r3, r7, r0
 80043dc:	2201      	movs	r2, #1
 80043de:	701a      	strb	r2, [r3, #0]
 80043e0:	4b18      	ldr	r3, [pc, #96]	; (8004444 <HAL_RCC_OscConfig+0x338>)
 80043e2:	681a      	ldr	r2, [r3, #0]
 80043e4:	2380      	movs	r3, #128	; 0x80
 80043e6:	005b      	lsls	r3, r3, #1
 80043e8:	4013      	ands	r3, r2
 80043ea:	d11a      	bne.n	8004422 <HAL_RCC_OscConfig+0x316>
 80043ec:	4b15      	ldr	r3, [pc, #84]	; (8004444 <HAL_RCC_OscConfig+0x338>)
 80043ee:	681a      	ldr	r2, [r3, #0]
 80043f0:	4b14      	ldr	r3, [pc, #80]	; (8004444 <HAL_RCC_OscConfig+0x338>)
 80043f2:	2180      	movs	r1, #128	; 0x80
 80043f4:	0049      	lsls	r1, r1, #1
 80043f6:	430a      	orrs	r2, r1
 80043f8:	601a      	str	r2, [r3, #0]
 80043fa:	f7fe fd2b 	bl	8002e54 <HAL_GetTick>
 80043fe:	0003      	movs	r3, r0
 8004400:	61bb      	str	r3, [r7, #24]
 8004402:	e008      	b.n	8004416 <HAL_RCC_OscConfig+0x30a>
 8004404:	f7fe fd26 	bl	8002e54 <HAL_GetTick>
 8004408:	0002      	movs	r2, r0
 800440a:	69bb      	ldr	r3, [r7, #24]
 800440c:	1ad3      	subs	r3, r2, r3
 800440e:	2b64      	cmp	r3, #100	; 0x64
 8004410:	d901      	bls.n	8004416 <HAL_RCC_OscConfig+0x30a>
 8004412:	2303      	movs	r3, #3
 8004414:	e185      	b.n	8004722 <HAL_RCC_OscConfig+0x616>
 8004416:	4b0b      	ldr	r3, [pc, #44]	; (8004444 <HAL_RCC_OscConfig+0x338>)
 8004418:	681a      	ldr	r2, [r3, #0]
 800441a:	2380      	movs	r3, #128	; 0x80
 800441c:	005b      	lsls	r3, r3, #1
 800441e:	4013      	ands	r3, r2
 8004420:	d0f0      	beq.n	8004404 <HAL_RCC_OscConfig+0x2f8>
 8004422:	687b      	ldr	r3, [r7, #4]
 8004424:	689b      	ldr	r3, [r3, #8]
 8004426:	2b01      	cmp	r3, #1
 8004428:	d10e      	bne.n	8004448 <HAL_RCC_OscConfig+0x33c>
 800442a:	4b03      	ldr	r3, [pc, #12]	; (8004438 <HAL_RCC_OscConfig+0x32c>)
 800442c:	6a1a      	ldr	r2, [r3, #32]
 800442e:	4b02      	ldr	r3, [pc, #8]	; (8004438 <HAL_RCC_OscConfig+0x32c>)
 8004430:	2101      	movs	r1, #1
 8004432:	430a      	orrs	r2, r1
 8004434:	621a      	str	r2, [r3, #32]
 8004436:	e035      	b.n	80044a4 <HAL_RCC_OscConfig+0x398>
 8004438:	40021000 	.word	0x40021000
 800443c:	fffeffff 	.word	0xfffeffff
 8004440:	fffbffff 	.word	0xfffbffff
 8004444:	40007000 	.word	0x40007000
 8004448:	687b      	ldr	r3, [r7, #4]
 800444a:	689b      	ldr	r3, [r3, #8]
 800444c:	2b00      	cmp	r3, #0
 800444e:	d10c      	bne.n	800446a <HAL_RCC_OscConfig+0x35e>
 8004450:	4bb6      	ldr	r3, [pc, #728]	; (800472c <HAL_RCC_OscConfig+0x620>)
 8004452:	6a1a      	ldr	r2, [r3, #32]
 8004454:	4bb5      	ldr	r3, [pc, #724]	; (800472c <HAL_RCC_OscConfig+0x620>)
 8004456:	2101      	movs	r1, #1
 8004458:	438a      	bics	r2, r1
 800445a:	621a      	str	r2, [r3, #32]
 800445c:	4bb3      	ldr	r3, [pc, #716]	; (800472c <HAL_RCC_OscConfig+0x620>)
 800445e:	6a1a      	ldr	r2, [r3, #32]
 8004460:	4bb2      	ldr	r3, [pc, #712]	; (800472c <HAL_RCC_OscConfig+0x620>)
 8004462:	2104      	movs	r1, #4
 8004464:	438a      	bics	r2, r1
 8004466:	621a      	str	r2, [r3, #32]
 8004468:	e01c      	b.n	80044a4 <HAL_RCC_OscConfig+0x398>
 800446a:	687b      	ldr	r3, [r7, #4]
 800446c:	689b      	ldr	r3, [r3, #8]
 800446e:	2b05      	cmp	r3, #5
 8004470:	d10c      	bne.n	800448c <HAL_RCC_OscConfig+0x380>
 8004472:	4bae      	ldr	r3, [pc, #696]	; (800472c <HAL_RCC_OscConfig+0x620>)
 8004474:	6a1a      	ldr	r2, [r3, #32]
 8004476:	4bad      	ldr	r3, [pc, #692]	; (800472c <HAL_RCC_OscConfig+0x620>)
 8004478:	2104      	movs	r1, #4
 800447a:	430a      	orrs	r2, r1
 800447c:	621a      	str	r2, [r3, #32]
 800447e:	4bab      	ldr	r3, [pc, #684]	; (800472c <HAL_RCC_OscConfig+0x620>)
 8004480:	6a1a      	ldr	r2, [r3, #32]
 8004482:	4baa      	ldr	r3, [pc, #680]	; (800472c <HAL_RCC_OscConfig+0x620>)
 8004484:	2101      	movs	r1, #1
 8004486:	430a      	orrs	r2, r1
 8004488:	621a      	str	r2, [r3, #32]
 800448a:	e00b      	b.n	80044a4 <HAL_RCC_OscConfig+0x398>
 800448c:	4ba7      	ldr	r3, [pc, #668]	; (800472c <HAL_RCC_OscConfig+0x620>)
 800448e:	6a1a      	ldr	r2, [r3, #32]
 8004490:	4ba6      	ldr	r3, [pc, #664]	; (800472c <HAL_RCC_OscConfig+0x620>)
 8004492:	2101      	movs	r1, #1
 8004494:	438a      	bics	r2, r1
 8004496:	621a      	str	r2, [r3, #32]
 8004498:	4ba4      	ldr	r3, [pc, #656]	; (800472c <HAL_RCC_OscConfig+0x620>)
 800449a:	6a1a      	ldr	r2, [r3, #32]
 800449c:	4ba3      	ldr	r3, [pc, #652]	; (800472c <HAL_RCC_OscConfig+0x620>)
 800449e:	2104      	movs	r1, #4
 80044a0:	438a      	bics	r2, r1
 80044a2:	621a      	str	r2, [r3, #32]
 80044a4:	687b      	ldr	r3, [r7, #4]
 80044a6:	689b      	ldr	r3, [r3, #8]
 80044a8:	2b00      	cmp	r3, #0
 80044aa:	d014      	beq.n	80044d6 <HAL_RCC_OscConfig+0x3ca>
 80044ac:	f7fe fcd2 	bl	8002e54 <HAL_GetTick>
 80044b0:	0003      	movs	r3, r0
 80044b2:	61bb      	str	r3, [r7, #24]
 80044b4:	e009      	b.n	80044ca <HAL_RCC_OscConfig+0x3be>
 80044b6:	f7fe fccd 	bl	8002e54 <HAL_GetTick>
 80044ba:	0002      	movs	r2, r0
 80044bc:	69bb      	ldr	r3, [r7, #24]
 80044be:	1ad3      	subs	r3, r2, r3
 80044c0:	4a9b      	ldr	r2, [pc, #620]	; (8004730 <HAL_RCC_OscConfig+0x624>)
 80044c2:	4293      	cmp	r3, r2
 80044c4:	d901      	bls.n	80044ca <HAL_RCC_OscConfig+0x3be>
 80044c6:	2303      	movs	r3, #3
 80044c8:	e12b      	b.n	8004722 <HAL_RCC_OscConfig+0x616>
 80044ca:	4b98      	ldr	r3, [pc, #608]	; (800472c <HAL_RCC_OscConfig+0x620>)
 80044cc:	6a1b      	ldr	r3, [r3, #32]
 80044ce:	2202      	movs	r2, #2
 80044d0:	4013      	ands	r3, r2
 80044d2:	d0f0      	beq.n	80044b6 <HAL_RCC_OscConfig+0x3aa>
 80044d4:	e013      	b.n	80044fe <HAL_RCC_OscConfig+0x3f2>
 80044d6:	f7fe fcbd 	bl	8002e54 <HAL_GetTick>
 80044da:	0003      	movs	r3, r0
 80044dc:	61bb      	str	r3, [r7, #24]
 80044de:	e009      	b.n	80044f4 <HAL_RCC_OscConfig+0x3e8>
 80044e0:	f7fe fcb8 	bl	8002e54 <HAL_GetTick>
 80044e4:	0002      	movs	r2, r0
 80044e6:	69bb      	ldr	r3, [r7, #24]
 80044e8:	1ad3      	subs	r3, r2, r3
 80044ea:	4a91      	ldr	r2, [pc, #580]	; (8004730 <HAL_RCC_OscConfig+0x624>)
 80044ec:	4293      	cmp	r3, r2
 80044ee:	d901      	bls.n	80044f4 <HAL_RCC_OscConfig+0x3e8>
 80044f0:	2303      	movs	r3, #3
 80044f2:	e116      	b.n	8004722 <HAL_RCC_OscConfig+0x616>
 80044f4:	4b8d      	ldr	r3, [pc, #564]	; (800472c <HAL_RCC_OscConfig+0x620>)
 80044f6:	6a1b      	ldr	r3, [r3, #32]
 80044f8:	2202      	movs	r2, #2
 80044fa:	4013      	ands	r3, r2
 80044fc:	d1f0      	bne.n	80044e0 <HAL_RCC_OscConfig+0x3d4>
 80044fe:	231f      	movs	r3, #31
 8004500:	18fb      	adds	r3, r7, r3
 8004502:	781b      	ldrb	r3, [r3, #0]
 8004504:	2b01      	cmp	r3, #1
 8004506:	d105      	bne.n	8004514 <HAL_RCC_OscConfig+0x408>
 8004508:	4b88      	ldr	r3, [pc, #544]	; (800472c <HAL_RCC_OscConfig+0x620>)
 800450a:	69da      	ldr	r2, [r3, #28]
 800450c:	4b87      	ldr	r3, [pc, #540]	; (800472c <HAL_RCC_OscConfig+0x620>)
 800450e:	4989      	ldr	r1, [pc, #548]	; (8004734 <HAL_RCC_OscConfig+0x628>)
 8004510:	400a      	ands	r2, r1
 8004512:	61da      	str	r2, [r3, #28]
 8004514:	687b      	ldr	r3, [r7, #4]
 8004516:	681b      	ldr	r3, [r3, #0]
 8004518:	2210      	movs	r2, #16
 800451a:	4013      	ands	r3, r2
 800451c:	d063      	beq.n	80045e6 <HAL_RCC_OscConfig+0x4da>
 800451e:	687b      	ldr	r3, [r7, #4]
 8004520:	695b      	ldr	r3, [r3, #20]
 8004522:	2b01      	cmp	r3, #1
 8004524:	d12a      	bne.n	800457c <HAL_RCC_OscConfig+0x470>
 8004526:	4b81      	ldr	r3, [pc, #516]	; (800472c <HAL_RCC_OscConfig+0x620>)
 8004528:	6b5a      	ldr	r2, [r3, #52]	; 0x34
 800452a:	4b80      	ldr	r3, [pc, #512]	; (800472c <HAL_RCC_OscConfig+0x620>)
 800452c:	2104      	movs	r1, #4
 800452e:	430a      	orrs	r2, r1
 8004530:	635a      	str	r2, [r3, #52]	; 0x34
 8004532:	4b7e      	ldr	r3, [pc, #504]	; (800472c <HAL_RCC_OscConfig+0x620>)
 8004534:	6b5a      	ldr	r2, [r3, #52]	; 0x34
 8004536:	4b7d      	ldr	r3, [pc, #500]	; (800472c <HAL_RCC_OscConfig+0x620>)
 8004538:	2101      	movs	r1, #1
 800453a:	430a      	orrs	r2, r1
 800453c:	635a      	str	r2, [r3, #52]	; 0x34
 800453e:	f7fe fc89 	bl	8002e54 <HAL_GetTick>
 8004542:	0003      	movs	r3, r0
 8004544:	61bb      	str	r3, [r7, #24]
 8004546:	e008      	b.n	800455a <HAL_RCC_OscConfig+0x44e>
 8004548:	f7fe fc84 	bl	8002e54 <HAL_GetTick>
 800454c:	0002      	movs	r2, r0
 800454e:	69bb      	ldr	r3, [r7, #24]
 8004550:	1ad3      	subs	r3, r2, r3
 8004552:	2b02      	cmp	r3, #2
 8004554:	d901      	bls.n	800455a <HAL_RCC_OscConfig+0x44e>
 8004556:	2303      	movs	r3, #3
 8004558:	e0e3      	b.n	8004722 <HAL_RCC_OscConfig+0x616>
 800455a:	4b74      	ldr	r3, [pc, #464]	; (800472c <HAL_RCC_OscConfig+0x620>)
 800455c:	6b5b      	ldr	r3, [r3, #52]	; 0x34
 800455e:	2202      	movs	r2, #2
 8004560:	4013      	ands	r3, r2
 8004562:	d0f1      	beq.n	8004548 <HAL_RCC_OscConfig+0x43c>
 8004564:	4b71      	ldr	r3, [pc, #452]	; (800472c <HAL_RCC_OscConfig+0x620>)
 8004566:	6b5b      	ldr	r3, [r3, #52]	; 0x34
 8004568:	22f8      	movs	r2, #248	; 0xf8
 800456a:	4393      	bics	r3, r2
 800456c:	0019      	movs	r1, r3
 800456e:	687b      	ldr	r3, [r7, #4]
 8004570:	699b      	ldr	r3, [r3, #24]
 8004572:	00da      	lsls	r2, r3, #3
 8004574:	4b6d      	ldr	r3, [pc, #436]	; (800472c <HAL_RCC_OscConfig+0x620>)
 8004576:	430a      	orrs	r2, r1
 8004578:	635a      	str	r2, [r3, #52]	; 0x34
 800457a:	e034      	b.n	80045e6 <HAL_RCC_OscConfig+0x4da>
 800457c:	687b      	ldr	r3, [r7, #4]
 800457e:	695b      	ldr	r3, [r3, #20]
 8004580:	3305      	adds	r3, #5
 8004582:	d111      	bne.n	80045a8 <HAL_RCC_OscConfig+0x49c>
 8004584:	4b69      	ldr	r3, [pc, #420]	; (800472c <HAL_RCC_OscConfig+0x620>)
 8004586:	6b5a      	ldr	r2, [r3, #52]	; 0x34
 8004588:	4b68      	ldr	r3, [pc, #416]	; (800472c <HAL_RCC_OscConfig+0x620>)
 800458a:	2104      	movs	r1, #4
 800458c:	438a      	bics	r2, r1
 800458e:	635a      	str	r2, [r3, #52]	; 0x34
 8004590:	4b66      	ldr	r3, [pc, #408]	; (800472c <HAL_RCC_OscConfig+0x620>)
 8004592:	6b5b      	ldr	r3, [r3, #52]	; 0x34
 8004594:	22f8      	movs	r2, #248	; 0xf8
 8004596:	4393      	bics	r3, r2
 8004598:	0019      	movs	r1, r3
 800459a:	687b      	ldr	r3, [r7, #4]
 800459c:	699b      	ldr	r3, [r3, #24]
 800459e:	00da      	lsls	r2, r3, #3
 80045a0:	4b62      	ldr	r3, [pc, #392]	; (800472c <HAL_RCC_OscConfig+0x620>)
 80045a2:	430a      	orrs	r2, r1
 80045a4:	635a      	str	r2, [r3, #52]	; 0x34
 80045a6:	e01e      	b.n	80045e6 <HAL_RCC_OscConfig+0x4da>
 80045a8:	4b60      	ldr	r3, [pc, #384]	; (800472c <HAL_RCC_OscConfig+0x620>)
 80045aa:	6b5a      	ldr	r2, [r3, #52]	; 0x34
 80045ac:	4b5f      	ldr	r3, [pc, #380]	; (800472c <HAL_RCC_OscConfig+0x620>)
 80045ae:	2104      	movs	r1, #4
 80045b0:	430a      	orrs	r2, r1
 80045b2:	635a      	str	r2, [r3, #52]	; 0x34
 80045b4:	4b5d      	ldr	r3, [pc, #372]	; (800472c <HAL_RCC_OscConfig+0x620>)
 80045b6:	6b5a      	ldr	r2, [r3, #52]	; 0x34
 80045b8:	4b5c      	ldr	r3, [pc, #368]	; (800472c <HAL_RCC_OscConfig+0x620>)
 80045ba:	2101      	movs	r1, #1
 80045bc:	438a      	bics	r2, r1
 80045be:	635a      	str	r2, [r3, #52]	; 0x34
 80045c0:	f7fe fc48 	bl	8002e54 <HAL_GetTick>
 80045c4:	0003      	movs	r3, r0
 80045c6:	61bb      	str	r3, [r7, #24]
 80045c8:	e008      	b.n	80045dc <HAL_RCC_OscConfig+0x4d0>
 80045ca:	f7fe fc43 	bl	8002e54 <HAL_GetTick>
 80045ce:	0002      	movs	r2, r0
 80045d0:	69bb      	ldr	r3, [r7, #24]
 80045d2:	1ad3      	subs	r3, r2, r3
 80045d4:	2b02      	cmp	r3, #2
 80045d6:	d901      	bls.n	80045dc <HAL_RCC_OscConfig+0x4d0>
 80045d8:	2303      	movs	r3, #3
 80045da:	e0a2      	b.n	8004722 <HAL_RCC_OscConfig+0x616>
 80045dc:	4b53      	ldr	r3, [pc, #332]	; (800472c <HAL_RCC_OscConfig+0x620>)
 80045de:	6b5b      	ldr	r3, [r3, #52]	; 0x34
 80045e0:	2202      	movs	r2, #2
 80045e2:	4013      	ands	r3, r2
 80045e4:	d1f1      	bne.n	80045ca <HAL_RCC_OscConfig+0x4be>
 80045e6:	687b      	ldr	r3, [r7, #4]
 80045e8:	6a1b      	ldr	r3, [r3, #32]
 80045ea:	2b00      	cmp	r3, #0
 80045ec:	d100      	bne.n	80045f0 <HAL_RCC_OscConfig+0x4e4>
 80045ee:	e097      	b.n	8004720 <HAL_RCC_OscConfig+0x614>
 80045f0:	4b4e      	ldr	r3, [pc, #312]	; (800472c <HAL_RCC_OscConfig+0x620>)
 80045f2:	685b      	ldr	r3, [r3, #4]
 80045f4:	220c      	movs	r2, #12
 80045f6:	4013      	ands	r3, r2
 80045f8:	2b08      	cmp	r3, #8
 80045fa:	d100      	bne.n	80045fe <HAL_RCC_OscConfig+0x4f2>
 80045fc:	e06b      	b.n	80046d6 <HAL_RCC_OscConfig+0x5ca>
 80045fe:	687b      	ldr	r3, [r7, #4]
 8004600:	6a1b      	ldr	r3, [r3, #32]
 8004602:	2b02      	cmp	r3, #2
 8004604:	d14c      	bne.n	80046a0 <HAL_RCC_OscConfig+0x594>
 8004606:	4b49      	ldr	r3, [pc, #292]	; (800472c <HAL_RCC_OscConfig+0x620>)
 8004608:	681a      	ldr	r2, [r3, #0]
 800460a:	4b48      	ldr	r3, [pc, #288]	; (800472c <HAL_RCC_OscConfig+0x620>)
 800460c:	494a      	ldr	r1, [pc, #296]	; (8004738 <HAL_RCC_OscConfig+0x62c>)
 800460e:	400a      	ands	r2, r1
 8004610:	601a      	str	r2, [r3, #0]
 8004612:	f7fe fc1f 	bl	8002e54 <HAL_GetTick>
 8004616:	0003      	movs	r3, r0
 8004618:	61bb      	str	r3, [r7, #24]
 800461a:	e008      	b.n	800462e <HAL_RCC_OscConfig+0x522>
 800461c:	f7fe fc1a 	bl	8002e54 <HAL_GetTick>
 8004620:	0002      	movs	r2, r0
 8004622:	69bb      	ldr	r3, [r7, #24]
 8004624:	1ad3      	subs	r3, r2, r3
 8004626:	2b02      	cmp	r3, #2
 8004628:	d901      	bls.n	800462e <HAL_RCC_OscConfig+0x522>
 800462a:	2303      	movs	r3, #3
 800462c:	e079      	b.n	8004722 <HAL_RCC_OscConfig+0x616>
 800462e:	4b3f      	ldr	r3, [pc, #252]	; (800472c <HAL_RCC_OscConfig+0x620>)
 8004630:	681a      	ldr	r2, [r3, #0]
 8004632:	2380      	movs	r3, #128	; 0x80
 8004634:	049b      	lsls	r3, r3, #18
 8004636:	4013      	ands	r3, r2
 8004638:	d1f0      	bne.n	800461c <HAL_RCC_OscConfig+0x510>
 800463a:	4b3c      	ldr	r3, [pc, #240]	; (800472c <HAL_RCC_OscConfig+0x620>)
 800463c:	6adb      	ldr	r3, [r3, #44]	; 0x2c
 800463e:	220f      	movs	r2, #15
 8004640:	4393      	bics	r3, r2
 8004642:	0019      	movs	r1, r3
 8004644:	687b      	ldr	r3, [r7, #4]
 8004646:	6ada      	ldr	r2, [r3, #44]	; 0x2c
 8004648:	4b38      	ldr	r3, [pc, #224]	; (800472c <HAL_RCC_OscConfig+0x620>)
 800464a:	430a      	orrs	r2, r1
 800464c:	62da      	str	r2, [r3, #44]	; 0x2c
 800464e:	4b37      	ldr	r3, [pc, #220]	; (800472c <HAL_RCC_OscConfig+0x620>)
 8004650:	685b      	ldr	r3, [r3, #4]
 8004652:	4a3a      	ldr	r2, [pc, #232]	; (800473c <HAL_RCC_OscConfig+0x630>)
 8004654:	4013      	ands	r3, r2
 8004656:	0019      	movs	r1, r3
 8004658:	687b      	ldr	r3, [r7, #4]
 800465a:	6a9a      	ldr	r2, [r3, #40]	; 0x28
 800465c:	687b      	ldr	r3, [r7, #4]
 800465e:	6a5b      	ldr	r3, [r3, #36]	; 0x24
 8004660:	431a      	orrs	r2, r3
 8004662:	4b32      	ldr	r3, [pc, #200]	; (800472c <HAL_RCC_OscConfig+0x620>)
 8004664:	430a      	orrs	r2, r1
 8004666:	605a      	str	r2, [r3, #4]
 8004668:	4b30      	ldr	r3, [pc, #192]	; (800472c <HAL_RCC_OscConfig+0x620>)
 800466a:	681a      	ldr	r2, [r3, #0]
 800466c:	4b2f      	ldr	r3, [pc, #188]	; (800472c <HAL_RCC_OscConfig+0x620>)
 800466e:	2180      	movs	r1, #128	; 0x80
 8004670:	0449      	lsls	r1, r1, #17
 8004672:	430a      	orrs	r2, r1
 8004674:	601a      	str	r2, [r3, #0]
 8004676:	f7fe fbed 	bl	8002e54 <HAL_GetTick>
 800467a:	0003      	movs	r3, r0
 800467c:	61bb      	str	r3, [r7, #24]
 800467e:	e008      	b.n	8004692 <HAL_RCC_OscConfig+0x586>
 8004680:	f7fe fbe8 	bl	8002e54 <HAL_GetTick>
 8004684:	0002      	movs	r2, r0
 8004686:	69bb      	ldr	r3, [r7, #24]
 8004688:	1ad3      	subs	r3, r2, r3
 800468a:	2b02      	cmp	r3, #2
 800468c:	d901      	bls.n	8004692 <HAL_RCC_OscConfig+0x586>
 800468e:	2303      	movs	r3, #3
 8004690:	e047      	b.n	8004722 <HAL_RCC_OscConfig+0x616>
 8004692:	4b26      	ldr	r3, [pc, #152]	; (800472c <HAL_RCC_OscConfig+0x620>)
 8004694:	681a      	ldr	r2, [r3, #0]
 8004696:	2380      	movs	r3, #128	; 0x80
 8004698:	049b      	lsls	r3, r3, #18
 800469a:	4013      	ands	r3, r2
 800469c:	d0f0      	beq.n	8004680 <HAL_RCC_OscConfig+0x574>
 800469e:	e03f      	b.n	8004720 <HAL_RCC_OscConfig+0x614>
 80046a0:	4b22      	ldr	r3, [pc, #136]	; (800472c <HAL_RCC_OscConfig+0x620>)
 80046a2:	681a      	ldr	r2, [r3, #0]
 80046a4:	4b21      	ldr	r3, [pc, #132]	; (800472c <HAL_RCC_OscConfig+0x620>)
 80046a6:	4924      	ldr	r1, [pc, #144]	; (8004738 <HAL_RCC_OscConfig+0x62c>)
 80046a8:	400a      	ands	r2, r1
 80046aa:	601a      	str	r2, [r3, #0]
 80046ac:	f7fe fbd2 	bl	8002e54 <HAL_GetTick>
 80046b0:	0003      	movs	r3, r0
 80046b2:	61bb      	str	r3, [r7, #24]
 80046b4:	e008      	b.n	80046c8 <HAL_RCC_OscConfig+0x5bc>
 80046b6:	f7fe fbcd 	bl	8002e54 <HAL_GetTick>
 80046ba:	0002      	movs	r2, r0
 80046bc:	69bb      	ldr	r3, [r7, #24]
 80046be:	1ad3      	subs	r3, r2, r3
 80046c0:	2b02      	cmp	r3, #2
 80046c2:	d901      	bls.n	80046c8 <HAL_RCC_OscConfig+0x5bc>
 80046c4:	2303      	movs	r3, #3
 80046c6:	e02c      	b.n	8004722 <HAL_RCC_OscConfig+0x616>
 80046c8:	4b18      	ldr	r3, [pc, #96]	; (800472c <HAL_RCC_OscConfig+0x620>)
 80046ca:	681a      	ldr	r2, [r3, #0]
 80046cc:	2380      	movs	r3, #128	; 0x80
 80046ce:	049b      	lsls	r3, r3, #18
 80046d0:	4013      	ands	r3, r2
 80046d2:	d1f0      	bne.n	80046b6 <HAL_RCC_OscConfig+0x5aa>
 80046d4:	e024      	b.n	8004720 <HAL_RCC_OscConfig+0x614>
 80046d6:	687b      	ldr	r3, [r7, #4]
 80046d8:	6a1b      	ldr	r3, [r3, #32]
 80046da:	2b01      	cmp	r3, #1
 80046dc:	d101      	bne.n	80046e2 <HAL_RCC_OscConfig+0x5d6>
 80046de:	2301      	movs	r3, #1
 80046e0:	e01f      	b.n	8004722 <HAL_RCC_OscConfig+0x616>
 80046e2:	4b12      	ldr	r3, [pc, #72]	; (800472c <HAL_RCC_OscConfig+0x620>)
 80046e4:	685b      	ldr	r3, [r3, #4]
 80046e6:	617b      	str	r3, [r7, #20]
 80046e8:	4b10      	ldr	r3, [pc, #64]	; (800472c <HAL_RCC_OscConfig+0x620>)
 80046ea:	6adb      	ldr	r3, [r3, #44]	; 0x2c
 80046ec:	613b      	str	r3, [r7, #16]
 80046ee:	697a      	ldr	r2, [r7, #20]
 80046f0:	2380      	movs	r3, #128	; 0x80
 80046f2:	025b      	lsls	r3, r3, #9
 80046f4:	401a      	ands	r2, r3
 80046f6:	687b      	ldr	r3, [r7, #4]
 80046f8:	6a5b      	ldr	r3, [r3, #36]	; 0x24
 80046fa:	429a      	cmp	r2, r3
 80046fc:	d10e      	bne.n	800471c <HAL_RCC_OscConfig+0x610>
 80046fe:	693b      	ldr	r3, [r7, #16]
 8004700:	220f      	movs	r2, #15
 8004702:	401a      	ands	r2, r3
 8004704:	687b      	ldr	r3, [r7, #4]
 8004706:	6adb      	ldr	r3, [r3, #44]	; 0x2c
 8004708:	429a      	cmp	r2, r3
 800470a:	d107      	bne.n	800471c <HAL_RCC_OscConfig+0x610>
 800470c:	697a      	ldr	r2, [r7, #20]
 800470e:	23f0      	movs	r3, #240	; 0xf0
 8004710:	039b      	lsls	r3, r3, #14
 8004712:	401a      	ands	r2, r3
 8004714:	687b      	ldr	r3, [r7, #4]
 8004716:	6a9b      	ldr	r3, [r3, #40]	; 0x28
 8004718:	429a      	cmp	r2, r3
 800471a:	d001      	beq.n	8004720 <HAL_RCC_OscConfig+0x614>
 800471c:	2301      	movs	r3, #1
 800471e:	e000      	b.n	8004722 <HAL_RCC_OscConfig+0x616>
 8004720:	2300      	movs	r3, #0
 8004722:	0018      	movs	r0, r3
 8004724:	46bd      	mov	sp, r7
 8004726:	b008      	add	sp, #32
 8004728:	bd80      	pop	{r7, pc}
 800472a:	46c0      	nop			; (mov r8, r8)
 800472c:	40021000 	.word	0x40021000
 8004730:	00001388 	.word	0x00001388
 8004734:	efffffff 	.word	0xefffffff
 8004738:	feffffff 	.word	0xfeffffff
 800473c:	ffc2ffff 	.word	0xffc2ffff

08004740 <HAL_RCC_ClockConfig>:
 8004740:	b580      	push	{r7, lr}
 8004742:	b084      	sub	sp, #16
 8004744:	af00      	add	r7, sp, #0
 8004746:	6078      	str	r0, [r7, #4]
 8004748:	6039      	str	r1, [r7, #0]
 800474a:	687b      	ldr	r3, [r7, #4]
 800474c:	2b00      	cmp	r3, #0
 800474e:	d101      	bne.n	8004754 <HAL_RCC_ClockConfig+0x14>
 8004750:	2301      	movs	r3, #1
 8004752:	e0b3      	b.n	80048bc <HAL_RCC_ClockConfig+0x17c>
 8004754:	4b5b      	ldr	r3, [pc, #364]	; (80048c4 <HAL_RCC_ClockConfig+0x184>)
 8004756:	681b      	ldr	r3, [r3, #0]
 8004758:	2201      	movs	r2, #1
 800475a:	4013      	ands	r3, r2
 800475c:	683a      	ldr	r2, [r7, #0]
 800475e:	429a      	cmp	r2, r3
 8004760:	d911      	bls.n	8004786 <HAL_RCC_ClockConfig+0x46>
 8004762:	4b58      	ldr	r3, [pc, #352]	; (80048c4 <HAL_RCC_ClockConfig+0x184>)
 8004764:	681b      	ldr	r3, [r3, #0]
 8004766:	2201      	movs	r2, #1
 8004768:	4393      	bics	r3, r2
 800476a:	0019      	movs	r1, r3
 800476c:	4b55      	ldr	r3, [pc, #340]	; (80048c4 <HAL_RCC_ClockConfig+0x184>)
 800476e:	683a      	ldr	r2, [r7, #0]
 8004770:	430a      	orrs	r2, r1
 8004772:	601a      	str	r2, [r3, #0]
 8004774:	4b53      	ldr	r3, [pc, #332]	; (80048c4 <HAL_RCC_ClockConfig+0x184>)
 8004776:	681b      	ldr	r3, [r3, #0]
 8004778:	2201      	movs	r2, #1
 800477a:	4013      	ands	r3, r2
 800477c:	683a      	ldr	r2, [r7, #0]
 800477e:	429a      	cmp	r2, r3
 8004780:	d001      	beq.n	8004786 <HAL_RCC_ClockConfig+0x46>
 8004782:	2301      	movs	r3, #1
 8004784:	e09a      	b.n	80048bc <HAL_RCC_ClockConfig+0x17c>
 8004786:	687b      	ldr	r3, [r7, #4]
 8004788:	681b      	ldr	r3, [r3, #0]
 800478a:	2202      	movs	r2, #2
 800478c:	4013      	ands	r3, r2
 800478e:	d015      	beq.n	80047bc <HAL_RCC_ClockConfig+0x7c>
 8004790:	687b      	ldr	r3, [r7, #4]
 8004792:	681b      	ldr	r3, [r3, #0]
 8004794:	2204      	movs	r2, #4
 8004796:	4013      	ands	r3, r2
 8004798:	d006      	beq.n	80047a8 <HAL_RCC_ClockConfig+0x68>
 800479a:	4b4b      	ldr	r3, [pc, #300]	; (80048c8 <HAL_RCC_ClockConfig+0x188>)
 800479c:	685a      	ldr	r2, [r3, #4]
 800479e:	4b4a      	ldr	r3, [pc, #296]	; (80048c8 <HAL_RCC_ClockConfig+0x188>)
 80047a0:	21e0      	movs	r1, #224	; 0xe0
 80047a2:	00c9      	lsls	r1, r1, #3
 80047a4:	430a      	orrs	r2, r1
 80047a6:	605a      	str	r2, [r3, #4]
 80047a8:	4b47      	ldr	r3, [pc, #284]	; (80048c8 <HAL_RCC_ClockConfig+0x188>)
 80047aa:	685b      	ldr	r3, [r3, #4]
 80047ac:	22f0      	movs	r2, #240	; 0xf0
 80047ae:	4393      	bics	r3, r2
 80047b0:	0019      	movs	r1, r3
 80047b2:	687b      	ldr	r3, [r7, #4]
 80047b4:	689a      	ldr	r2, [r3, #8]
 80047b6:	4b44      	ldr	r3, [pc, #272]	; (80048c8 <HAL_RCC_ClockConfig+0x188>)
 80047b8:	430a      	orrs	r2, r1
 80047ba:	605a      	str	r2, [r3, #4]
 80047bc:	687b      	ldr	r3, [r7, #4]
 80047be:	681b      	ldr	r3, [r3, #0]
 80047c0:	2201      	movs	r2, #1
 80047c2:	4013      	ands	r3, r2
 80047c4:	d040      	beq.n	8004848 <HAL_RCC_ClockConfig+0x108>
 80047c6:	687b      	ldr	r3, [r7, #4]
 80047c8:	685b      	ldr	r3, [r3, #4]
 80047ca:	2b01      	cmp	r3, #1
 80047cc:	d107      	bne.n	80047de <HAL_RCC_ClockConfig+0x9e>
 80047ce:	4b3e      	ldr	r3, [pc, #248]	; (80048c8 <HAL_RCC_ClockConfig+0x188>)
 80047d0:	681a      	ldr	r2, [r3, #0]
 80047d2:	2380      	movs	r3, #128	; 0x80
 80047d4:	029b      	lsls	r3, r3, #10
 80047d6:	4013      	ands	r3, r2
 80047d8:	d114      	bne.n	8004804 <HAL_RCC_ClockConfig+0xc4>
 80047da:	2301      	movs	r3, #1
 80047dc:	e06e      	b.n	80048bc <HAL_RCC_ClockConfig+0x17c>
 80047de:	687b      	ldr	r3, [r7, #4]
 80047e0:	685b      	ldr	r3, [r3, #4]
 80047e2:	2b02      	cmp	r3, #2
 80047e4:	d107      	bne.n	80047f6 <HAL_RCC_ClockConfig+0xb6>
 80047e6:	4b38      	ldr	r3, [pc, #224]	; (80048c8 <HAL_RCC_ClockConfig+0x188>)
 80047e8:	681a      	ldr	r2, [r3, #0]
 80047ea:	2380      	movs	r3, #128	; 0x80
 80047ec:	049b      	lsls	r3, r3, #18
 80047ee:	4013      	ands	r3, r2
 80047f0:	d108      	bne.n	8004804 <HAL_RCC_ClockConfig+0xc4>
 80047f2:	2301      	movs	r3, #1
 80047f4:	e062      	b.n	80048bc <HAL_RCC_ClockConfig+0x17c>
 80047f6:	4b34      	ldr	r3, [pc, #208]	; (80048c8 <HAL_RCC_ClockConfig+0x188>)
 80047f8:	681b      	ldr	r3, [r3, #0]
 80047fa:	2202      	movs	r2, #2
 80047fc:	4013      	ands	r3, r2
 80047fe:	d101      	bne.n	8004804 <HAL_RCC_ClockConfig+0xc4>
 8004800:	2301      	movs	r3, #1
 8004802:	e05b      	b.n	80048bc <HAL_RCC_ClockConfig+0x17c>
 8004804:	4b30      	ldr	r3, [pc, #192]	; (80048c8 <HAL_RCC_ClockConfig+0x188>)
 8004806:	685b      	ldr	r3, [r3, #4]
 8004808:	2203      	movs	r2, #3
 800480a:	4393      	bics	r3, r2
 800480c:	0019      	movs	r1, r3
 800480e:	687b      	ldr	r3, [r7, #4]
 8004810:	685a      	ldr	r2, [r3, #4]
 8004812:	4b2d      	ldr	r3, [pc, #180]	; (80048c8 <HAL_RCC_ClockConfig+0x188>)
 8004814:	430a      	orrs	r2, r1
 8004816:	605a      	str	r2, [r3, #4]
 8004818:	f7fe fb1c 	bl	8002e54 <HAL_GetTick>
 800481c:	0003      	movs	r3, r0
 800481e:	60fb      	str	r3, [r7, #12]
 8004820:	e009      	b.n	8004836 <HAL_RCC_ClockConfig+0xf6>
 8004822:	f7fe fb17 	bl	8002e54 <HAL_GetTick>
 8004826:	0002      	movs	r2, r0
 8004828:	68fb      	ldr	r3, [r7, #12]
 800482a:	1ad3      	subs	r3, r2, r3
 800482c:	4a27      	ldr	r2, [pc, #156]	; (80048cc <HAL_RCC_ClockConfig+0x18c>)
 800482e:	4293      	cmp	r3, r2
 8004830:	d901      	bls.n	8004836 <HAL_RCC_ClockConfig+0xf6>
 8004832:	2303      	movs	r3, #3
 8004834:	e042      	b.n	80048bc <HAL_RCC_ClockConfig+0x17c>
 8004836:	4b24      	ldr	r3, [pc, #144]	; (80048c8 <HAL_RCC_ClockConfig+0x188>)
 8004838:	685b      	ldr	r3, [r3, #4]
 800483a:	220c      	movs	r2, #12
 800483c:	401a      	ands	r2, r3
 800483e:	687b      	ldr	r3, [r7, #4]
 8004840:	685b      	ldr	r3, [r3, #4]
 8004842:	009b      	lsls	r3, r3, #2
 8004844:	429a      	cmp	r2, r3
 8004846:	d1ec      	bne.n	8004822 <HAL_RCC_ClockConfig+0xe2>
 8004848:	4b1e      	ldr	r3, [pc, #120]	; (80048c4 <HAL_RCC_ClockConfig+0x184>)
 800484a:	681b      	ldr	r3, [r3, #0]
 800484c:	2201      	movs	r2, #1
 800484e:	4013      	ands	r3, r2
 8004850:	683a      	ldr	r2, [r7, #0]
 8004852:	429a      	cmp	r2, r3
 8004854:	d211      	bcs.n	800487a <HAL_RCC_ClockConfig+0x13a>
 8004856:	4b1b      	ldr	r3, [pc, #108]	; (80048c4 <HAL_RCC_ClockConfig+0x184>)
 8004858:	681b      	ldr	r3, [r3, #0]
 800485a:	2201      	movs	r2, #1
 800485c:	4393      	bics	r3, r2
 800485e:	0019      	movs	r1, r3
 8004860:	4b18      	ldr	r3, [pc, #96]	; (80048c4 <HAL_RCC_ClockConfig+0x184>)
 8004862:	683a      	ldr	r2, [r7, #0]
 8004864:	430a      	orrs	r2, r1
 8004866:	601a      	str	r2, [r3, #0]
 8004868:	4b16      	ldr	r3, [pc, #88]	; (80048c4 <HAL_RCC_ClockConfig+0x184>)
 800486a:	681b      	ldr	r3, [r3, #0]
 800486c:	2201      	movs	r2, #1
 800486e:	4013      	ands	r3, r2
 8004870:	683a      	ldr	r2, [r7, #0]
 8004872:	429a      	cmp	r2, r3
 8004874:	d001      	beq.n	800487a <HAL_RCC_ClockConfig+0x13a>
 8004876:	2301      	movs	r3, #1
 8004878:	e020      	b.n	80048bc <HAL_RCC_ClockConfig+0x17c>
 800487a:	687b      	ldr	r3, [r7, #4]
 800487c:	681b      	ldr	r3, [r3, #0]
 800487e:	2204      	movs	r2, #4
 8004880:	4013      	ands	r3, r2
 8004882:	d009      	beq.n	8004898 <HAL_RCC_ClockConfig+0x158>
 8004884:	4b10      	ldr	r3, [pc, #64]	; (80048c8 <HAL_RCC_ClockConfig+0x188>)
 8004886:	685b      	ldr	r3, [r3, #4]
 8004888:	4a11      	ldr	r2, [pc, #68]	; (80048d0 <HAL_RCC_ClockConfig+0x190>)
 800488a:	4013      	ands	r3, r2
 800488c:	0019      	movs	r1, r3
 800488e:	687b      	ldr	r3, [r7, #4]
 8004890:	68da      	ldr	r2, [r3, #12]
 8004892:	4b0d      	ldr	r3, [pc, #52]	; (80048c8 <HAL_RCC_ClockConfig+0x188>)
 8004894:	430a      	orrs	r2, r1
 8004896:	605a      	str	r2, [r3, #4]
 8004898:	f000 f820 	bl	80048dc <HAL_RCC_GetSysClockFreq>
 800489c:	0001      	movs	r1, r0
 800489e:	4b0a      	ldr	r3, [pc, #40]	; (80048c8 <HAL_RCC_ClockConfig+0x188>)
 80048a0:	685b      	ldr	r3, [r3, #4]
 80048a2:	091b      	lsrs	r3, r3, #4
 80048a4:	220f      	movs	r2, #15
 80048a6:	4013      	ands	r3, r2
 80048a8:	4a0a      	ldr	r2, [pc, #40]	; (80048d4 <HAL_RCC_ClockConfig+0x194>)
 80048aa:	5cd3      	ldrb	r3, [r2, r3]
 80048ac:	000a      	movs	r2, r1
 80048ae:	40da      	lsrs	r2, r3
 80048b0:	4b09      	ldr	r3, [pc, #36]	; (80048d8 <HAL_RCC_ClockConfig+0x198>)
 80048b2:	601a      	str	r2, [r3, #0]
 80048b4:	2003      	movs	r0, #3
 80048b6:	f7fe fa87 	bl	8002dc8 <HAL_InitTick>
 80048ba:	2300      	movs	r3, #0
 80048bc:	0018      	movs	r0, r3
 80048be:	46bd      	mov	sp, r7
 80048c0:	b004      	add	sp, #16
 80048c2:	bd80      	pop	{r7, pc}
 80048c4:	40022000 	.word	0x40022000
 80048c8:	40021000 	.word	0x40021000
 80048cc:	00001388 	.word	0x00001388
 80048d0:	fffff8ff 	.word	0xfffff8ff
 80048d4:	08006504 	.word	0x08006504
 80048d8:	2000000c 	.word	0x2000000c

080048dc <HAL_RCC_GetSysClockFreq>:
 80048dc:	b580      	push	{r7, lr}
 80048de:	b086      	sub	sp, #24
 80048e0:	af00      	add	r7, sp, #0
 80048e2:	2300      	movs	r3, #0
 80048e4:	60fb      	str	r3, [r7, #12]
 80048e6:	2300      	movs	r3, #0
 80048e8:	60bb      	str	r3, [r7, #8]
 80048ea:	2300      	movs	r3, #0
 80048ec:	617b      	str	r3, [r7, #20]
 80048ee:	2300      	movs	r3, #0
 80048f0:	607b      	str	r3, [r7, #4]
 80048f2:	2300      	movs	r3, #0
 80048f4:	613b      	str	r3, [r7, #16]
 80048f6:	4b20      	ldr	r3, [pc, #128]	; (8004978 <HAL_RCC_GetSysClockFreq+0x9c>)
 80048f8:	685b      	ldr	r3, [r3, #4]
 80048fa:	60fb      	str	r3, [r7, #12]
 80048fc:	68fb      	ldr	r3, [r7, #12]
 80048fe:	220c      	movs	r2, #12
 8004900:	4013      	ands	r3, r2
 8004902:	2b04      	cmp	r3, #4
 8004904:	d002      	beq.n	800490c <HAL_RCC_GetSysClockFreq+0x30>
 8004906:	2b08      	cmp	r3, #8
 8004908:	d003      	beq.n	8004912 <HAL_RCC_GetSysClockFreq+0x36>
 800490a:	e02c      	b.n	8004966 <HAL_RCC_GetSysClockFreq+0x8a>
 800490c:	4b1b      	ldr	r3, [pc, #108]	; (800497c <HAL_RCC_GetSysClockFreq+0xa0>)
 800490e:	613b      	str	r3, [r7, #16]
 8004910:	e02c      	b.n	800496c <HAL_RCC_GetSysClockFreq+0x90>
 8004912:	68fb      	ldr	r3, [r7, #12]
 8004914:	0c9b      	lsrs	r3, r3, #18
 8004916:	220f      	movs	r2, #15
 8004918:	4013      	ands	r3, r2
 800491a:	4a19      	ldr	r2, [pc, #100]	; (8004980 <HAL_RCC_GetSysClockFreq+0xa4>)
 800491c:	5cd3      	ldrb	r3, [r2, r3]
 800491e:	607b      	str	r3, [r7, #4]
 8004920:	4b15      	ldr	r3, [pc, #84]	; (8004978 <HAL_RCC_GetSysClockFreq+0x9c>)
 8004922:	6adb      	ldr	r3, [r3, #44]	; 0x2c
 8004924:	220f      	movs	r2, #15
 8004926:	4013      	ands	r3, r2
 8004928:	4a16      	ldr	r2, [pc, #88]	; (8004984 <HAL_RCC_GetSysClockFreq+0xa8>)
 800492a:	5cd3      	ldrb	r3, [r2, r3]
 800492c:	60bb      	str	r3, [r7, #8]
 800492e:	68fa      	ldr	r2, [r7, #12]
 8004930:	2380      	movs	r3, #128	; 0x80
 8004932:	025b      	lsls	r3, r3, #9
 8004934:	4013      	ands	r3, r2
 8004936:	d009      	beq.n	800494c <HAL_RCC_GetSysClockFreq+0x70>
 8004938:	68b9      	ldr	r1, [r7, #8]
 800493a:	4810      	ldr	r0, [pc, #64]	; (800497c <HAL_RCC_GetSysClockFreq+0xa0>)
 800493c:	f7fb fbee 	bl	800011c <__udivsi3>
 8004940:	0003      	movs	r3, r0
 8004942:	001a      	movs	r2, r3
 8004944:	687b      	ldr	r3, [r7, #4]
 8004946:	4353      	muls	r3, r2
 8004948:	617b      	str	r3, [r7, #20]
 800494a:	e009      	b.n	8004960 <HAL_RCC_GetSysClockFreq+0x84>
 800494c:	6879      	ldr	r1, [r7, #4]
 800494e:	000a      	movs	r2, r1
 8004950:	0152      	lsls	r2, r2, #5
 8004952:	1a52      	subs	r2, r2, r1
 8004954:	0193      	lsls	r3, r2, #6
 8004956:	1a9b      	subs	r3, r3, r2
 8004958:	00db      	lsls	r3, r3, #3
 800495a:	185b      	adds	r3, r3, r1
 800495c:	021b      	lsls	r3, r3, #8
 800495e:	617b      	str	r3, [r7, #20]
 8004960:	697b      	ldr	r3, [r7, #20]
 8004962:	613b      	str	r3, [r7, #16]
 8004964:	e002      	b.n	800496c <HAL_RCC_GetSysClockFreq+0x90>
 8004966:	4b05      	ldr	r3, [pc, #20]	; (800497c <HAL_RCC_GetSysClockFreq+0xa0>)
 8004968:	613b      	str	r3, [r7, #16]
 800496a:	46c0      	nop			; (mov r8, r8)
 800496c:	693b      	ldr	r3, [r7, #16]
 800496e:	0018      	movs	r0, r3
 8004970:	46bd      	mov	sp, r7
 8004972:	b006      	add	sp, #24
 8004974:	bd80      	pop	{r7, pc}
 8004976:	46c0      	nop			; (mov r8, r8)
 8004978:	40021000 	.word	0x40021000
 800497c:	007a1200 	.word	0x007a1200
 8004980:	0800651c 	.word	0x0800651c
 8004984:	0800652c 	.word	0x0800652c

08004988 <HAL_RCC_GetHCLKFreq>:
 8004988:	b580      	push	{r7, lr}
 800498a:	af00      	add	r7, sp, #0
 800498c:	4b02      	ldr	r3, [pc, #8]	; (8004998 <HAL_RCC_GetHCLKFreq+0x10>)
 800498e:	681b      	ldr	r3, [r3, #0]
 8004990:	0018      	movs	r0, r3
 8004992:	46bd      	mov	sp, r7
 8004994:	bd80      	pop	{r7, pc}
 8004996:	46c0      	nop			; (mov r8, r8)
 8004998:	2000000c 	.word	0x2000000c

0800499c <HAL_RCC_GetPCLK1Freq>:
 800499c:	b580      	push	{r7, lr}
 800499e:	af00      	add	r7, sp, #0
 80049a0:	f7ff fff2 	bl	8004988 <HAL_RCC_GetHCLKFreq>
 80049a4:	0001      	movs	r1, r0
 80049a6:	4b06      	ldr	r3, [pc, #24]	; (80049c0 <HAL_RCC_GetPCLK1Freq+0x24>)
 80049a8:	685b      	ldr	r3, [r3, #4]
 80049aa:	0a1b      	lsrs	r3, r3, #8
 80049ac:	2207      	movs	r2, #7
 80049ae:	4013      	ands	r3, r2
 80049b0:	4a04      	ldr	r2, [pc, #16]	; (80049c4 <HAL_RCC_GetPCLK1Freq+0x28>)
 80049b2:	5cd3      	ldrb	r3, [r2, r3]
 80049b4:	40d9      	lsrs	r1, r3
 80049b6:	000b      	movs	r3, r1
 80049b8:	0018      	movs	r0, r3
 80049ba:	46bd      	mov	sp, r7
 80049bc:	bd80      	pop	{r7, pc}
 80049be:	46c0      	nop			; (mov r8, r8)
 80049c0:	40021000 	.word	0x40021000
 80049c4:	08006514 	.word	0x08006514

080049c8 <HAL_RCCEx_PeriphCLKConfig>:
 80049c8:	b580      	push	{r7, lr}
 80049ca:	b086      	sub	sp, #24
 80049cc:	af00      	add	r7, sp, #0
 80049ce:	6078      	str	r0, [r7, #4]
 80049d0:	2300      	movs	r3, #0
 80049d2:	613b      	str	r3, [r7, #16]
 80049d4:	2300      	movs	r3, #0
 80049d6:	60fb      	str	r3, [r7, #12]
 80049d8:	687b      	ldr	r3, [r7, #4]
 80049da:	681a      	ldr	r2, [r3, #0]
 80049dc:	2380      	movs	r3, #128	; 0x80
 80049de:	025b      	lsls	r3, r3, #9
 80049e0:	4013      	ands	r3, r2
 80049e2:	d100      	bne.n	80049e6 <HAL_RCCEx_PeriphCLKConfig+0x1e>
 80049e4:	e08e      	b.n	8004b04 <HAL_RCCEx_PeriphCLKConfig+0x13c>
 80049e6:	2017      	movs	r0, #23
 80049e8:	183b      	adds	r3, r7, r0
 80049ea:	2200      	movs	r2, #0
 80049ec:	701a      	strb	r2, [r3, #0]
 80049ee:	4b57      	ldr	r3, [pc, #348]	; (8004b4c <HAL_RCCEx_PeriphCLKConfig+0x184>)
 80049f0:	69da      	ldr	r2, [r3, #28]
 80049f2:	2380      	movs	r3, #128	; 0x80
 80049f4:	055b      	lsls	r3, r3, #21
 80049f6:	4013      	ands	r3, r2
 80049f8:	d110      	bne.n	8004a1c <HAL_RCCEx_PeriphCLKConfig+0x54>
 80049fa:	4b54      	ldr	r3, [pc, #336]	; (8004b4c <HAL_RCCEx_PeriphCLKConfig+0x184>)
 80049fc:	69da      	ldr	r2, [r3, #28]
 80049fe:	4b53      	ldr	r3, [pc, #332]	; (8004b4c <HAL_RCCEx_PeriphCLKConfig+0x184>)
 8004a00:	2180      	movs	r1, #128	; 0x80
 8004a02:	0549      	lsls	r1, r1, #21
 8004a04:	430a      	orrs	r2, r1
 8004a06:	61da      	str	r2, [r3, #28]
 8004a08:	4b50      	ldr	r3, [pc, #320]	; (8004b4c <HAL_RCCEx_PeriphCLKConfig+0x184>)
 8004a0a:	69da      	ldr	r2, [r3, #28]
 8004a0c:	2380      	movs	r3, #128	; 0x80
 8004a0e:	055b      	lsls	r3, r3, #21
 8004a10:	4013      	ands	r3, r2
 8004a12:	60bb      	str	r3, [r7, #8]
 8004a14:	68bb      	ldr	r3, [r7, #8]
 8004a16:	183b      	adds	r3, r7, r0
 8004a18:	2201      	movs	r2, #1
 8004a1a:	701a      	strb	r2, [r3, #0]
 8004a1c:	4b4c      	ldr	r3, [pc, #304]	; (8004b50 <HAL_RCCEx_PeriphCLKConfig+0x188>)
 8004a1e:	681a      	ldr	r2, [r3, #0]
 8004a20:	2380      	movs	r3, #128	; 0x80
 8004a22:	005b      	lsls	r3, r3, #1
 8004a24:	4013      	ands	r3, r2
 8004a26:	d11a      	bne.n	8004a5e <HAL_RCCEx_PeriphCLKConfig+0x96>
 8004a28:	4b49      	ldr	r3, [pc, #292]	; (8004b50 <HAL_RCCEx_PeriphCLKConfig+0x188>)
 8004a2a:	681a      	ldr	r2, [r3, #0]
 8004a2c:	4b48      	ldr	r3, [pc, #288]	; (8004b50 <HAL_RCCEx_PeriphCLKConfig+0x188>)
 8004a2e:	2180      	movs	r1, #128	; 0x80
 8004a30:	0049      	lsls	r1, r1, #1
 8004a32:	430a      	orrs	r2, r1
 8004a34:	601a      	str	r2, [r3, #0]
 8004a36:	f7fe fa0d 	bl	8002e54 <HAL_GetTick>
 8004a3a:	0003      	movs	r3, r0
 8004a3c:	613b      	str	r3, [r7, #16]
 8004a3e:	e008      	b.n	8004a52 <HAL_RCCEx_PeriphCLKConfig+0x8a>
 8004a40:	f7fe fa08 	bl	8002e54 <HAL_GetTick>
 8004a44:	0002      	movs	r2, r0
 8004a46:	693b      	ldr	r3, [r7, #16]
 8004a48:	1ad3      	subs	r3, r2, r3
 8004a4a:	2b64      	cmp	r3, #100	; 0x64
 8004a4c:	d901      	bls.n	8004a52 <HAL_RCCEx_PeriphCLKConfig+0x8a>
 8004a4e:	2303      	movs	r3, #3
 8004a50:	e077      	b.n	8004b42 <HAL_RCCEx_PeriphCLKConfig+0x17a>
 8004a52:	4b3f      	ldr	r3, [pc, #252]	; (8004b50 <HAL_RCCEx_PeriphCLKConfig+0x188>)
 8004a54:	681a      	ldr	r2, [r3, #0]
 8004a56:	2380      	movs	r3, #128	; 0x80
 8004a58:	005b      	lsls	r3, r3, #1
 8004a5a:	4013      	ands	r3, r2
 8004a5c:	d0f0      	beq.n	8004a40 <HAL_RCCEx_PeriphCLKConfig+0x78>
 8004a5e:	4b3b      	ldr	r3, [pc, #236]	; (8004b4c <HAL_RCCEx_PeriphCLKConfig+0x184>)
 8004a60:	6a1a      	ldr	r2, [r3, #32]
 8004a62:	23c0      	movs	r3, #192	; 0xc0
 8004a64:	009b      	lsls	r3, r3, #2
 8004a66:	4013      	ands	r3, r2
 8004a68:	60fb      	str	r3, [r7, #12]
 8004a6a:	68fb      	ldr	r3, [r7, #12]
 8004a6c:	2b00      	cmp	r3, #0
 8004a6e:	d034      	beq.n	8004ada <HAL_RCCEx_PeriphCLKConfig+0x112>
 8004a70:	687b      	ldr	r3, [r7, #4]
 8004a72:	685a      	ldr	r2, [r3, #4]
 8004a74:	23c0      	movs	r3, #192	; 0xc0
 8004a76:	009b      	lsls	r3, r3, #2
 8004a78:	4013      	ands	r3, r2
 8004a7a:	68fa      	ldr	r2, [r7, #12]
 8004a7c:	429a      	cmp	r2, r3
 8004a7e:	d02c      	beq.n	8004ada <HAL_RCCEx_PeriphCLKConfig+0x112>
 8004a80:	4b32      	ldr	r3, [pc, #200]	; (8004b4c <HAL_RCCEx_PeriphCLKConfig+0x184>)
 8004a82:	6a1b      	ldr	r3, [r3, #32]
 8004a84:	4a33      	ldr	r2, [pc, #204]	; (8004b54 <HAL_RCCEx_PeriphCLKConfig+0x18c>)
 8004a86:	4013      	ands	r3, r2
 8004a88:	60fb      	str	r3, [r7, #12]
 8004a8a:	4b30      	ldr	r3, [pc, #192]	; (8004b4c <HAL_RCCEx_PeriphCLKConfig+0x184>)
 8004a8c:	6a1a      	ldr	r2, [r3, #32]
 8004a8e:	4b2f      	ldr	r3, [pc, #188]	; (8004b4c <HAL_RCCEx_PeriphCLKConfig+0x184>)
 8004a90:	2180      	movs	r1, #128	; 0x80
 8004a92:	0249      	lsls	r1, r1, #9
 8004a94:	430a      	orrs	r2, r1
 8004a96:	621a      	str	r2, [r3, #32]
 8004a98:	4b2c      	ldr	r3, [pc, #176]	; (8004b4c <HAL_RCCEx_PeriphCLKConfig+0x184>)
 8004a9a:	6a1a      	ldr	r2, [r3, #32]
 8004a9c:	4b2b      	ldr	r3, [pc, #172]	; (8004b4c <HAL_RCCEx_PeriphCLKConfig+0x184>)
 8004a9e:	492e      	ldr	r1, [pc, #184]	; (8004b58 <HAL_RCCEx_PeriphCLKConfig+0x190>)
 8004aa0:	400a      	ands	r2, r1
 8004aa2:	621a      	str	r2, [r3, #32]
 8004aa4:	4b29      	ldr	r3, [pc, #164]	; (8004b4c <HAL_RCCEx_PeriphCLKConfig+0x184>)
 8004aa6:	68fa      	ldr	r2, [r7, #12]
 8004aa8:	621a      	str	r2, [r3, #32]
 8004aaa:	68fb      	ldr	r3, [r7, #12]
 8004aac:	2201      	movs	r2, #1
 8004aae:	4013      	ands	r3, r2
 8004ab0:	d013      	beq.n	8004ada <HAL_RCCEx_PeriphCLKConfig+0x112>
 8004ab2:	f7fe f9cf 	bl	8002e54 <HAL_GetTick>
 8004ab6:	0003      	movs	r3, r0
 8004ab8:	613b      	str	r3, [r7, #16]
 8004aba:	e009      	b.n	8004ad0 <HAL_RCCEx_PeriphCLKConfig+0x108>
 8004abc:	f7fe f9ca 	bl	8002e54 <HAL_GetTick>
 8004ac0:	0002      	movs	r2, r0
 8004ac2:	693b      	ldr	r3, [r7, #16]
 8004ac4:	1ad3      	subs	r3, r2, r3
 8004ac6:	4a25      	ldr	r2, [pc, #148]	; (8004b5c <HAL_RCCEx_PeriphCLKConfig+0x194>)
 8004ac8:	4293      	cmp	r3, r2
 8004aca:	d901      	bls.n	8004ad0 <HAL_RCCEx_PeriphCLKConfig+0x108>
 8004acc:	2303      	movs	r3, #3
 8004ace:	e038      	b.n	8004b42 <HAL_RCCEx_PeriphCLKConfig+0x17a>
 8004ad0:	4b1e      	ldr	r3, [pc, #120]	; (8004b4c <HAL_RCCEx_PeriphCLKConfig+0x184>)
 8004ad2:	6a1b      	ldr	r3, [r3, #32]
 8004ad4:	2202      	movs	r2, #2
 8004ad6:	4013      	ands	r3, r2
 8004ad8:	d0f0      	beq.n	8004abc <HAL_RCCEx_PeriphCLKConfig+0xf4>
 8004ada:	4b1c      	ldr	r3, [pc, #112]	; (8004b4c <HAL_RCCEx_PeriphCLKConfig+0x184>)
 8004adc:	6a1b      	ldr	r3, [r3, #32]
 8004ade:	4a1d      	ldr	r2, [pc, #116]	; (8004b54 <HAL_RCCEx_PeriphCLKConfig+0x18c>)
 8004ae0:	4013      	ands	r3, r2
 8004ae2:	0019      	movs	r1, r3
 8004ae4:	687b      	ldr	r3, [r7, #4]
 8004ae6:	685a      	ldr	r2, [r3, #4]
 8004ae8:	4b18      	ldr	r3, [pc, #96]	; (8004b4c <HAL_RCCEx_PeriphCLKConfig+0x184>)
 8004aea:	430a      	orrs	r2, r1
 8004aec:	621a      	str	r2, [r3, #32]
 8004aee:	2317      	movs	r3, #23
 8004af0:	18fb      	adds	r3, r7, r3
 8004af2:	781b      	ldrb	r3, [r3, #0]
 8004af4:	2b01      	cmp	r3, #1
 8004af6:	d105      	bne.n	8004b04 <HAL_RCCEx_PeriphCLKConfig+0x13c>
 8004af8:	4b14      	ldr	r3, [pc, #80]	; (8004b4c <HAL_RCCEx_PeriphCLKConfig+0x184>)
 8004afa:	69da      	ldr	r2, [r3, #28]
 8004afc:	4b13      	ldr	r3, [pc, #76]	; (8004b4c <HAL_RCCEx_PeriphCLKConfig+0x184>)
 8004afe:	4918      	ldr	r1, [pc, #96]	; (8004b60 <HAL_RCCEx_PeriphCLKConfig+0x198>)
 8004b00:	400a      	ands	r2, r1
 8004b02:	61da      	str	r2, [r3, #28]
 8004b04:	687b      	ldr	r3, [r7, #4]
 8004b06:	681b      	ldr	r3, [r3, #0]
 8004b08:	2201      	movs	r2, #1
 8004b0a:	4013      	ands	r3, r2
 8004b0c:	d009      	beq.n	8004b22 <HAL_RCCEx_PeriphCLKConfig+0x15a>
 8004b0e:	4b0f      	ldr	r3, [pc, #60]	; (8004b4c <HAL_RCCEx_PeriphCLKConfig+0x184>)
 8004b10:	6b1b      	ldr	r3, [r3, #48]	; 0x30
 8004b12:	2203      	movs	r2, #3
 8004b14:	4393      	bics	r3, r2
 8004b16:	0019      	movs	r1, r3
 8004b18:	687b      	ldr	r3, [r7, #4]
 8004b1a:	689a      	ldr	r2, [r3, #8]
 8004b1c:	4b0b      	ldr	r3, [pc, #44]	; (8004b4c <HAL_RCCEx_PeriphCLKConfig+0x184>)
 8004b1e:	430a      	orrs	r2, r1
 8004b20:	631a      	str	r2, [r3, #48]	; 0x30
 8004b22:	687b      	ldr	r3, [r7, #4]
 8004b24:	681b      	ldr	r3, [r3, #0]
 8004b26:	2220      	movs	r2, #32
 8004b28:	4013      	ands	r3, r2
 8004b2a:	d009      	beq.n	8004b40 <HAL_RCCEx_PeriphCLKConfig+0x178>
 8004b2c:	4b07      	ldr	r3, [pc, #28]	; (8004b4c <HAL_RCCEx_PeriphCLKConfig+0x184>)
 8004b2e:	6b1b      	ldr	r3, [r3, #48]	; 0x30
 8004b30:	2210      	movs	r2, #16
 8004b32:	4393      	bics	r3, r2
 8004b34:	0019      	movs	r1, r3
 8004b36:	687b      	ldr	r3, [r7, #4]
 8004b38:	68da      	ldr	r2, [r3, #12]
 8004b3a:	4b04      	ldr	r3, [pc, #16]	; (8004b4c <HAL_RCCEx_PeriphCLKConfig+0x184>)
 8004b3c:	430a      	orrs	r2, r1
 8004b3e:	631a      	str	r2, [r3, #48]	; 0x30
 8004b40:	2300      	movs	r3, #0
 8004b42:	0018      	movs	r0, r3
 8004b44:	46bd      	mov	sp, r7
 8004b46:	b006      	add	sp, #24
 8004b48:	bd80      	pop	{r7, pc}
 8004b4a:	46c0      	nop			; (mov r8, r8)
 8004b4c:	40021000 	.word	0x40021000
 8004b50:	40007000 	.word	0x40007000
 8004b54:	fffffcff 	.word	0xfffffcff
 8004b58:	fffeffff 	.word	0xfffeffff
 8004b5c:	00001388 	.word	0x00001388
 8004b60:	efffffff 	.word	0xefffffff

08004b64 <HAL_TIM_Base_Init>:
 8004b64:	b580      	push	{r7, lr}
 8004b66:	b082      	sub	sp, #8
 8004b68:	af00      	add	r7, sp, #0
 8004b6a:	6078      	str	r0, [r7, #4]
 8004b6c:	687b      	ldr	r3, [r7, #4]
 8004b6e:	2b00      	cmp	r3, #0
 8004b70:	d101      	bne.n	8004b76 <HAL_TIM_Base_Init+0x12>
 8004b72:	2301      	movs	r3, #1
 8004b74:	e042      	b.n	8004bfc <HAL_TIM_Base_Init+0x98>
 8004b76:	687b      	ldr	r3, [r7, #4]
 8004b78:	223d      	movs	r2, #61	; 0x3d
 8004b7a:	5c9b      	ldrb	r3, [r3, r2]
 8004b7c:	b2db      	uxtb	r3, r3
 8004b7e:	2b00      	cmp	r3, #0
 8004b80:	d107      	bne.n	8004b92 <HAL_TIM_Base_Init+0x2e>
 8004b82:	687b      	ldr	r3, [r7, #4]
 8004b84:	223c      	movs	r2, #60	; 0x3c
 8004b86:	2100      	movs	r1, #0
 8004b88:	5499      	strb	r1, [r3, r2]
 8004b8a:	687b      	ldr	r3, [r7, #4]
 8004b8c:	0018      	movs	r0, r3
 8004b8e:	f7fd ff99 	bl	8002ac4 <HAL_TIM_Base_MspInit>
 8004b92:	687b      	ldr	r3, [r7, #4]
 8004b94:	223d      	movs	r2, #61	; 0x3d
 8004b96:	2102      	movs	r1, #2
 8004b98:	5499      	strb	r1, [r3, r2]
 8004b9a:	687b      	ldr	r3, [r7, #4]
 8004b9c:	681a      	ldr	r2, [r3, #0]
 8004b9e:	687b      	ldr	r3, [r7, #4]
 8004ba0:	3304      	adds	r3, #4
 8004ba2:	0019      	movs	r1, r3
 8004ba4:	0010      	movs	r0, r2
 8004ba6:	f000 f9dd 	bl	8004f64 <TIM_Base_SetConfig>
 8004baa:	687b      	ldr	r3, [r7, #4]
 8004bac:	2246      	movs	r2, #70	; 0x46
 8004bae:	2101      	movs	r1, #1
 8004bb0:	5499      	strb	r1, [r3, r2]
 8004bb2:	687b      	ldr	r3, [r7, #4]
 8004bb4:	223e      	movs	r2, #62	; 0x3e
 8004bb6:	2101      	movs	r1, #1
 8004bb8:	5499      	strb	r1, [r3, r2]
 8004bba:	687b      	ldr	r3, [r7, #4]
 8004bbc:	223f      	movs	r2, #63	; 0x3f
 8004bbe:	2101      	movs	r1, #1
 8004bc0:	5499      	strb	r1, [r3, r2]
 8004bc2:	687b      	ldr	r3, [r7, #4]
 8004bc4:	2240      	movs	r2, #64	; 0x40
 8004bc6:	2101      	movs	r1, #1
 8004bc8:	5499      	strb	r1, [r3, r2]
 8004bca:	687b      	ldr	r3, [r7, #4]
 8004bcc:	2241      	movs	r2, #65	; 0x41
 8004bce:	2101      	movs	r1, #1
 8004bd0:	5499      	strb	r1, [r3, r2]
 8004bd2:	687b      	ldr	r3, [r7, #4]
 8004bd4:	2242      	movs	r2, #66	; 0x42
 8004bd6:	2101      	movs	r1, #1
 8004bd8:	5499      	strb	r1, [r3, r2]
 8004bda:	687b      	ldr	r3, [r7, #4]
 8004bdc:	2243      	movs	r2, #67	; 0x43
 8004bde:	2101      	movs	r1, #1
 8004be0:	5499      	strb	r1, [r3, r2]
 8004be2:	687b      	ldr	r3, [r7, #4]
 8004be4:	2244      	movs	r2, #68	; 0x44
 8004be6:	2101      	movs	r1, #1
 8004be8:	5499      	strb	r1, [r3, r2]
 8004bea:	687b      	ldr	r3, [r7, #4]
 8004bec:	2245      	movs	r2, #69	; 0x45
 8004bee:	2101      	movs	r1, #1
 8004bf0:	5499      	strb	r1, [r3, r2]
 8004bf2:	687b      	ldr	r3, [r7, #4]
 8004bf4:	223d      	movs	r2, #61	; 0x3d
 8004bf6:	2101      	movs	r1, #1
 8004bf8:	5499      	strb	r1, [r3, r2]
 8004bfa:	2300      	movs	r3, #0
 8004bfc:	0018      	movs	r0, r3
 8004bfe:	46bd      	mov	sp, r7
 8004c00:	b002      	add	sp, #8
 8004c02:	bd80      	pop	{r7, pc}

08004c04 <HAL_TIM_Base_Start_IT>:
 8004c04:	b580      	push	{r7, lr}
 8004c06:	b084      	sub	sp, #16
 8004c08:	af00      	add	r7, sp, #0
 8004c0a:	6078      	str	r0, [r7, #4]
 8004c0c:	687b      	ldr	r3, [r7, #4]
 8004c0e:	223d      	movs	r2, #61	; 0x3d
 8004c10:	5c9b      	ldrb	r3, [r3, r2]
 8004c12:	b2db      	uxtb	r3, r3
 8004c14:	2b01      	cmp	r3, #1
 8004c16:	d001      	beq.n	8004c1c <HAL_TIM_Base_Start_IT+0x18>
 8004c18:	2301      	movs	r3, #1
 8004c1a:	e035      	b.n	8004c88 <HAL_TIM_Base_Start_IT+0x84>
 8004c1c:	687b      	ldr	r3, [r7, #4]
 8004c1e:	223d      	movs	r2, #61	; 0x3d
 8004c20:	2102      	movs	r1, #2
 8004c22:	5499      	strb	r1, [r3, r2]
 8004c24:	687b      	ldr	r3, [r7, #4]
 8004c26:	681b      	ldr	r3, [r3, #0]
 8004c28:	68da      	ldr	r2, [r3, #12]
 8004c2a:	687b      	ldr	r3, [r7, #4]
 8004c2c:	681b      	ldr	r3, [r3, #0]
 8004c2e:	2101      	movs	r1, #1
 8004c30:	430a      	orrs	r2, r1
 8004c32:	60da      	str	r2, [r3, #12]
 8004c34:	687b      	ldr	r3, [r7, #4]
 8004c36:	681b      	ldr	r3, [r3, #0]
 8004c38:	4a15      	ldr	r2, [pc, #84]	; (8004c90 <HAL_TIM_Base_Start_IT+0x8c>)
 8004c3a:	4293      	cmp	r3, r2
 8004c3c:	d009      	beq.n	8004c52 <HAL_TIM_Base_Start_IT+0x4e>
 8004c3e:	687b      	ldr	r3, [r7, #4]
 8004c40:	681b      	ldr	r3, [r3, #0]
 8004c42:	4a14      	ldr	r2, [pc, #80]	; (8004c94 <HAL_TIM_Base_Start_IT+0x90>)
 8004c44:	4293      	cmp	r3, r2
 8004c46:	d004      	beq.n	8004c52 <HAL_TIM_Base_Start_IT+0x4e>
 8004c48:	687b      	ldr	r3, [r7, #4]
 8004c4a:	681b      	ldr	r3, [r3, #0]
 8004c4c:	4a12      	ldr	r2, [pc, #72]	; (8004c98 <HAL_TIM_Base_Start_IT+0x94>)
 8004c4e:	4293      	cmp	r3, r2
 8004c50:	d111      	bne.n	8004c76 <HAL_TIM_Base_Start_IT+0x72>
 8004c52:	687b      	ldr	r3, [r7, #4]
 8004c54:	681b      	ldr	r3, [r3, #0]
 8004c56:	689b      	ldr	r3, [r3, #8]
 8004c58:	2207      	movs	r2, #7
 8004c5a:	4013      	ands	r3, r2
 8004c5c:	60fb      	str	r3, [r7, #12]
 8004c5e:	68fb      	ldr	r3, [r7, #12]
 8004c60:	2b06      	cmp	r3, #6
 8004c62:	d010      	beq.n	8004c86 <HAL_TIM_Base_Start_IT+0x82>
 8004c64:	687b      	ldr	r3, [r7, #4]
 8004c66:	681b      	ldr	r3, [r3, #0]
 8004c68:	681a      	ldr	r2, [r3, #0]
 8004c6a:	687b      	ldr	r3, [r7, #4]
 8004c6c:	681b      	ldr	r3, [r3, #0]
 8004c6e:	2101      	movs	r1, #1
 8004c70:	430a      	orrs	r2, r1
 8004c72:	601a      	str	r2, [r3, #0]
 8004c74:	e007      	b.n	8004c86 <HAL_TIM_Base_Start_IT+0x82>
 8004c76:	687b      	ldr	r3, [r7, #4]
 8004c78:	681b      	ldr	r3, [r3, #0]
 8004c7a:	681a      	ldr	r2, [r3, #0]
 8004c7c:	687b      	ldr	r3, [r7, #4]
 8004c7e:	681b      	ldr	r3, [r3, #0]
 8004c80:	2101      	movs	r1, #1
 8004c82:	430a      	orrs	r2, r1
 8004c84:	601a      	str	r2, [r3, #0]
 8004c86:	2300      	movs	r3, #0
 8004c88:	0018      	movs	r0, r3
 8004c8a:	46bd      	mov	sp, r7
 8004c8c:	b004      	add	sp, #16
 8004c8e:	bd80      	pop	{r7, pc}
 8004c90:	40012c00 	.word	0x40012c00
 8004c94:	40000400 	.word	0x40000400
 8004c98:	40014000 	.word	0x40014000

08004c9c <HAL_TIM_Base_Stop_IT>:
 8004c9c:	b580      	push	{r7, lr}
 8004c9e:	b082      	sub	sp, #8
 8004ca0:	af00      	add	r7, sp, #0
 8004ca2:	6078      	str	r0, [r7, #4]
 8004ca4:	687b      	ldr	r3, [r7, #4]
 8004ca6:	681b      	ldr	r3, [r3, #0]
 8004ca8:	68da      	ldr	r2, [r3, #12]
 8004caa:	687b      	ldr	r3, [r7, #4]
 8004cac:	681b      	ldr	r3, [r3, #0]
 8004cae:	2101      	movs	r1, #1
 8004cb0:	438a      	bics	r2, r1
 8004cb2:	60da      	str	r2, [r3, #12]
 8004cb4:	687b      	ldr	r3, [r7, #4]
 8004cb6:	681b      	ldr	r3, [r3, #0]
 8004cb8:	6a1b      	ldr	r3, [r3, #32]
 8004cba:	4a0d      	ldr	r2, [pc, #52]	; (8004cf0 <HAL_TIM_Base_Stop_IT+0x54>)
 8004cbc:	4013      	ands	r3, r2
 8004cbe:	d10d      	bne.n	8004cdc <HAL_TIM_Base_Stop_IT+0x40>
 8004cc0:	687b      	ldr	r3, [r7, #4]
 8004cc2:	681b      	ldr	r3, [r3, #0]
 8004cc4:	6a1b      	ldr	r3, [r3, #32]
 8004cc6:	4a0b      	ldr	r2, [pc, #44]	; (8004cf4 <HAL_TIM_Base_Stop_IT+0x58>)
 8004cc8:	4013      	ands	r3, r2
 8004cca:	d107      	bne.n	8004cdc <HAL_TIM_Base_Stop_IT+0x40>
 8004ccc:	687b      	ldr	r3, [r7, #4]
 8004cce:	681b      	ldr	r3, [r3, #0]
 8004cd0:	681a      	ldr	r2, [r3, #0]
 8004cd2:	687b      	ldr	r3, [r7, #4]
 8004cd4:	681b      	ldr	r3, [r3, #0]
 8004cd6:	2101      	movs	r1, #1
 8004cd8:	438a      	bics	r2, r1
 8004cda:	601a      	str	r2, [r3, #0]
 8004cdc:	687b      	ldr	r3, [r7, #4]
 8004cde:	223d      	movs	r2, #61	; 0x3d
 8004ce0:	2101      	movs	r1, #1
 8004ce2:	5499      	strb	r1, [r3, r2]
 8004ce4:	2300      	movs	r3, #0
 8004ce6:	0018      	movs	r0, r3
 8004ce8:	46bd      	mov	sp, r7
 8004cea:	b002      	add	sp, #8
 8004cec:	bd80      	pop	{r7, pc}
 8004cee:	46c0      	nop			; (mov r8, r8)
 8004cf0:	00001111 	.word	0x00001111
 8004cf4:	00000444 	.word	0x00000444

08004cf8 <HAL_TIM_IRQHandler>:
 8004cf8:	b580      	push	{r7, lr}
 8004cfa:	b082      	sub	sp, #8
 8004cfc:	af00      	add	r7, sp, #0
 8004cfe:	6078      	str	r0, [r7, #4]
 8004d00:	687b      	ldr	r3, [r7, #4]
 8004d02:	681b      	ldr	r3, [r3, #0]
 8004d04:	691b      	ldr	r3, [r3, #16]
 8004d06:	2202      	movs	r2, #2
 8004d08:	4013      	ands	r3, r2
 8004d0a:	2b02      	cmp	r3, #2
 8004d0c:	d124      	bne.n	8004d58 <HAL_TIM_IRQHandler+0x60>
 8004d0e:	687b      	ldr	r3, [r7, #4]
 8004d10:	681b      	ldr	r3, [r3, #0]
 8004d12:	68db      	ldr	r3, [r3, #12]
 8004d14:	2202      	movs	r2, #2
 8004d16:	4013      	ands	r3, r2
 8004d18:	2b02      	cmp	r3, #2
 8004d1a:	d11d      	bne.n	8004d58 <HAL_TIM_IRQHandler+0x60>
 8004d1c:	687b      	ldr	r3, [r7, #4]
 8004d1e:	681b      	ldr	r3, [r3, #0]
 8004d20:	2203      	movs	r2, #3
 8004d22:	4252      	negs	r2, r2
 8004d24:	611a      	str	r2, [r3, #16]
 8004d26:	687b      	ldr	r3, [r7, #4]
 8004d28:	2201      	movs	r2, #1
 8004d2a:	771a      	strb	r2, [r3, #28]
 8004d2c:	687b      	ldr	r3, [r7, #4]
 8004d2e:	681b      	ldr	r3, [r3, #0]
 8004d30:	699b      	ldr	r3, [r3, #24]
 8004d32:	2203      	movs	r2, #3
 8004d34:	4013      	ands	r3, r2
 8004d36:	d004      	beq.n	8004d42 <HAL_TIM_IRQHandler+0x4a>
 8004d38:	687b      	ldr	r3, [r7, #4]
 8004d3a:	0018      	movs	r0, r3
 8004d3c:	f000 f8fa 	bl	8004f34 <HAL_TIM_IC_CaptureCallback>
 8004d40:	e007      	b.n	8004d52 <HAL_TIM_IRQHandler+0x5a>
 8004d42:	687b      	ldr	r3, [r7, #4]
 8004d44:	0018      	movs	r0, r3
 8004d46:	f000 f8ed 	bl	8004f24 <HAL_TIM_OC_DelayElapsedCallback>
 8004d4a:	687b      	ldr	r3, [r7, #4]
 8004d4c:	0018      	movs	r0, r3
 8004d4e:	f000 f8f9 	bl	8004f44 <HAL_TIM_PWM_PulseFinishedCallback>
 8004d52:	687b      	ldr	r3, [r7, #4]
 8004d54:	2200      	movs	r2, #0
 8004d56:	771a      	strb	r2, [r3, #28]
 8004d58:	687b      	ldr	r3, [r7, #4]
 8004d5a:	681b      	ldr	r3, [r3, #0]
 8004d5c:	691b      	ldr	r3, [r3, #16]
 8004d5e:	2204      	movs	r2, #4
 8004d60:	4013      	ands	r3, r2
 8004d62:	2b04      	cmp	r3, #4
 8004d64:	d125      	bne.n	8004db2 <HAL_TIM_IRQHandler+0xba>
 8004d66:	687b      	ldr	r3, [r7, #4]
 8004d68:	681b      	ldr	r3, [r3, #0]
 8004d6a:	68db      	ldr	r3, [r3, #12]
 8004d6c:	2204      	movs	r2, #4
 8004d6e:	4013      	ands	r3, r2
 8004d70:	2b04      	cmp	r3, #4
 8004d72:	d11e      	bne.n	8004db2 <HAL_TIM_IRQHandler+0xba>
 8004d74:	687b      	ldr	r3, [r7, #4]
 8004d76:	681b      	ldr	r3, [r3, #0]
 8004d78:	2205      	movs	r2, #5
 8004d7a:	4252      	negs	r2, r2
 8004d7c:	611a      	str	r2, [r3, #16]
 8004d7e:	687b      	ldr	r3, [r7, #4]
 8004d80:	2202      	movs	r2, #2
 8004d82:	771a      	strb	r2, [r3, #28]
 8004d84:	687b      	ldr	r3, [r7, #4]
 8004d86:	681b      	ldr	r3, [r3, #0]
 8004d88:	699a      	ldr	r2, [r3, #24]
 8004d8a:	23c0      	movs	r3, #192	; 0xc0
 8004d8c:	009b      	lsls	r3, r3, #2
 8004d8e:	4013      	ands	r3, r2
 8004d90:	d004      	beq.n	8004d9c <HAL_TIM_IRQHandler+0xa4>
 8004d92:	687b      	ldr	r3, [r7, #4]
 8004d94:	0018      	movs	r0, r3
 8004d96:	f000 f8cd 	bl	8004f34 <HAL_TIM_IC_CaptureCallback>
 8004d9a:	e007      	b.n	8004dac <HAL_TIM_IRQHandler+0xb4>
 8004d9c:	687b      	ldr	r3, [r7, #4]
 8004d9e:	0018      	movs	r0, r3
 8004da0:	f000 f8c0 	bl	8004f24 <HAL_TIM_OC_DelayElapsedCallback>
 8004da4:	687b      	ldr	r3, [r7, #4]
 8004da6:	0018      	movs	r0, r3
 8004da8:	f000 f8cc 	bl	8004f44 <HAL_TIM_PWM_PulseFinishedCallback>
 8004dac:	687b      	ldr	r3, [r7, #4]
 8004dae:	2200      	movs	r2, #0
 8004db0:	771a      	strb	r2, [r3, #28]
 8004db2:	687b      	ldr	r3, [r7, #4]
 8004db4:	681b      	ldr	r3, [r3, #0]
 8004db6:	691b      	ldr	r3, [r3, #16]
 8004db8:	2208      	movs	r2, #8
 8004dba:	4013      	ands	r3, r2
 8004dbc:	2b08      	cmp	r3, #8
 8004dbe:	d124      	bne.n	8004e0a <HAL_TIM_IRQHandler+0x112>
 8004dc0:	687b      	ldr	r3, [r7, #4]
 8004dc2:	681b      	ldr	r3, [r3, #0]
 8004dc4:	68db      	ldr	r3, [r3, #12]
 8004dc6:	2208      	movs	r2, #8
 8004dc8:	4013      	ands	r3, r2
 8004dca:	2b08      	cmp	r3, #8
 8004dcc:	d11d      	bne.n	8004e0a <HAL_TIM_IRQHandler+0x112>
 8004dce:	687b      	ldr	r3, [r7, #4]
 8004dd0:	681b      	ldr	r3, [r3, #0]
 8004dd2:	2209      	movs	r2, #9
 8004dd4:	4252      	negs	r2, r2
 8004dd6:	611a      	str	r2, [r3, #16]
 8004dd8:	687b      	ldr	r3, [r7, #4]
 8004dda:	2204      	movs	r2, #4
 8004ddc:	771a      	strb	r2, [r3, #28]
 8004dde:	687b      	ldr	r3, [r7, #4]
 8004de0:	681b      	ldr	r3, [r3, #0]
 8004de2:	69db      	ldr	r3, [r3, #28]
 8004de4:	2203      	movs	r2, #3
 8004de6:	4013      	ands	r3, r2
 8004de8:	d004      	beq.n	8004df4 <HAL_TIM_IRQHandler+0xfc>
 8004dea:	687b      	ldr	r3, [r7, #4]
 8004dec:	0018      	movs	r0, r3
 8004dee:	f000 f8a1 	bl	8004f34 <HAL_TIM_IC_CaptureCallback>
 8004df2:	e007      	b.n	8004e04 <HAL_TIM_IRQHandler+0x10c>
 8004df4:	687b      	ldr	r3, [r7, #4]
 8004df6:	0018      	movs	r0, r3
 8004df8:	f000 f894 	bl	8004f24 <HAL_TIM_OC_DelayElapsedCallback>
 8004dfc:	687b      	ldr	r3, [r7, #4]
 8004dfe:	0018      	movs	r0, r3
 8004e00:	f000 f8a0 	bl	8004f44 <HAL_TIM_PWM_PulseFinishedCallback>
 8004e04:	687b      	ldr	r3, [r7, #4]
 8004e06:	2200      	movs	r2, #0
 8004e08:	771a      	strb	r2, [r3, #28]
 8004e0a:	687b      	ldr	r3, [r7, #4]
 8004e0c:	681b      	ldr	r3, [r3, #0]
 8004e0e:	691b      	ldr	r3, [r3, #16]
 8004e10:	2210      	movs	r2, #16
 8004e12:	4013      	ands	r3, r2
 8004e14:	2b10      	cmp	r3, #16
 8004e16:	d125      	bne.n	8004e64 <HAL_TIM_IRQHandler+0x16c>
 8004e18:	687b      	ldr	r3, [r7, #4]
 8004e1a:	681b      	ldr	r3, [r3, #0]
 8004e1c:	68db      	ldr	r3, [r3, #12]
 8004e1e:	2210      	movs	r2, #16
 8004e20:	4013      	ands	r3, r2
 8004e22:	2b10      	cmp	r3, #16
 8004e24:	d11e      	bne.n	8004e64 <HAL_TIM_IRQHandler+0x16c>
 8004e26:	687b      	ldr	r3, [r7, #4]
 8004e28:	681b      	ldr	r3, [r3, #0]
 8004e2a:	2211      	movs	r2, #17
 8004e2c:	4252      	negs	r2, r2
 8004e2e:	611a      	str	r2, [r3, #16]
 8004e30:	687b      	ldr	r3, [r7, #4]
 8004e32:	2208      	movs	r2, #8
 8004e34:	771a      	strb	r2, [r3, #28]
 8004e36:	687b      	ldr	r3, [r7, #4]
 8004e38:	681b      	ldr	r3, [r3, #0]
 8004e3a:	69da      	ldr	r2, [r3, #28]
 8004e3c:	23c0      	movs	r3, #192	; 0xc0
 8004e3e:	009b      	lsls	r3, r3, #2
 8004e40:	4013      	ands	r3, r2
 8004e42:	d004      	beq.n	8004e4e <HAL_TIM_IRQHandler+0x156>
 8004e44:	687b      	ldr	r3, [r7, #4]
 8004e46:	0018      	movs	r0, r3
 8004e48:	f000 f874 	bl	8004f34 <HAL_TIM_IC_CaptureCallback>
 8004e4c:	e007      	b.n	8004e5e <HAL_TIM_IRQHandler+0x166>
 8004e4e:	687b      	ldr	r3, [r7, #4]
 8004e50:	0018      	movs	r0, r3
 8004e52:	f000 f867 	bl	8004f24 <HAL_TIM_OC_DelayElapsedCallback>
 8004e56:	687b      	ldr	r3, [r7, #4]
 8004e58:	0018      	movs	r0, r3
 8004e5a:	f000 f873 	bl	8004f44 <HAL_TIM_PWM_PulseFinishedCallback>
 8004e5e:	687b      	ldr	r3, [r7, #4]
 8004e60:	2200      	movs	r2, #0
 8004e62:	771a      	strb	r2, [r3, #28]
 8004e64:	687b      	ldr	r3, [r7, #4]
 8004e66:	681b      	ldr	r3, [r3, #0]
 8004e68:	691b      	ldr	r3, [r3, #16]
 8004e6a:	2201      	movs	r2, #1
 8004e6c:	4013      	ands	r3, r2
 8004e6e:	2b01      	cmp	r3, #1
 8004e70:	d10f      	bne.n	8004e92 <HAL_TIM_IRQHandler+0x19a>
 8004e72:	687b      	ldr	r3, [r7, #4]
 8004e74:	681b      	ldr	r3, [r3, #0]
 8004e76:	68db      	ldr	r3, [r3, #12]
 8004e78:	2201      	movs	r2, #1
 8004e7a:	4013      	ands	r3, r2
 8004e7c:	2b01      	cmp	r3, #1
 8004e7e:	d108      	bne.n	8004e92 <HAL_TIM_IRQHandler+0x19a>
 8004e80:	687b      	ldr	r3, [r7, #4]
 8004e82:	681b      	ldr	r3, [r3, #0]
 8004e84:	2202      	movs	r2, #2
 8004e86:	4252      	negs	r2, r2
 8004e88:	611a      	str	r2, [r3, #16]
 8004e8a:	687b      	ldr	r3, [r7, #4]
 8004e8c:	0018      	movs	r0, r3
 8004e8e:	f7fb ffa9 	bl	8000de4 <HAL_TIM_PeriodElapsedCallback>
 8004e92:	687b      	ldr	r3, [r7, #4]
 8004e94:	681b      	ldr	r3, [r3, #0]
 8004e96:	691b      	ldr	r3, [r3, #16]
 8004e98:	2280      	movs	r2, #128	; 0x80
 8004e9a:	4013      	ands	r3, r2
 8004e9c:	2b80      	cmp	r3, #128	; 0x80
 8004e9e:	d10f      	bne.n	8004ec0 <HAL_TIM_IRQHandler+0x1c8>
 8004ea0:	687b      	ldr	r3, [r7, #4]
 8004ea2:	681b      	ldr	r3, [r3, #0]
 8004ea4:	68db      	ldr	r3, [r3, #12]
 8004ea6:	2280      	movs	r2, #128	; 0x80
 8004ea8:	4013      	ands	r3, r2
 8004eaa:	2b80      	cmp	r3, #128	; 0x80
 8004eac:	d108      	bne.n	8004ec0 <HAL_TIM_IRQHandler+0x1c8>
 8004eae:	687b      	ldr	r3, [r7, #4]
 8004eb0:	681b      	ldr	r3, [r3, #0]
 8004eb2:	2281      	movs	r2, #129	; 0x81
 8004eb4:	4252      	negs	r2, r2
 8004eb6:	611a      	str	r2, [r3, #16]
 8004eb8:	687b      	ldr	r3, [r7, #4]
 8004eba:	0018      	movs	r0, r3
 8004ebc:	f000 f8d0 	bl	8005060 <HAL_TIMEx_BreakCallback>
 8004ec0:	687b      	ldr	r3, [r7, #4]
 8004ec2:	681b      	ldr	r3, [r3, #0]
 8004ec4:	691b      	ldr	r3, [r3, #16]
 8004ec6:	2240      	movs	r2, #64	; 0x40
 8004ec8:	4013      	ands	r3, r2
 8004eca:	2b40      	cmp	r3, #64	; 0x40
 8004ecc:	d10f      	bne.n	8004eee <HAL_TIM_IRQHandler+0x1f6>
 8004ece:	687b      	ldr	r3, [r7, #4]
 8004ed0:	681b      	ldr	r3, [r3, #0]
 8004ed2:	68db      	ldr	r3, [r3, #12]
 8004ed4:	2240      	movs	r2, #64	; 0x40
 8004ed6:	4013      	ands	r3, r2
 8004ed8:	2b40      	cmp	r3, #64	; 0x40
 8004eda:	d108      	bne.n	8004eee <HAL_TIM_IRQHandler+0x1f6>
 8004edc:	687b      	ldr	r3, [r7, #4]
 8004ede:	681b      	ldr	r3, [r3, #0]
 8004ee0:	2241      	movs	r2, #65	; 0x41
 8004ee2:	4252      	negs	r2, r2
 8004ee4:	611a      	str	r2, [r3, #16]
 8004ee6:	687b      	ldr	r3, [r7, #4]
 8004ee8:	0018      	movs	r0, r3
 8004eea:	f000 f833 	bl	8004f54 <HAL_TIM_TriggerCallback>
 8004eee:	687b      	ldr	r3, [r7, #4]
 8004ef0:	681b      	ldr	r3, [r3, #0]
 8004ef2:	691b      	ldr	r3, [r3, #16]
 8004ef4:	2220      	movs	r2, #32
 8004ef6:	4013      	ands	r3, r2
 8004ef8:	2b20      	cmp	r3, #32
 8004efa:	d10f      	bne.n	8004f1c <HAL_TIM_IRQHandler+0x224>
 8004efc:	687b      	ldr	r3, [r7, #4]
 8004efe:	681b      	ldr	r3, [r3, #0]
 8004f00:	68db      	ldr	r3, [r3, #12]
 8004f02:	2220      	movs	r2, #32
 8004f04:	4013      	ands	r3, r2
 8004f06:	2b20      	cmp	r3, #32
 8004f08:	d108      	bne.n	8004f1c <HAL_TIM_IRQHandler+0x224>
 8004f0a:	687b      	ldr	r3, [r7, #4]
 8004f0c:	681b      	ldr	r3, [r3, #0]
 8004f0e:	2221      	movs	r2, #33	; 0x21
 8004f10:	4252      	negs	r2, r2
 8004f12:	611a      	str	r2, [r3, #16]
 8004f14:	687b      	ldr	r3, [r7, #4]
 8004f16:	0018      	movs	r0, r3
 8004f18:	f000 f89a 	bl	8005050 <HAL_TIMEx_CommutCallback>
 8004f1c:	46c0      	nop			; (mov r8, r8)
 8004f1e:	46bd      	mov	sp, r7
 8004f20:	b002      	add	sp, #8
 8004f22:	bd80      	pop	{r7, pc}

08004f24 <HAL_TIM_OC_DelayElapsedCallback>:
 8004f24:	b580      	push	{r7, lr}
 8004f26:	b082      	sub	sp, #8
 8004f28:	af00      	add	r7, sp, #0
 8004f2a:	6078      	str	r0, [r7, #4]
 8004f2c:	46c0      	nop			; (mov r8, r8)
 8004f2e:	46bd      	mov	sp, r7
 8004f30:	b002      	add	sp, #8
 8004f32:	bd80      	pop	{r7, pc}

08004f34 <HAL_TIM_IC_CaptureCallback>:
 8004f34:	b580      	push	{r7, lr}
 8004f36:	b082      	sub	sp, #8
 8004f38:	af00      	add	r7, sp, #0
 8004f3a:	6078      	str	r0, [r7, #4]
 8004f3c:	46c0      	nop			; (mov r8, r8)
 8004f3e:	46bd      	mov	sp, r7
 8004f40:	b002      	add	sp, #8
 8004f42:	bd80      	pop	{r7, pc}

08004f44 <HAL_TIM_PWM_PulseFinishedCallback>:
 8004f44:	b580      	push	{r7, lr}
 8004f46:	b082      	sub	sp, #8
 8004f48:	af00      	add	r7, sp, #0
 8004f4a:	6078      	str	r0, [r7, #4]
 8004f4c:	46c0      	nop			; (mov r8, r8)
 8004f4e:	46bd      	mov	sp, r7
 8004f50:	b002      	add	sp, #8
 8004f52:	bd80      	pop	{r7, pc}

08004f54 <HAL_TIM_TriggerCallback>:
 8004f54:	b580      	push	{r7, lr}
 8004f56:	b082      	sub	sp, #8
 8004f58:	af00      	add	r7, sp, #0
 8004f5a:	6078      	str	r0, [r7, #4]
 8004f5c:	46c0      	nop			; (mov r8, r8)
 8004f5e:	46bd      	mov	sp, r7
 8004f60:	b002      	add	sp, #8
 8004f62:	bd80      	pop	{r7, pc}

08004f64 <TIM_Base_SetConfig>:
 8004f64:	b580      	push	{r7, lr}
 8004f66:	b084      	sub	sp, #16
 8004f68:	af00      	add	r7, sp, #0
 8004f6a:	6078      	str	r0, [r7, #4]
 8004f6c:	6039      	str	r1, [r7, #0]
 8004f6e:	687b      	ldr	r3, [r7, #4]
 8004f70:	681b      	ldr	r3, [r3, #0]
 8004f72:	60fb      	str	r3, [r7, #12]
 8004f74:	687b      	ldr	r3, [r7, #4]
 8004f76:	4a2f      	ldr	r2, [pc, #188]	; (8005034 <TIM_Base_SetConfig+0xd0>)
 8004f78:	4293      	cmp	r3, r2
 8004f7a:	d003      	beq.n	8004f84 <TIM_Base_SetConfig+0x20>
 8004f7c:	687b      	ldr	r3, [r7, #4]
 8004f7e:	4a2e      	ldr	r2, [pc, #184]	; (8005038 <TIM_Base_SetConfig+0xd4>)
 8004f80:	4293      	cmp	r3, r2
 8004f82:	d108      	bne.n	8004f96 <TIM_Base_SetConfig+0x32>
 8004f84:	68fb      	ldr	r3, [r7, #12]
 8004f86:	2270      	movs	r2, #112	; 0x70
 8004f88:	4393      	bics	r3, r2
 8004f8a:	60fb      	str	r3, [r7, #12]
 8004f8c:	683b      	ldr	r3, [r7, #0]
 8004f8e:	685b      	ldr	r3, [r3, #4]
 8004f90:	68fa      	ldr	r2, [r7, #12]
 8004f92:	4313      	orrs	r3, r2
 8004f94:	60fb      	str	r3, [r7, #12]
 8004f96:	687b      	ldr	r3, [r7, #4]
 8004f98:	4a26      	ldr	r2, [pc, #152]	; (8005034 <TIM_Base_SetConfig+0xd0>)
 8004f9a:	4293      	cmp	r3, r2
 8004f9c:	d013      	beq.n	8004fc6 <TIM_Base_SetConfig+0x62>
 8004f9e:	687b      	ldr	r3, [r7, #4]
 8004fa0:	4a25      	ldr	r2, [pc, #148]	; (8005038 <TIM_Base_SetConfig+0xd4>)
 8004fa2:	4293      	cmp	r3, r2
 8004fa4:	d00f      	beq.n	8004fc6 <TIM_Base_SetConfig+0x62>
 8004fa6:	687b      	ldr	r3, [r7, #4]
 8004fa8:	4a24      	ldr	r2, [pc, #144]	; (800503c <TIM_Base_SetConfig+0xd8>)
 8004faa:	4293      	cmp	r3, r2
 8004fac:	d00b      	beq.n	8004fc6 <TIM_Base_SetConfig+0x62>
 8004fae:	687b      	ldr	r3, [r7, #4]
 8004fb0:	4a23      	ldr	r2, [pc, #140]	; (8005040 <TIM_Base_SetConfig+0xdc>)
 8004fb2:	4293      	cmp	r3, r2
 8004fb4:	d007      	beq.n	8004fc6 <TIM_Base_SetConfig+0x62>
 8004fb6:	687b      	ldr	r3, [r7, #4]
 8004fb8:	4a22      	ldr	r2, [pc, #136]	; (8005044 <TIM_Base_SetConfig+0xe0>)
 8004fba:	4293      	cmp	r3, r2
 8004fbc:	d003      	beq.n	8004fc6 <TIM_Base_SetConfig+0x62>
 8004fbe:	687b      	ldr	r3, [r7, #4]
 8004fc0:	4a21      	ldr	r2, [pc, #132]	; (8005048 <TIM_Base_SetConfig+0xe4>)
 8004fc2:	4293      	cmp	r3, r2
 8004fc4:	d108      	bne.n	8004fd8 <TIM_Base_SetConfig+0x74>
 8004fc6:	68fb      	ldr	r3, [r7, #12]
 8004fc8:	4a20      	ldr	r2, [pc, #128]	; (800504c <TIM_Base_SetConfig+0xe8>)
 8004fca:	4013      	ands	r3, r2
 8004fcc:	60fb      	str	r3, [r7, #12]
 8004fce:	683b      	ldr	r3, [r7, #0]
 8004fd0:	68db      	ldr	r3, [r3, #12]
 8004fd2:	68fa      	ldr	r2, [r7, #12]
 8004fd4:	4313      	orrs	r3, r2
 8004fd6:	60fb      	str	r3, [r7, #12]
 8004fd8:	68fb      	ldr	r3, [r7, #12]
 8004fda:	2280      	movs	r2, #128	; 0x80
 8004fdc:	4393      	bics	r3, r2
 8004fde:	001a      	movs	r2, r3
 8004fe0:	683b      	ldr	r3, [r7, #0]
 8004fe2:	695b      	ldr	r3, [r3, #20]
 8004fe4:	4313      	orrs	r3, r2
 8004fe6:	60fb      	str	r3, [r7, #12]
 8004fe8:	687b      	ldr	r3, [r7, #4]
 8004fea:	68fa      	ldr	r2, [r7, #12]
 8004fec:	601a      	str	r2, [r3, #0]
 8004fee:	683b      	ldr	r3, [r7, #0]
 8004ff0:	689a      	ldr	r2, [r3, #8]
 8004ff2:	687b      	ldr	r3, [r7, #4]
 8004ff4:	62da      	str	r2, [r3, #44]	; 0x2c
 8004ff6:	683b      	ldr	r3, [r7, #0]
 8004ff8:	681a      	ldr	r2, [r3, #0]
 8004ffa:	687b      	ldr	r3, [r7, #4]
 8004ffc:	629a      	str	r2, [r3, #40]	; 0x28
 8004ffe:	687b      	ldr	r3, [r7, #4]
 8005000:	4a0c      	ldr	r2, [pc, #48]	; (8005034 <TIM_Base_SetConfig+0xd0>)
 8005002:	4293      	cmp	r3, r2
 8005004:	d00b      	beq.n	800501e <TIM_Base_SetConfig+0xba>
 8005006:	687b      	ldr	r3, [r7, #4]
 8005008:	4a0d      	ldr	r2, [pc, #52]	; (8005040 <TIM_Base_SetConfig+0xdc>)
 800500a:	4293      	cmp	r3, r2
 800500c:	d007      	beq.n	800501e <TIM_Base_SetConfig+0xba>
 800500e:	687b      	ldr	r3, [r7, #4]
 8005010:	4a0c      	ldr	r2, [pc, #48]	; (8005044 <TIM_Base_SetConfig+0xe0>)
 8005012:	4293      	cmp	r3, r2
 8005014:	d003      	beq.n	800501e <TIM_Base_SetConfig+0xba>
 8005016:	687b      	ldr	r3, [r7, #4]
 8005018:	4a0b      	ldr	r2, [pc, #44]	; (8005048 <TIM_Base_SetConfig+0xe4>)
 800501a:	4293      	cmp	r3, r2
 800501c:	d103      	bne.n	8005026 <TIM_Base_SetConfig+0xc2>
 800501e:	683b      	ldr	r3, [r7, #0]
 8005020:	691a      	ldr	r2, [r3, #16]
 8005022:	687b      	ldr	r3, [r7, #4]
 8005024:	631a      	str	r2, [r3, #48]	; 0x30
 8005026:	687b      	ldr	r3, [r7, #4]
 8005028:	2201      	movs	r2, #1
 800502a:	615a      	str	r2, [r3, #20]
 800502c:	46c0      	nop			; (mov r8, r8)
 800502e:	46bd      	mov	sp, r7
 8005030:	b004      	add	sp, #16
 8005032:	bd80      	pop	{r7, pc}
 8005034:	40012c00 	.word	0x40012c00
 8005038:	40000400 	.word	0x40000400
 800503c:	40002000 	.word	0x40002000
 8005040:	40014000 	.word	0x40014000
 8005044:	40014400 	.word	0x40014400
 8005048:	40014800 	.word	0x40014800
 800504c:	fffffcff 	.word	0xfffffcff

08005050 <HAL_TIMEx_CommutCallback>:
 8005050:	b580      	push	{r7, lr}
 8005052:	b082      	sub	sp, #8
 8005054:	af00      	add	r7, sp, #0
 8005056:	6078      	str	r0, [r7, #4]
 8005058:	46c0      	nop			; (mov r8, r8)
 800505a:	46bd      	mov	sp, r7
 800505c:	b002      	add	sp, #8
 800505e:	bd80      	pop	{r7, pc}

08005060 <HAL_TIMEx_BreakCallback>:
 8005060:	b580      	push	{r7, lr}
 8005062:	b082      	sub	sp, #8
 8005064:	af00      	add	r7, sp, #0
 8005066:	6078      	str	r0, [r7, #4]
 8005068:	46c0      	nop			; (mov r8, r8)
 800506a:	46bd      	mov	sp, r7
 800506c:	b002      	add	sp, #8
 800506e:	bd80      	pop	{r7, pc}

08005070 <HAL_UART_Transmit>:
 8005070:	b580      	push	{r7, lr}
 8005072:	b08a      	sub	sp, #40	; 0x28
 8005074:	af02      	add	r7, sp, #8
 8005076:	60f8      	str	r0, [r7, #12]
 8005078:	60b9      	str	r1, [r7, #8]
 800507a:	603b      	str	r3, [r7, #0]
 800507c:	1dbb      	adds	r3, r7, #6
 800507e:	801a      	strh	r2, [r3, #0]
 8005080:	68fb      	ldr	r3, [r7, #12]
 8005082:	6fdb      	ldr	r3, [r3, #124]	; 0x7c
 8005084:	2b20      	cmp	r3, #32
 8005086:	d000      	beq.n	800508a <HAL_UART_Transmit+0x1a>
 8005088:	e08d      	b.n	80051a6 <HAL_UART_Transmit+0x136>
 800508a:	68bb      	ldr	r3, [r7, #8]
 800508c:	2b00      	cmp	r3, #0
 800508e:	d003      	beq.n	8005098 <HAL_UART_Transmit+0x28>
 8005090:	1dbb      	adds	r3, r7, #6
 8005092:	881b      	ldrh	r3, [r3, #0]
 8005094:	2b00      	cmp	r3, #0
 8005096:	d101      	bne.n	800509c <HAL_UART_Transmit+0x2c>
 8005098:	2301      	movs	r3, #1
 800509a:	e085      	b.n	80051a8 <HAL_UART_Transmit+0x138>
 800509c:	68fb      	ldr	r3, [r7, #12]
 800509e:	689a      	ldr	r2, [r3, #8]
 80050a0:	2380      	movs	r3, #128	; 0x80
 80050a2:	015b      	lsls	r3, r3, #5
 80050a4:	429a      	cmp	r2, r3
 80050a6:	d109      	bne.n	80050bc <HAL_UART_Transmit+0x4c>
 80050a8:	68fb      	ldr	r3, [r7, #12]
 80050aa:	691b      	ldr	r3, [r3, #16]
 80050ac:	2b00      	cmp	r3, #0
 80050ae:	d105      	bne.n	80050bc <HAL_UART_Transmit+0x4c>
 80050b0:	68bb      	ldr	r3, [r7, #8]
 80050b2:	2201      	movs	r2, #1
 80050b4:	4013      	ands	r3, r2
 80050b6:	d001      	beq.n	80050bc <HAL_UART_Transmit+0x4c>
 80050b8:	2301      	movs	r3, #1
 80050ba:	e075      	b.n	80051a8 <HAL_UART_Transmit+0x138>
 80050bc:	68fb      	ldr	r3, [r7, #12]
 80050be:	2284      	movs	r2, #132	; 0x84
 80050c0:	2100      	movs	r1, #0
 80050c2:	5099      	str	r1, [r3, r2]
 80050c4:	68fb      	ldr	r3, [r7, #12]
 80050c6:	2221      	movs	r2, #33	; 0x21
 80050c8:	67da      	str	r2, [r3, #124]	; 0x7c
 80050ca:	f7fd fec3 	bl	8002e54 <HAL_GetTick>
 80050ce:	0003      	movs	r3, r0
 80050d0:	617b      	str	r3, [r7, #20]
 80050d2:	68fb      	ldr	r3, [r7, #12]
 80050d4:	1dba      	adds	r2, r7, #6
 80050d6:	2150      	movs	r1, #80	; 0x50
 80050d8:	8812      	ldrh	r2, [r2, #0]
 80050da:	525a      	strh	r2, [r3, r1]
 80050dc:	68fb      	ldr	r3, [r7, #12]
 80050de:	1dba      	adds	r2, r7, #6
 80050e0:	2152      	movs	r1, #82	; 0x52
 80050e2:	8812      	ldrh	r2, [r2, #0]
 80050e4:	525a      	strh	r2, [r3, r1]
 80050e6:	68fb      	ldr	r3, [r7, #12]
 80050e8:	689a      	ldr	r2, [r3, #8]
 80050ea:	2380      	movs	r3, #128	; 0x80
 80050ec:	015b      	lsls	r3, r3, #5
 80050ee:	429a      	cmp	r2, r3
 80050f0:	d108      	bne.n	8005104 <HAL_UART_Transmit+0x94>
 80050f2:	68fb      	ldr	r3, [r7, #12]
 80050f4:	691b      	ldr	r3, [r3, #16]
 80050f6:	2b00      	cmp	r3, #0
 80050f8:	d104      	bne.n	8005104 <HAL_UART_Transmit+0x94>
 80050fa:	2300      	movs	r3, #0
 80050fc:	61fb      	str	r3, [r7, #28]
 80050fe:	68bb      	ldr	r3, [r7, #8]
 8005100:	61bb      	str	r3, [r7, #24]
 8005102:	e003      	b.n	800510c <HAL_UART_Transmit+0x9c>
 8005104:	68bb      	ldr	r3, [r7, #8]
 8005106:	61fb      	str	r3, [r7, #28]
 8005108:	2300      	movs	r3, #0
 800510a:	61bb      	str	r3, [r7, #24]
 800510c:	e030      	b.n	8005170 <HAL_UART_Transmit+0x100>
 800510e:	697a      	ldr	r2, [r7, #20]
 8005110:	68f8      	ldr	r0, [r7, #12]
 8005112:	683b      	ldr	r3, [r7, #0]
 8005114:	9300      	str	r3, [sp, #0]
 8005116:	0013      	movs	r3, r2
 8005118:	2200      	movs	r2, #0
 800511a:	2180      	movs	r1, #128	; 0x80
 800511c:	f000 fae4 	bl	80056e8 <UART_WaitOnFlagUntilTimeout>
 8005120:	1e03      	subs	r3, r0, #0
 8005122:	d004      	beq.n	800512e <HAL_UART_Transmit+0xbe>
 8005124:	68fb      	ldr	r3, [r7, #12]
 8005126:	2220      	movs	r2, #32
 8005128:	67da      	str	r2, [r3, #124]	; 0x7c
 800512a:	2303      	movs	r3, #3
 800512c:	e03c      	b.n	80051a8 <HAL_UART_Transmit+0x138>
 800512e:	69fb      	ldr	r3, [r7, #28]
 8005130:	2b00      	cmp	r3, #0
 8005132:	d10b      	bne.n	800514c <HAL_UART_Transmit+0xdc>
 8005134:	69bb      	ldr	r3, [r7, #24]
 8005136:	881a      	ldrh	r2, [r3, #0]
 8005138:	68fb      	ldr	r3, [r7, #12]
 800513a:	681b      	ldr	r3, [r3, #0]
 800513c:	05d2      	lsls	r2, r2, #23
 800513e:	0dd2      	lsrs	r2, r2, #23
 8005140:	b292      	uxth	r2, r2
 8005142:	851a      	strh	r2, [r3, #40]	; 0x28
 8005144:	69bb      	ldr	r3, [r7, #24]
 8005146:	3302      	adds	r3, #2
 8005148:	61bb      	str	r3, [r7, #24]
 800514a:	e008      	b.n	800515e <HAL_UART_Transmit+0xee>
 800514c:	69fb      	ldr	r3, [r7, #28]
 800514e:	781a      	ldrb	r2, [r3, #0]
 8005150:	68fb      	ldr	r3, [r7, #12]
 8005152:	681b      	ldr	r3, [r3, #0]
 8005154:	b292      	uxth	r2, r2
 8005156:	851a      	strh	r2, [r3, #40]	; 0x28
 8005158:	69fb      	ldr	r3, [r7, #28]
 800515a:	3301      	adds	r3, #1
 800515c:	61fb      	str	r3, [r7, #28]
 800515e:	68fb      	ldr	r3, [r7, #12]
 8005160:	2252      	movs	r2, #82	; 0x52
 8005162:	5a9b      	ldrh	r3, [r3, r2]
 8005164:	b29b      	uxth	r3, r3
 8005166:	3b01      	subs	r3, #1
 8005168:	b299      	uxth	r1, r3
 800516a:	68fb      	ldr	r3, [r7, #12]
 800516c:	2252      	movs	r2, #82	; 0x52
 800516e:	5299      	strh	r1, [r3, r2]
 8005170:	68fb      	ldr	r3, [r7, #12]
 8005172:	2252      	movs	r2, #82	; 0x52
 8005174:	5a9b      	ldrh	r3, [r3, r2]
 8005176:	b29b      	uxth	r3, r3
 8005178:	2b00      	cmp	r3, #0
 800517a:	d1c8      	bne.n	800510e <HAL_UART_Transmit+0x9e>
 800517c:	697a      	ldr	r2, [r7, #20]
 800517e:	68f8      	ldr	r0, [r7, #12]
 8005180:	683b      	ldr	r3, [r7, #0]
 8005182:	9300      	str	r3, [sp, #0]
 8005184:	0013      	movs	r3, r2
 8005186:	2200      	movs	r2, #0
 8005188:	2140      	movs	r1, #64	; 0x40
 800518a:	f000 faad 	bl	80056e8 <UART_WaitOnFlagUntilTimeout>
 800518e:	1e03      	subs	r3, r0, #0
 8005190:	d004      	beq.n	800519c <HAL_UART_Transmit+0x12c>
 8005192:	68fb      	ldr	r3, [r7, #12]
 8005194:	2220      	movs	r2, #32
 8005196:	67da      	str	r2, [r3, #124]	; 0x7c
 8005198:	2303      	movs	r3, #3
 800519a:	e005      	b.n	80051a8 <HAL_UART_Transmit+0x138>
 800519c:	68fb      	ldr	r3, [r7, #12]
 800519e:	2220      	movs	r2, #32
 80051a0:	67da      	str	r2, [r3, #124]	; 0x7c
 80051a2:	2300      	movs	r3, #0
 80051a4:	e000      	b.n	80051a8 <HAL_UART_Transmit+0x138>
 80051a6:	2302      	movs	r3, #2
 80051a8:	0018      	movs	r0, r3
 80051aa:	46bd      	mov	sp, r7
 80051ac:	b008      	add	sp, #32
 80051ae:	bd80      	pop	{r7, pc}

080051b0 <UART_SetConfig>:
 80051b0:	b580      	push	{r7, lr}
 80051b2:	b088      	sub	sp, #32
 80051b4:	af00      	add	r7, sp, #0
 80051b6:	6078      	str	r0, [r7, #4]
 80051b8:	231e      	movs	r3, #30
 80051ba:	18fb      	adds	r3, r7, r3
 80051bc:	2200      	movs	r2, #0
 80051be:	701a      	strb	r2, [r3, #0]
 80051c0:	687b      	ldr	r3, [r7, #4]
 80051c2:	689a      	ldr	r2, [r3, #8]
 80051c4:	687b      	ldr	r3, [r7, #4]
 80051c6:	691b      	ldr	r3, [r3, #16]
 80051c8:	431a      	orrs	r2, r3
 80051ca:	687b      	ldr	r3, [r7, #4]
 80051cc:	695b      	ldr	r3, [r3, #20]
 80051ce:	431a      	orrs	r2, r3
 80051d0:	687b      	ldr	r3, [r7, #4]
 80051d2:	69db      	ldr	r3, [r3, #28]
 80051d4:	4313      	orrs	r3, r2
 80051d6:	617b      	str	r3, [r7, #20]
 80051d8:	687b      	ldr	r3, [r7, #4]
 80051da:	681b      	ldr	r3, [r3, #0]
 80051dc:	681b      	ldr	r3, [r3, #0]
 80051de:	4a8d      	ldr	r2, [pc, #564]	; (8005414 <UART_SetConfig+0x264>)
 80051e0:	4013      	ands	r3, r2
 80051e2:	0019      	movs	r1, r3
 80051e4:	687b      	ldr	r3, [r7, #4]
 80051e6:	681b      	ldr	r3, [r3, #0]
 80051e8:	697a      	ldr	r2, [r7, #20]
 80051ea:	430a      	orrs	r2, r1
 80051ec:	601a      	str	r2, [r3, #0]
 80051ee:	687b      	ldr	r3, [r7, #4]
 80051f0:	681b      	ldr	r3, [r3, #0]
 80051f2:	685b      	ldr	r3, [r3, #4]
 80051f4:	4a88      	ldr	r2, [pc, #544]	; (8005418 <UART_SetConfig+0x268>)
 80051f6:	4013      	ands	r3, r2
 80051f8:	0019      	movs	r1, r3
 80051fa:	687b      	ldr	r3, [r7, #4]
 80051fc:	68da      	ldr	r2, [r3, #12]
 80051fe:	687b      	ldr	r3, [r7, #4]
 8005200:	681b      	ldr	r3, [r3, #0]
 8005202:	430a      	orrs	r2, r1
 8005204:	605a      	str	r2, [r3, #4]
 8005206:	687b      	ldr	r3, [r7, #4]
 8005208:	699b      	ldr	r3, [r3, #24]
 800520a:	617b      	str	r3, [r7, #20]
 800520c:	687b      	ldr	r3, [r7, #4]
 800520e:	6a1b      	ldr	r3, [r3, #32]
 8005210:	697a      	ldr	r2, [r7, #20]
 8005212:	4313      	orrs	r3, r2
 8005214:	617b      	str	r3, [r7, #20]
 8005216:	687b      	ldr	r3, [r7, #4]
 8005218:	681b      	ldr	r3, [r3, #0]
 800521a:	689b      	ldr	r3, [r3, #8]
 800521c:	4a7f      	ldr	r2, [pc, #508]	; (800541c <UART_SetConfig+0x26c>)
 800521e:	4013      	ands	r3, r2
 8005220:	0019      	movs	r1, r3
 8005222:	687b      	ldr	r3, [r7, #4]
 8005224:	681b      	ldr	r3, [r3, #0]
 8005226:	697a      	ldr	r2, [r7, #20]
 8005228:	430a      	orrs	r2, r1
 800522a:	609a      	str	r2, [r3, #8]
 800522c:	687b      	ldr	r3, [r7, #4]
 800522e:	681b      	ldr	r3, [r3, #0]
 8005230:	4a7b      	ldr	r2, [pc, #492]	; (8005420 <UART_SetConfig+0x270>)
 8005232:	4293      	cmp	r3, r2
 8005234:	d127      	bne.n	8005286 <UART_SetConfig+0xd6>
 8005236:	4b7b      	ldr	r3, [pc, #492]	; (8005424 <UART_SetConfig+0x274>)
 8005238:	6b1b      	ldr	r3, [r3, #48]	; 0x30
 800523a:	2203      	movs	r2, #3
 800523c:	4013      	ands	r3, r2
 800523e:	2b03      	cmp	r3, #3
 8005240:	d00d      	beq.n	800525e <UART_SetConfig+0xae>
 8005242:	d81b      	bhi.n	800527c <UART_SetConfig+0xcc>
 8005244:	2b02      	cmp	r3, #2
 8005246:	d014      	beq.n	8005272 <UART_SetConfig+0xc2>
 8005248:	d818      	bhi.n	800527c <UART_SetConfig+0xcc>
 800524a:	2b00      	cmp	r3, #0
 800524c:	d002      	beq.n	8005254 <UART_SetConfig+0xa4>
 800524e:	2b01      	cmp	r3, #1
 8005250:	d00a      	beq.n	8005268 <UART_SetConfig+0xb8>
 8005252:	e013      	b.n	800527c <UART_SetConfig+0xcc>
 8005254:	231f      	movs	r3, #31
 8005256:	18fb      	adds	r3, r7, r3
 8005258:	2200      	movs	r2, #0
 800525a:	701a      	strb	r2, [r3, #0]
 800525c:	e021      	b.n	80052a2 <UART_SetConfig+0xf2>
 800525e:	231f      	movs	r3, #31
 8005260:	18fb      	adds	r3, r7, r3
 8005262:	2202      	movs	r2, #2
 8005264:	701a      	strb	r2, [r3, #0]
 8005266:	e01c      	b.n	80052a2 <UART_SetConfig+0xf2>
 8005268:	231f      	movs	r3, #31
 800526a:	18fb      	adds	r3, r7, r3
 800526c:	2204      	movs	r2, #4
 800526e:	701a      	strb	r2, [r3, #0]
 8005270:	e017      	b.n	80052a2 <UART_SetConfig+0xf2>
 8005272:	231f      	movs	r3, #31
 8005274:	18fb      	adds	r3, r7, r3
 8005276:	2208      	movs	r2, #8
 8005278:	701a      	strb	r2, [r3, #0]
 800527a:	e012      	b.n	80052a2 <UART_SetConfig+0xf2>
 800527c:	231f      	movs	r3, #31
 800527e:	18fb      	adds	r3, r7, r3
 8005280:	2210      	movs	r2, #16
 8005282:	701a      	strb	r2, [r3, #0]
 8005284:	e00d      	b.n	80052a2 <UART_SetConfig+0xf2>
 8005286:	687b      	ldr	r3, [r7, #4]
 8005288:	681b      	ldr	r3, [r3, #0]
 800528a:	4a67      	ldr	r2, [pc, #412]	; (8005428 <UART_SetConfig+0x278>)
 800528c:	4293      	cmp	r3, r2
 800528e:	d104      	bne.n	800529a <UART_SetConfig+0xea>
 8005290:	231f      	movs	r3, #31
 8005292:	18fb      	adds	r3, r7, r3
 8005294:	2200      	movs	r2, #0
 8005296:	701a      	strb	r2, [r3, #0]
 8005298:	e003      	b.n	80052a2 <UART_SetConfig+0xf2>
 800529a:	231f      	movs	r3, #31
 800529c:	18fb      	adds	r3, r7, r3
 800529e:	2210      	movs	r2, #16
 80052a0:	701a      	strb	r2, [r3, #0]
 80052a2:	687b      	ldr	r3, [r7, #4]
 80052a4:	69da      	ldr	r2, [r3, #28]
 80052a6:	2380      	movs	r3, #128	; 0x80
 80052a8:	021b      	lsls	r3, r3, #8
 80052aa:	429a      	cmp	r2, r3
 80052ac:	d15c      	bne.n	8005368 <UART_SetConfig+0x1b8>
 80052ae:	231f      	movs	r3, #31
 80052b0:	18fb      	adds	r3, r7, r3
 80052b2:	781b      	ldrb	r3, [r3, #0]
 80052b4:	2b08      	cmp	r3, #8
 80052b6:	d015      	beq.n	80052e4 <UART_SetConfig+0x134>
 80052b8:	dc18      	bgt.n	80052ec <UART_SetConfig+0x13c>
 80052ba:	2b04      	cmp	r3, #4
 80052bc:	d00d      	beq.n	80052da <UART_SetConfig+0x12a>
 80052be:	dc15      	bgt.n	80052ec <UART_SetConfig+0x13c>
 80052c0:	2b00      	cmp	r3, #0
 80052c2:	d002      	beq.n	80052ca <UART_SetConfig+0x11a>
 80052c4:	2b02      	cmp	r3, #2
 80052c6:	d005      	beq.n	80052d4 <UART_SetConfig+0x124>
 80052c8:	e010      	b.n	80052ec <UART_SetConfig+0x13c>
 80052ca:	f7ff fb67 	bl	800499c <HAL_RCC_GetPCLK1Freq>
 80052ce:	0003      	movs	r3, r0
 80052d0:	61bb      	str	r3, [r7, #24]
 80052d2:	e012      	b.n	80052fa <UART_SetConfig+0x14a>
 80052d4:	4b55      	ldr	r3, [pc, #340]	; (800542c <UART_SetConfig+0x27c>)
 80052d6:	61bb      	str	r3, [r7, #24]
 80052d8:	e00f      	b.n	80052fa <UART_SetConfig+0x14a>
 80052da:	f7ff faff 	bl	80048dc <HAL_RCC_GetSysClockFreq>
 80052de:	0003      	movs	r3, r0
 80052e0:	61bb      	str	r3, [r7, #24]
 80052e2:	e00a      	b.n	80052fa <UART_SetConfig+0x14a>
 80052e4:	2380      	movs	r3, #128	; 0x80
 80052e6:	021b      	lsls	r3, r3, #8
 80052e8:	61bb      	str	r3, [r7, #24]
 80052ea:	e006      	b.n	80052fa <UART_SetConfig+0x14a>
 80052ec:	2300      	movs	r3, #0
 80052ee:	61bb      	str	r3, [r7, #24]
 80052f0:	231e      	movs	r3, #30
 80052f2:	18fb      	adds	r3, r7, r3
 80052f4:	2201      	movs	r2, #1
 80052f6:	701a      	strb	r2, [r3, #0]
 80052f8:	46c0      	nop			; (mov r8, r8)
 80052fa:	69bb      	ldr	r3, [r7, #24]
 80052fc:	2b00      	cmp	r3, #0
 80052fe:	d100      	bne.n	8005302 <UART_SetConfig+0x152>
 8005300:	e07a      	b.n	80053f8 <UART_SetConfig+0x248>
 8005302:	69bb      	ldr	r3, [r7, #24]
 8005304:	005a      	lsls	r2, r3, #1
 8005306:	687b      	ldr	r3, [r7, #4]
 8005308:	685b      	ldr	r3, [r3, #4]
 800530a:	085b      	lsrs	r3, r3, #1
 800530c:	18d2      	adds	r2, r2, r3
 800530e:	687b      	ldr	r3, [r7, #4]
 8005310:	685b      	ldr	r3, [r3, #4]
 8005312:	0019      	movs	r1, r3
 8005314:	0010      	movs	r0, r2
 8005316:	f7fa ff01 	bl	800011c <__udivsi3>
 800531a:	0003      	movs	r3, r0
 800531c:	613b      	str	r3, [r7, #16]
 800531e:	693b      	ldr	r3, [r7, #16]
 8005320:	2b0f      	cmp	r3, #15
 8005322:	d91c      	bls.n	800535e <UART_SetConfig+0x1ae>
 8005324:	693a      	ldr	r2, [r7, #16]
 8005326:	2380      	movs	r3, #128	; 0x80
 8005328:	025b      	lsls	r3, r3, #9
 800532a:	429a      	cmp	r2, r3
 800532c:	d217      	bcs.n	800535e <UART_SetConfig+0x1ae>
 800532e:	693b      	ldr	r3, [r7, #16]
 8005330:	b29a      	uxth	r2, r3
 8005332:	200e      	movs	r0, #14
 8005334:	183b      	adds	r3, r7, r0
 8005336:	210f      	movs	r1, #15
 8005338:	438a      	bics	r2, r1
 800533a:	801a      	strh	r2, [r3, #0]
 800533c:	693b      	ldr	r3, [r7, #16]
 800533e:	085b      	lsrs	r3, r3, #1
 8005340:	b29b      	uxth	r3, r3
 8005342:	2207      	movs	r2, #7
 8005344:	4013      	ands	r3, r2
 8005346:	b299      	uxth	r1, r3
 8005348:	183b      	adds	r3, r7, r0
 800534a:	183a      	adds	r2, r7, r0
 800534c:	8812      	ldrh	r2, [r2, #0]
 800534e:	430a      	orrs	r2, r1
 8005350:	801a      	strh	r2, [r3, #0]
 8005352:	687b      	ldr	r3, [r7, #4]
 8005354:	681b      	ldr	r3, [r3, #0]
 8005356:	183a      	adds	r2, r7, r0
 8005358:	8812      	ldrh	r2, [r2, #0]
 800535a:	60da      	str	r2, [r3, #12]
 800535c:	e04c      	b.n	80053f8 <UART_SetConfig+0x248>
 800535e:	231e      	movs	r3, #30
 8005360:	18fb      	adds	r3, r7, r3
 8005362:	2201      	movs	r2, #1
 8005364:	701a      	strb	r2, [r3, #0]
 8005366:	e047      	b.n	80053f8 <UART_SetConfig+0x248>
 8005368:	231f      	movs	r3, #31
 800536a:	18fb      	adds	r3, r7, r3
 800536c:	781b      	ldrb	r3, [r3, #0]
 800536e:	2b08      	cmp	r3, #8
 8005370:	d015      	beq.n	800539e <UART_SetConfig+0x1ee>
 8005372:	dc18      	bgt.n	80053a6 <UART_SetConfig+0x1f6>
 8005374:	2b04      	cmp	r3, #4
 8005376:	d00d      	beq.n	8005394 <UART_SetConfig+0x1e4>
 8005378:	dc15      	bgt.n	80053a6 <UART_SetConfig+0x1f6>
 800537a:	2b00      	cmp	r3, #0
 800537c:	d002      	beq.n	8005384 <UART_SetConfig+0x1d4>
 800537e:	2b02      	cmp	r3, #2
 8005380:	d005      	beq.n	800538e <UART_SetConfig+0x1de>
 8005382:	e010      	b.n	80053a6 <UART_SetConfig+0x1f6>
 8005384:	f7ff fb0a 	bl	800499c <HAL_RCC_GetPCLK1Freq>
 8005388:	0003      	movs	r3, r0
 800538a:	61bb      	str	r3, [r7, #24]
 800538c:	e012      	b.n	80053b4 <UART_SetConfig+0x204>
 800538e:	4b27      	ldr	r3, [pc, #156]	; (800542c <UART_SetConfig+0x27c>)
 8005390:	61bb      	str	r3, [r7, #24]
 8005392:	e00f      	b.n	80053b4 <UART_SetConfig+0x204>
 8005394:	f7ff faa2 	bl	80048dc <HAL_RCC_GetSysClockFreq>
 8005398:	0003      	movs	r3, r0
 800539a:	61bb      	str	r3, [r7, #24]
 800539c:	e00a      	b.n	80053b4 <UART_SetConfig+0x204>
 800539e:	2380      	movs	r3, #128	; 0x80
 80053a0:	021b      	lsls	r3, r3, #8
 80053a2:	61bb      	str	r3, [r7, #24]
 80053a4:	e006      	b.n	80053b4 <UART_SetConfig+0x204>
 80053a6:	2300      	movs	r3, #0
 80053a8:	61bb      	str	r3, [r7, #24]
 80053aa:	231e      	movs	r3, #30
 80053ac:	18fb      	adds	r3, r7, r3
 80053ae:	2201      	movs	r2, #1
 80053b0:	701a      	strb	r2, [r3, #0]
 80053b2:	46c0      	nop			; (mov r8, r8)
 80053b4:	69bb      	ldr	r3, [r7, #24]
 80053b6:	2b00      	cmp	r3, #0
 80053b8:	d01e      	beq.n	80053f8 <UART_SetConfig+0x248>
 80053ba:	687b      	ldr	r3, [r7, #4]
 80053bc:	685b      	ldr	r3, [r3, #4]
 80053be:	085a      	lsrs	r2, r3, #1
 80053c0:	69bb      	ldr	r3, [r7, #24]
 80053c2:	18d2      	adds	r2, r2, r3
 80053c4:	687b      	ldr	r3, [r7, #4]
 80053c6:	685b      	ldr	r3, [r3, #4]
 80053c8:	0019      	movs	r1, r3
 80053ca:	0010      	movs	r0, r2
 80053cc:	f7fa fea6 	bl	800011c <__udivsi3>
 80053d0:	0003      	movs	r3, r0
 80053d2:	613b      	str	r3, [r7, #16]
 80053d4:	693b      	ldr	r3, [r7, #16]
 80053d6:	2b0f      	cmp	r3, #15
 80053d8:	d90a      	bls.n	80053f0 <UART_SetConfig+0x240>
 80053da:	693a      	ldr	r2, [r7, #16]
 80053dc:	2380      	movs	r3, #128	; 0x80
 80053de:	025b      	lsls	r3, r3, #9
 80053e0:	429a      	cmp	r2, r3
 80053e2:	d205      	bcs.n	80053f0 <UART_SetConfig+0x240>
 80053e4:	693b      	ldr	r3, [r7, #16]
 80053e6:	b29a      	uxth	r2, r3
 80053e8:	687b      	ldr	r3, [r7, #4]
 80053ea:	681b      	ldr	r3, [r3, #0]
 80053ec:	60da      	str	r2, [r3, #12]
 80053ee:	e003      	b.n	80053f8 <UART_SetConfig+0x248>
 80053f0:	231e      	movs	r3, #30
 80053f2:	18fb      	adds	r3, r7, r3
 80053f4:	2201      	movs	r2, #1
 80053f6:	701a      	strb	r2, [r3, #0]
 80053f8:	687b      	ldr	r3, [r7, #4]
 80053fa:	2200      	movs	r2, #0
 80053fc:	669a      	str	r2, [r3, #104]	; 0x68
 80053fe:	687b      	ldr	r3, [r7, #4]
 8005400:	2200      	movs	r2, #0
 8005402:	66da      	str	r2, [r3, #108]	; 0x6c
 8005404:	231e      	movs	r3, #30
 8005406:	18fb      	adds	r3, r7, r3
 8005408:	781b      	ldrb	r3, [r3, #0]
 800540a:	0018      	movs	r0, r3
 800540c:	46bd      	mov	sp, r7
 800540e:	b008      	add	sp, #32
 8005410:	bd80      	pop	{r7, pc}
 8005412:	46c0      	nop			; (mov r8, r8)
 8005414:	ffff69f3 	.word	0xffff69f3
 8005418:	ffffcfff 	.word	0xffffcfff
 800541c:	fffff4ff 	.word	0xfffff4ff
 8005420:	40013800 	.word	0x40013800
 8005424:	40021000 	.word	0x40021000
 8005428:	40004400 	.word	0x40004400
 800542c:	007a1200 	.word	0x007a1200

08005430 <UART_AdvFeatureConfig>:
 8005430:	b580      	push	{r7, lr}
 8005432:	b082      	sub	sp, #8
 8005434:	af00      	add	r7, sp, #0
 8005436:	6078      	str	r0, [r7, #4]
 8005438:	687b      	ldr	r3, [r7, #4]
 800543a:	6a5b      	ldr	r3, [r3, #36]	; 0x24
 800543c:	2201      	movs	r2, #1
 800543e:	4013      	ands	r3, r2
 8005440:	d00b      	beq.n	800545a <UART_AdvFeatureConfig+0x2a>
 8005442:	687b      	ldr	r3, [r7, #4]
 8005444:	681b      	ldr	r3, [r3, #0]
 8005446:	685b      	ldr	r3, [r3, #4]
 8005448:	4a4a      	ldr	r2, [pc, #296]	; (8005574 <UART_AdvFeatureConfig+0x144>)
 800544a:	4013      	ands	r3, r2
 800544c:	0019      	movs	r1, r3
 800544e:	687b      	ldr	r3, [r7, #4]
 8005450:	6a9a      	ldr	r2, [r3, #40]	; 0x28
 8005452:	687b      	ldr	r3, [r7, #4]
 8005454:	681b      	ldr	r3, [r3, #0]
 8005456:	430a      	orrs	r2, r1
 8005458:	605a      	str	r2, [r3, #4]
 800545a:	687b      	ldr	r3, [r7, #4]
 800545c:	6a5b      	ldr	r3, [r3, #36]	; 0x24
 800545e:	2202      	movs	r2, #2
 8005460:	4013      	ands	r3, r2
 8005462:	d00b      	beq.n	800547c <UART_AdvFeatureConfig+0x4c>
 8005464:	687b      	ldr	r3, [r7, #4]
 8005466:	681b      	ldr	r3, [r3, #0]
 8005468:	685b      	ldr	r3, [r3, #4]
 800546a:	4a43      	ldr	r2, [pc, #268]	; (8005578 <UART_AdvFeatureConfig+0x148>)
 800546c:	4013      	ands	r3, r2
 800546e:	0019      	movs	r1, r3
 8005470:	687b      	ldr	r3, [r7, #4]
 8005472:	6ada      	ldr	r2, [r3, #44]	; 0x2c
 8005474:	687b      	ldr	r3, [r7, #4]
 8005476:	681b      	ldr	r3, [r3, #0]
 8005478:	430a      	orrs	r2, r1
 800547a:	605a      	str	r2, [r3, #4]
 800547c:	687b      	ldr	r3, [r7, #4]
 800547e:	6a5b      	ldr	r3, [r3, #36]	; 0x24
 8005480:	2204      	movs	r2, #4
 8005482:	4013      	ands	r3, r2
 8005484:	d00b      	beq.n	800549e <UART_AdvFeatureConfig+0x6e>
 8005486:	687b      	ldr	r3, [r7, #4]
 8005488:	681b      	ldr	r3, [r3, #0]
 800548a:	685b      	ldr	r3, [r3, #4]
 800548c:	4a3b      	ldr	r2, [pc, #236]	; (800557c <UART_AdvFeatureConfig+0x14c>)
 800548e:	4013      	ands	r3, r2
 8005490:	0019      	movs	r1, r3
 8005492:	687b      	ldr	r3, [r7, #4]
 8005494:	6b1a      	ldr	r2, [r3, #48]	; 0x30
 8005496:	687b      	ldr	r3, [r7, #4]
 8005498:	681b      	ldr	r3, [r3, #0]
 800549a:	430a      	orrs	r2, r1
 800549c:	605a      	str	r2, [r3, #4]
 800549e:	687b      	ldr	r3, [r7, #4]
 80054a0:	6a5b      	ldr	r3, [r3, #36]	; 0x24
 80054a2:	2208      	movs	r2, #8
 80054a4:	4013      	ands	r3, r2
 80054a6:	d00b      	beq.n	80054c0 <UART_AdvFeatureConfig+0x90>
 80054a8:	687b      	ldr	r3, [r7, #4]
 80054aa:	681b      	ldr	r3, [r3, #0]
 80054ac:	685b      	ldr	r3, [r3, #4]
 80054ae:	4a34      	ldr	r2, [pc, #208]	; (8005580 <UART_AdvFeatureConfig+0x150>)
 80054b0:	4013      	ands	r3, r2
 80054b2:	0019      	movs	r1, r3
 80054b4:	687b      	ldr	r3, [r7, #4]
 80054b6:	6b5a      	ldr	r2, [r3, #52]	; 0x34
 80054b8:	687b      	ldr	r3, [r7, #4]
 80054ba:	681b      	ldr	r3, [r3, #0]
 80054bc:	430a      	orrs	r2, r1
 80054be:	605a      	str	r2, [r3, #4]
 80054c0:	687b      	ldr	r3, [r7, #4]
 80054c2:	6a5b      	ldr	r3, [r3, #36]	; 0x24
 80054c4:	2210      	movs	r2, #16
 80054c6:	4013      	ands	r3, r2
 80054c8:	d00b      	beq.n	80054e2 <UART_AdvFeatureConfig+0xb2>
 80054ca:	687b      	ldr	r3, [r7, #4]
 80054cc:	681b      	ldr	r3, [r3, #0]
 80054ce:	689b      	ldr	r3, [r3, #8]
 80054d0:	4a2c      	ldr	r2, [pc, #176]	; (8005584 <UART_AdvFeatureConfig+0x154>)
 80054d2:	4013      	ands	r3, r2
 80054d4:	0019      	movs	r1, r3
 80054d6:	687b      	ldr	r3, [r7, #4]
 80054d8:	6b9a      	ldr	r2, [r3, #56]	; 0x38
 80054da:	687b      	ldr	r3, [r7, #4]
 80054dc:	681b      	ldr	r3, [r3, #0]
 80054de:	430a      	orrs	r2, r1
 80054e0:	609a      	str	r2, [r3, #8]
 80054e2:	687b      	ldr	r3, [r7, #4]
 80054e4:	6a5b      	ldr	r3, [r3, #36]	; 0x24
 80054e6:	2220      	movs	r2, #32
 80054e8:	4013      	ands	r3, r2
 80054ea:	d00b      	beq.n	8005504 <UART_AdvFeatureConfig+0xd4>
 80054ec:	687b      	ldr	r3, [r7, #4]
 80054ee:	681b      	ldr	r3, [r3, #0]
 80054f0:	689b      	ldr	r3, [r3, #8]
 80054f2:	4a25      	ldr	r2, [pc, #148]	; (8005588 <UART_AdvFeatureConfig+0x158>)
 80054f4:	4013      	ands	r3, r2
 80054f6:	0019      	movs	r1, r3
 80054f8:	687b      	ldr	r3, [r7, #4]
 80054fa:	6bda      	ldr	r2, [r3, #60]	; 0x3c
 80054fc:	687b      	ldr	r3, [r7, #4]
 80054fe:	681b      	ldr	r3, [r3, #0]
 8005500:	430a      	orrs	r2, r1
 8005502:	609a      	str	r2, [r3, #8]
 8005504:	687b      	ldr	r3, [r7, #4]
 8005506:	6a5b      	ldr	r3, [r3, #36]	; 0x24
 8005508:	2240      	movs	r2, #64	; 0x40
 800550a:	4013      	ands	r3, r2
 800550c:	d01d      	beq.n	800554a <UART_AdvFeatureConfig+0x11a>
 800550e:	687b      	ldr	r3, [r7, #4]
 8005510:	681b      	ldr	r3, [r3, #0]
 8005512:	685b      	ldr	r3, [r3, #4]
 8005514:	4a1d      	ldr	r2, [pc, #116]	; (800558c <UART_AdvFeatureConfig+0x15c>)
 8005516:	4013      	ands	r3, r2
 8005518:	0019      	movs	r1, r3
 800551a:	687b      	ldr	r3, [r7, #4]
 800551c:	6c1a      	ldr	r2, [r3, #64]	; 0x40
 800551e:	687b      	ldr	r3, [r7, #4]
 8005520:	681b      	ldr	r3, [r3, #0]
 8005522:	430a      	orrs	r2, r1
 8005524:	605a      	str	r2, [r3, #4]
 8005526:	687b      	ldr	r3, [r7, #4]
 8005528:	6c1a      	ldr	r2, [r3, #64]	; 0x40
 800552a:	2380      	movs	r3, #128	; 0x80
 800552c:	035b      	lsls	r3, r3, #13
 800552e:	429a      	cmp	r2, r3
 8005530:	d10b      	bne.n	800554a <UART_AdvFeatureConfig+0x11a>
 8005532:	687b      	ldr	r3, [r7, #4]
 8005534:	681b      	ldr	r3, [r3, #0]
 8005536:	685b      	ldr	r3, [r3, #4]
 8005538:	4a15      	ldr	r2, [pc, #84]	; (8005590 <UART_AdvFeatureConfig+0x160>)
 800553a:	4013      	ands	r3, r2
 800553c:	0019      	movs	r1, r3
 800553e:	687b      	ldr	r3, [r7, #4]
 8005540:	6c5a      	ldr	r2, [r3, #68]	; 0x44
 8005542:	687b      	ldr	r3, [r7, #4]
 8005544:	681b      	ldr	r3, [r3, #0]
 8005546:	430a      	orrs	r2, r1
 8005548:	605a      	str	r2, [r3, #4]
 800554a:	687b      	ldr	r3, [r7, #4]
 800554c:	6a5b      	ldr	r3, [r3, #36]	; 0x24
 800554e:	2280      	movs	r2, #128	; 0x80
 8005550:	4013      	ands	r3, r2
 8005552:	d00b      	beq.n	800556c <UART_AdvFeatureConfig+0x13c>
 8005554:	687b      	ldr	r3, [r7, #4]
 8005556:	681b      	ldr	r3, [r3, #0]
 8005558:	685b      	ldr	r3, [r3, #4]
 800555a:	4a0e      	ldr	r2, [pc, #56]	; (8005594 <UART_AdvFeatureConfig+0x164>)
 800555c:	4013      	ands	r3, r2
 800555e:	0019      	movs	r1, r3
 8005560:	687b      	ldr	r3, [r7, #4]
 8005562:	6c9a      	ldr	r2, [r3, #72]	; 0x48
 8005564:	687b      	ldr	r3, [r7, #4]
 8005566:	681b      	ldr	r3, [r3, #0]
 8005568:	430a      	orrs	r2, r1
 800556a:	605a      	str	r2, [r3, #4]
 800556c:	46c0      	nop			; (mov r8, r8)
 800556e:	46bd      	mov	sp, r7
 8005570:	b002      	add	sp, #8
 8005572:	bd80      	pop	{r7, pc}
 8005574:	fffdffff 	.word	0xfffdffff
 8005578:	fffeffff 	.word	0xfffeffff
 800557c:	fffbffff 	.word	0xfffbffff
 8005580:	ffff7fff 	.word	0xffff7fff
 8005584:	ffffefff 	.word	0xffffefff
 8005588:	ffffdfff 	.word	0xffffdfff
 800558c:	ffefffff 	.word	0xffefffff
 8005590:	ff9fffff 	.word	0xff9fffff
 8005594:	fff7ffff 	.word	0xfff7ffff

08005598 <UART_CheckIdleState>:
 8005598:	b580      	push	{r7, lr}
 800559a:	b092      	sub	sp, #72	; 0x48
 800559c:	af02      	add	r7, sp, #8
 800559e:	6078      	str	r0, [r7, #4]
 80055a0:	687b      	ldr	r3, [r7, #4]
 80055a2:	2284      	movs	r2, #132	; 0x84
 80055a4:	2100      	movs	r1, #0
 80055a6:	5099      	str	r1, [r3, r2]
 80055a8:	f7fd fc54 	bl	8002e54 <HAL_GetTick>
 80055ac:	0003      	movs	r3, r0
 80055ae:	63fb      	str	r3, [r7, #60]	; 0x3c
 80055b0:	687b      	ldr	r3, [r7, #4]
 80055b2:	681b      	ldr	r3, [r3, #0]
 80055b4:	681b      	ldr	r3, [r3, #0]
 80055b6:	2208      	movs	r2, #8
 80055b8:	4013      	ands	r3, r2
 80055ba:	2b08      	cmp	r3, #8
 80055bc:	d12c      	bne.n	8005618 <UART_CheckIdleState+0x80>
 80055be:	6bfb      	ldr	r3, [r7, #60]	; 0x3c
 80055c0:	2280      	movs	r2, #128	; 0x80
 80055c2:	0391      	lsls	r1, r2, #14
 80055c4:	6878      	ldr	r0, [r7, #4]
 80055c6:	4a46      	ldr	r2, [pc, #280]	; (80056e0 <UART_CheckIdleState+0x148>)
 80055c8:	9200      	str	r2, [sp, #0]
 80055ca:	2200      	movs	r2, #0
 80055cc:	f000 f88c 	bl	80056e8 <UART_WaitOnFlagUntilTimeout>
 80055d0:	1e03      	subs	r3, r0, #0
 80055d2:	d021      	beq.n	8005618 <UART_CheckIdleState+0x80>
 80055d4:	f3ef 8310 	mrs	r3, PRIMASK
 80055d8:	627b      	str	r3, [r7, #36]	; 0x24
 80055da:	6a7b      	ldr	r3, [r7, #36]	; 0x24
 80055dc:	63bb      	str	r3, [r7, #56]	; 0x38
 80055de:	2301      	movs	r3, #1
 80055e0:	62bb      	str	r3, [r7, #40]	; 0x28
 80055e2:	6abb      	ldr	r3, [r7, #40]	; 0x28
 80055e4:	f383 8810 	msr	PRIMASK, r3
 80055e8:	46c0      	nop			; (mov r8, r8)
 80055ea:	687b      	ldr	r3, [r7, #4]
 80055ec:	681b      	ldr	r3, [r3, #0]
 80055ee:	681a      	ldr	r2, [r3, #0]
 80055f0:	687b      	ldr	r3, [r7, #4]
 80055f2:	681b      	ldr	r3, [r3, #0]
 80055f4:	2180      	movs	r1, #128	; 0x80
 80055f6:	438a      	bics	r2, r1
 80055f8:	601a      	str	r2, [r3, #0]
 80055fa:	6bbb      	ldr	r3, [r7, #56]	; 0x38
 80055fc:	62fb      	str	r3, [r7, #44]	; 0x2c
 80055fe:	6afb      	ldr	r3, [r7, #44]	; 0x2c
 8005600:	f383 8810 	msr	PRIMASK, r3
 8005604:	46c0      	nop			; (mov r8, r8)
 8005606:	687b      	ldr	r3, [r7, #4]
 8005608:	2220      	movs	r2, #32
 800560a:	67da      	str	r2, [r3, #124]	; 0x7c
 800560c:	687b      	ldr	r3, [r7, #4]
 800560e:	2278      	movs	r2, #120	; 0x78
 8005610:	2100      	movs	r1, #0
 8005612:	5499      	strb	r1, [r3, r2]
 8005614:	2303      	movs	r3, #3
 8005616:	e05f      	b.n	80056d8 <UART_CheckIdleState+0x140>
 8005618:	687b      	ldr	r3, [r7, #4]
 800561a:	681b      	ldr	r3, [r3, #0]
 800561c:	681b      	ldr	r3, [r3, #0]
 800561e:	2204      	movs	r2, #4
 8005620:	4013      	ands	r3, r2
 8005622:	2b04      	cmp	r3, #4
 8005624:	d146      	bne.n	80056b4 <UART_CheckIdleState+0x11c>
 8005626:	6bfb      	ldr	r3, [r7, #60]	; 0x3c
 8005628:	2280      	movs	r2, #128	; 0x80
 800562a:	03d1      	lsls	r1, r2, #15
 800562c:	6878      	ldr	r0, [r7, #4]
 800562e:	4a2c      	ldr	r2, [pc, #176]	; (80056e0 <UART_CheckIdleState+0x148>)
 8005630:	9200      	str	r2, [sp, #0]
 8005632:	2200      	movs	r2, #0
 8005634:	f000 f858 	bl	80056e8 <UART_WaitOnFlagUntilTimeout>
 8005638:	1e03      	subs	r3, r0, #0
 800563a:	d03b      	beq.n	80056b4 <UART_CheckIdleState+0x11c>
 800563c:	f3ef 8310 	mrs	r3, PRIMASK
 8005640:	60fb      	str	r3, [r7, #12]
 8005642:	68fb      	ldr	r3, [r7, #12]
 8005644:	637b      	str	r3, [r7, #52]	; 0x34
 8005646:	2301      	movs	r3, #1
 8005648:	613b      	str	r3, [r7, #16]
 800564a:	693b      	ldr	r3, [r7, #16]
 800564c:	f383 8810 	msr	PRIMASK, r3
 8005650:	46c0      	nop			; (mov r8, r8)
 8005652:	687b      	ldr	r3, [r7, #4]
 8005654:	681b      	ldr	r3, [r3, #0]
 8005656:	681a      	ldr	r2, [r3, #0]
 8005658:	687b      	ldr	r3, [r7, #4]
 800565a:	681b      	ldr	r3, [r3, #0]
 800565c:	4921      	ldr	r1, [pc, #132]	; (80056e4 <UART_CheckIdleState+0x14c>)
 800565e:	400a      	ands	r2, r1
 8005660:	601a      	str	r2, [r3, #0]
 8005662:	6b7b      	ldr	r3, [r7, #52]	; 0x34
 8005664:	617b      	str	r3, [r7, #20]
 8005666:	697b      	ldr	r3, [r7, #20]
 8005668:	f383 8810 	msr	PRIMASK, r3
 800566c:	46c0      	nop			; (mov r8, r8)
 800566e:	f3ef 8310 	mrs	r3, PRIMASK
 8005672:	61bb      	str	r3, [r7, #24]
 8005674:	69bb      	ldr	r3, [r7, #24]
 8005676:	633b      	str	r3, [r7, #48]	; 0x30
 8005678:	2301      	movs	r3, #1
 800567a:	61fb      	str	r3, [r7, #28]
 800567c:	69fb      	ldr	r3, [r7, #28]
 800567e:	f383 8810 	msr	PRIMASK, r3
 8005682:	46c0      	nop			; (mov r8, r8)
 8005684:	687b      	ldr	r3, [r7, #4]
 8005686:	681b      	ldr	r3, [r3, #0]
 8005688:	689a      	ldr	r2, [r3, #8]
 800568a:	687b      	ldr	r3, [r7, #4]
 800568c:	681b      	ldr	r3, [r3, #0]
 800568e:	2101      	movs	r1, #1
 8005690:	438a      	bics	r2, r1
 8005692:	609a      	str	r2, [r3, #8]
 8005694:	6b3b      	ldr	r3, [r7, #48]	; 0x30
 8005696:	623b      	str	r3, [r7, #32]
 8005698:	6a3b      	ldr	r3, [r7, #32]
 800569a:	f383 8810 	msr	PRIMASK, r3
 800569e:	46c0      	nop			; (mov r8, r8)
 80056a0:	687b      	ldr	r3, [r7, #4]
 80056a2:	2280      	movs	r2, #128	; 0x80
 80056a4:	2120      	movs	r1, #32
 80056a6:	5099      	str	r1, [r3, r2]
 80056a8:	687b      	ldr	r3, [r7, #4]
 80056aa:	2278      	movs	r2, #120	; 0x78
 80056ac:	2100      	movs	r1, #0
 80056ae:	5499      	strb	r1, [r3, r2]
 80056b0:	2303      	movs	r3, #3
 80056b2:	e011      	b.n	80056d8 <UART_CheckIdleState+0x140>
 80056b4:	687b      	ldr	r3, [r7, #4]
 80056b6:	2220      	movs	r2, #32
 80056b8:	67da      	str	r2, [r3, #124]	; 0x7c
 80056ba:	687b      	ldr	r3, [r7, #4]
 80056bc:	2280      	movs	r2, #128	; 0x80
 80056be:	2120      	movs	r1, #32
 80056c0:	5099      	str	r1, [r3, r2]
 80056c2:	687b      	ldr	r3, [r7, #4]
 80056c4:	2200      	movs	r2, #0
 80056c6:	661a      	str	r2, [r3, #96]	; 0x60
 80056c8:	687b      	ldr	r3, [r7, #4]
 80056ca:	2200      	movs	r2, #0
 80056cc:	665a      	str	r2, [r3, #100]	; 0x64
 80056ce:	687b      	ldr	r3, [r7, #4]
 80056d0:	2278      	movs	r2, #120	; 0x78
 80056d2:	2100      	movs	r1, #0
 80056d4:	5499      	strb	r1, [r3, r2]
 80056d6:	2300      	movs	r3, #0
 80056d8:	0018      	movs	r0, r3
 80056da:	46bd      	mov	sp, r7
 80056dc:	b010      	add	sp, #64	; 0x40
 80056de:	bd80      	pop	{r7, pc}
 80056e0:	01ffffff 	.word	0x01ffffff
 80056e4:	fffffedf 	.word	0xfffffedf

080056e8 <UART_WaitOnFlagUntilTimeout>:
 80056e8:	b580      	push	{r7, lr}
 80056ea:	b084      	sub	sp, #16
 80056ec:	af00      	add	r7, sp, #0
 80056ee:	60f8      	str	r0, [r7, #12]
 80056f0:	60b9      	str	r1, [r7, #8]
 80056f2:	603b      	str	r3, [r7, #0]
 80056f4:	1dfb      	adds	r3, r7, #7
 80056f6:	701a      	strb	r2, [r3, #0]
 80056f8:	e04b      	b.n	8005792 <UART_WaitOnFlagUntilTimeout+0xaa>
 80056fa:	69bb      	ldr	r3, [r7, #24]
 80056fc:	3301      	adds	r3, #1
 80056fe:	d048      	beq.n	8005792 <UART_WaitOnFlagUntilTimeout+0xaa>
 8005700:	f7fd fba8 	bl	8002e54 <HAL_GetTick>
 8005704:	0002      	movs	r2, r0
 8005706:	683b      	ldr	r3, [r7, #0]
 8005708:	1ad3      	subs	r3, r2, r3
 800570a:	69ba      	ldr	r2, [r7, #24]
 800570c:	429a      	cmp	r2, r3
 800570e:	d302      	bcc.n	8005716 <UART_WaitOnFlagUntilTimeout+0x2e>
 8005710:	69bb      	ldr	r3, [r7, #24]
 8005712:	2b00      	cmp	r3, #0
 8005714:	d101      	bne.n	800571a <UART_WaitOnFlagUntilTimeout+0x32>
 8005716:	2303      	movs	r3, #3
 8005718:	e04b      	b.n	80057b2 <UART_WaitOnFlagUntilTimeout+0xca>
 800571a:	68fb      	ldr	r3, [r7, #12]
 800571c:	681b      	ldr	r3, [r3, #0]
 800571e:	681b      	ldr	r3, [r3, #0]
 8005720:	2204      	movs	r2, #4
 8005722:	4013      	ands	r3, r2
 8005724:	d035      	beq.n	8005792 <UART_WaitOnFlagUntilTimeout+0xaa>
 8005726:	68fb      	ldr	r3, [r7, #12]
 8005728:	681b      	ldr	r3, [r3, #0]
 800572a:	69db      	ldr	r3, [r3, #28]
 800572c:	2208      	movs	r2, #8
 800572e:	4013      	ands	r3, r2
 8005730:	2b08      	cmp	r3, #8
 8005732:	d111      	bne.n	8005758 <UART_WaitOnFlagUntilTimeout+0x70>
 8005734:	68fb      	ldr	r3, [r7, #12]
 8005736:	681b      	ldr	r3, [r3, #0]
 8005738:	2208      	movs	r2, #8
 800573a:	621a      	str	r2, [r3, #32]
 800573c:	68fb      	ldr	r3, [r7, #12]
 800573e:	0018      	movs	r0, r3
 8005740:	f000 f83c 	bl	80057bc <UART_EndRxTransfer>
 8005744:	68fb      	ldr	r3, [r7, #12]
 8005746:	2284      	movs	r2, #132	; 0x84
 8005748:	2108      	movs	r1, #8
 800574a:	5099      	str	r1, [r3, r2]
 800574c:	68fb      	ldr	r3, [r7, #12]
 800574e:	2278      	movs	r2, #120	; 0x78
 8005750:	2100      	movs	r1, #0
 8005752:	5499      	strb	r1, [r3, r2]
 8005754:	2301      	movs	r3, #1
 8005756:	e02c      	b.n	80057b2 <UART_WaitOnFlagUntilTimeout+0xca>
 8005758:	68fb      	ldr	r3, [r7, #12]
 800575a:	681b      	ldr	r3, [r3, #0]
 800575c:	69da      	ldr	r2, [r3, #28]
 800575e:	2380      	movs	r3, #128	; 0x80
 8005760:	011b      	lsls	r3, r3, #4
 8005762:	401a      	ands	r2, r3
 8005764:	2380      	movs	r3, #128	; 0x80
 8005766:	011b      	lsls	r3, r3, #4
 8005768:	429a      	cmp	r2, r3
 800576a:	d112      	bne.n	8005792 <UART_WaitOnFlagUntilTimeout+0xaa>
 800576c:	68fb      	ldr	r3, [r7, #12]
 800576e:	681b      	ldr	r3, [r3, #0]
 8005770:	2280      	movs	r2, #128	; 0x80
 8005772:	0112      	lsls	r2, r2, #4
 8005774:	621a      	str	r2, [r3, #32]
 8005776:	68fb      	ldr	r3, [r7, #12]
 8005778:	0018      	movs	r0, r3
 800577a:	f000 f81f 	bl	80057bc <UART_EndRxTransfer>
 800577e:	68fb      	ldr	r3, [r7, #12]
 8005780:	2284      	movs	r2, #132	; 0x84
 8005782:	2120      	movs	r1, #32
 8005784:	5099      	str	r1, [r3, r2]
 8005786:	68fb      	ldr	r3, [r7, #12]
 8005788:	2278      	movs	r2, #120	; 0x78
 800578a:	2100      	movs	r1, #0
 800578c:	5499      	strb	r1, [r3, r2]
 800578e:	2303      	movs	r3, #3
 8005790:	e00f      	b.n	80057b2 <UART_WaitOnFlagUntilTimeout+0xca>
 8005792:	68fb      	ldr	r3, [r7, #12]
 8005794:	681b      	ldr	r3, [r3, #0]
 8005796:	69db      	ldr	r3, [r3, #28]
 8005798:	68ba      	ldr	r2, [r7, #8]
 800579a:	4013      	ands	r3, r2
 800579c:	68ba      	ldr	r2, [r7, #8]
 800579e:	1ad3      	subs	r3, r2, r3
 80057a0:	425a      	negs	r2, r3
 80057a2:	4153      	adcs	r3, r2
 80057a4:	b2db      	uxtb	r3, r3
 80057a6:	001a      	movs	r2, r3
 80057a8:	1dfb      	adds	r3, r7, #7
 80057aa:	781b      	ldrb	r3, [r3, #0]
 80057ac:	429a      	cmp	r2, r3
 80057ae:	d0a4      	beq.n	80056fa <UART_WaitOnFlagUntilTimeout+0x12>
 80057b0:	2300      	movs	r3, #0
 80057b2:	0018      	movs	r0, r3
 80057b4:	46bd      	mov	sp, r7
 80057b6:	b004      	add	sp, #16
 80057b8:	bd80      	pop	{r7, pc}
	...

080057bc <UART_EndRxTransfer>:
 80057bc:	b580      	push	{r7, lr}
 80057be:	b08e      	sub	sp, #56	; 0x38
 80057c0:	af00      	add	r7, sp, #0
 80057c2:	6078      	str	r0, [r7, #4]
 80057c4:	f3ef 8310 	mrs	r3, PRIMASK
 80057c8:	617b      	str	r3, [r7, #20]
 80057ca:	697b      	ldr	r3, [r7, #20]
 80057cc:	637b      	str	r3, [r7, #52]	; 0x34
 80057ce:	2301      	movs	r3, #1
 80057d0:	61bb      	str	r3, [r7, #24]
 80057d2:	69bb      	ldr	r3, [r7, #24]
 80057d4:	f383 8810 	msr	PRIMASK, r3
 80057d8:	46c0      	nop			; (mov r8, r8)
 80057da:	687b      	ldr	r3, [r7, #4]
 80057dc:	681b      	ldr	r3, [r3, #0]
 80057de:	681a      	ldr	r2, [r3, #0]
 80057e0:	687b      	ldr	r3, [r7, #4]
 80057e2:	681b      	ldr	r3, [r3, #0]
 80057e4:	4926      	ldr	r1, [pc, #152]	; (8005880 <UART_EndRxTransfer+0xc4>)
 80057e6:	400a      	ands	r2, r1
 80057e8:	601a      	str	r2, [r3, #0]
 80057ea:	6b7b      	ldr	r3, [r7, #52]	; 0x34
 80057ec:	61fb      	str	r3, [r7, #28]
 80057ee:	69fb      	ldr	r3, [r7, #28]
 80057f0:	f383 8810 	msr	PRIMASK, r3
 80057f4:	46c0      	nop			; (mov r8, r8)
 80057f6:	f3ef 8310 	mrs	r3, PRIMASK
 80057fa:	623b      	str	r3, [r7, #32]
 80057fc:	6a3b      	ldr	r3, [r7, #32]
 80057fe:	633b      	str	r3, [r7, #48]	; 0x30
 8005800:	2301      	movs	r3, #1
 8005802:	627b      	str	r3, [r7, #36]	; 0x24
 8005804:	6a7b      	ldr	r3, [r7, #36]	; 0x24
 8005806:	f383 8810 	msr	PRIMASK, r3
 800580a:	46c0      	nop			; (mov r8, r8)
 800580c:	687b      	ldr	r3, [r7, #4]
 800580e:	681b      	ldr	r3, [r3, #0]
 8005810:	689a      	ldr	r2, [r3, #8]
 8005812:	687b      	ldr	r3, [r7, #4]
 8005814:	681b      	ldr	r3, [r3, #0]
 8005816:	2101      	movs	r1, #1
 8005818:	438a      	bics	r2, r1
 800581a:	609a      	str	r2, [r3, #8]
 800581c:	6b3b      	ldr	r3, [r7, #48]	; 0x30
 800581e:	62bb      	str	r3, [r7, #40]	; 0x28
 8005820:	6abb      	ldr	r3, [r7, #40]	; 0x28
 8005822:	f383 8810 	msr	PRIMASK, r3
 8005826:	46c0      	nop			; (mov r8, r8)
 8005828:	687b      	ldr	r3, [r7, #4]
 800582a:	6e1b      	ldr	r3, [r3, #96]	; 0x60
 800582c:	2b01      	cmp	r3, #1
 800582e:	d118      	bne.n	8005862 <UART_EndRxTransfer+0xa6>
 8005830:	f3ef 8310 	mrs	r3, PRIMASK
 8005834:	60bb      	str	r3, [r7, #8]
 8005836:	68bb      	ldr	r3, [r7, #8]
 8005838:	62fb      	str	r3, [r7, #44]	; 0x2c
 800583a:	2301      	movs	r3, #1
 800583c:	60fb      	str	r3, [r7, #12]
 800583e:	68fb      	ldr	r3, [r7, #12]
 8005840:	f383 8810 	msr	PRIMASK, r3
 8005844:	46c0      	nop			; (mov r8, r8)
 8005846:	687b      	ldr	r3, [r7, #4]
 8005848:	681b      	ldr	r3, [r3, #0]
 800584a:	681a      	ldr	r2, [r3, #0]
 800584c:	687b      	ldr	r3, [r7, #4]
 800584e:	681b      	ldr	r3, [r3, #0]
 8005850:	2110      	movs	r1, #16
 8005852:	438a      	bics	r2, r1
 8005854:	601a      	str	r2, [r3, #0]
 8005856:	6afb      	ldr	r3, [r7, #44]	; 0x2c
 8005858:	613b      	str	r3, [r7, #16]
 800585a:	693b      	ldr	r3, [r7, #16]
 800585c:	f383 8810 	msr	PRIMASK, r3
 8005860:	46c0      	nop			; (mov r8, r8)
 8005862:	687b      	ldr	r3, [r7, #4]
 8005864:	2280      	movs	r2, #128	; 0x80
 8005866:	2120      	movs	r1, #32
 8005868:	5099      	str	r1, [r3, r2]
 800586a:	687b      	ldr	r3, [r7, #4]
 800586c:	2200      	movs	r2, #0
 800586e:	661a      	str	r2, [r3, #96]	; 0x60
 8005870:	687b      	ldr	r3, [r7, #4]
 8005872:	2200      	movs	r2, #0
 8005874:	669a      	str	r2, [r3, #104]	; 0x68
 8005876:	46c0      	nop			; (mov r8, r8)
 8005878:	46bd      	mov	sp, r7
 800587a:	b00e      	add	sp, #56	; 0x38
 800587c:	bd80      	pop	{r7, pc}
 800587e:	46c0      	nop			; (mov r8, r8)
 8005880:	fffffedf 	.word	0xfffffedf

08005884 <HAL_RS485Ex_Init>:
 8005884:	b580      	push	{r7, lr}
 8005886:	b086      	sub	sp, #24
 8005888:	af00      	add	r7, sp, #0
 800588a:	60f8      	str	r0, [r7, #12]
 800588c:	60b9      	str	r1, [r7, #8]
 800588e:	607a      	str	r2, [r7, #4]
 8005890:	603b      	str	r3, [r7, #0]
 8005892:	68fb      	ldr	r3, [r7, #12]
 8005894:	2b00      	cmp	r3, #0
 8005896:	d101      	bne.n	800589c <HAL_RS485Ex_Init+0x18>
 8005898:	2301      	movs	r3, #1
 800589a:	e05b      	b.n	8005954 <HAL_RS485Ex_Init+0xd0>
 800589c:	68fb      	ldr	r3, [r7, #12]
 800589e:	6fdb      	ldr	r3, [r3, #124]	; 0x7c
 80058a0:	2b00      	cmp	r3, #0
 80058a2:	d107      	bne.n	80058b4 <HAL_RS485Ex_Init+0x30>
 80058a4:	68fb      	ldr	r3, [r7, #12]
 80058a6:	2278      	movs	r2, #120	; 0x78
 80058a8:	2100      	movs	r1, #0
 80058aa:	5499      	strb	r1, [r3, r2]
 80058ac:	68fb      	ldr	r3, [r7, #12]
 80058ae:	0018      	movs	r0, r3
 80058b0:	f7fd f94c 	bl	8002b4c <HAL_UART_MspInit>
 80058b4:	68fb      	ldr	r3, [r7, #12]
 80058b6:	2224      	movs	r2, #36	; 0x24
 80058b8:	67da      	str	r2, [r3, #124]	; 0x7c
 80058ba:	68fb      	ldr	r3, [r7, #12]
 80058bc:	681b      	ldr	r3, [r3, #0]
 80058be:	681a      	ldr	r2, [r3, #0]
 80058c0:	68fb      	ldr	r3, [r7, #12]
 80058c2:	681b      	ldr	r3, [r3, #0]
 80058c4:	2101      	movs	r1, #1
 80058c6:	438a      	bics	r2, r1
 80058c8:	601a      	str	r2, [r3, #0]
 80058ca:	68fb      	ldr	r3, [r7, #12]
 80058cc:	0018      	movs	r0, r3
 80058ce:	f7ff fc6f 	bl	80051b0 <UART_SetConfig>
 80058d2:	0003      	movs	r3, r0
 80058d4:	2b01      	cmp	r3, #1
 80058d6:	d101      	bne.n	80058dc <HAL_RS485Ex_Init+0x58>
 80058d8:	2301      	movs	r3, #1
 80058da:	e03b      	b.n	8005954 <HAL_RS485Ex_Init+0xd0>
 80058dc:	68fb      	ldr	r3, [r7, #12]
 80058de:	6a5b      	ldr	r3, [r3, #36]	; 0x24
 80058e0:	2b00      	cmp	r3, #0
 80058e2:	d003      	beq.n	80058ec <HAL_RS485Ex_Init+0x68>
 80058e4:	68fb      	ldr	r3, [r7, #12]
 80058e6:	0018      	movs	r0, r3
 80058e8:	f7ff fda2 	bl	8005430 <UART_AdvFeatureConfig>
 80058ec:	68fb      	ldr	r3, [r7, #12]
 80058ee:	681b      	ldr	r3, [r3, #0]
 80058f0:	689a      	ldr	r2, [r3, #8]
 80058f2:	68fb      	ldr	r3, [r7, #12]
 80058f4:	681b      	ldr	r3, [r3, #0]
 80058f6:	2180      	movs	r1, #128	; 0x80
 80058f8:	01c9      	lsls	r1, r1, #7
 80058fa:	430a      	orrs	r2, r1
 80058fc:	609a      	str	r2, [r3, #8]
 80058fe:	68fb      	ldr	r3, [r7, #12]
 8005900:	681b      	ldr	r3, [r3, #0]
 8005902:	689b      	ldr	r3, [r3, #8]
 8005904:	4a15      	ldr	r2, [pc, #84]	; (800595c <HAL_RS485Ex_Init+0xd8>)
 8005906:	4013      	ands	r3, r2
 8005908:	0019      	movs	r1, r3
 800590a:	68fb      	ldr	r3, [r7, #12]
 800590c:	681b      	ldr	r3, [r3, #0]
 800590e:	68ba      	ldr	r2, [r7, #8]
 8005910:	430a      	orrs	r2, r1
 8005912:	609a      	str	r2, [r3, #8]
 8005914:	687b      	ldr	r3, [r7, #4]
 8005916:	055b      	lsls	r3, r3, #21
 8005918:	617b      	str	r3, [r7, #20]
 800591a:	683b      	ldr	r3, [r7, #0]
 800591c:	041b      	lsls	r3, r3, #16
 800591e:	697a      	ldr	r2, [r7, #20]
 8005920:	4313      	orrs	r3, r2
 8005922:	617b      	str	r3, [r7, #20]
 8005924:	68fb      	ldr	r3, [r7, #12]
 8005926:	681b      	ldr	r3, [r3, #0]
 8005928:	681b      	ldr	r3, [r3, #0]
 800592a:	4a0d      	ldr	r2, [pc, #52]	; (8005960 <HAL_RS485Ex_Init+0xdc>)
 800592c:	4013      	ands	r3, r2
 800592e:	0019      	movs	r1, r3
 8005930:	68fb      	ldr	r3, [r7, #12]
 8005932:	681b      	ldr	r3, [r3, #0]
 8005934:	697a      	ldr	r2, [r7, #20]
 8005936:	430a      	orrs	r2, r1
 8005938:	601a      	str	r2, [r3, #0]
 800593a:	68fb      	ldr	r3, [r7, #12]
 800593c:	681b      	ldr	r3, [r3, #0]
 800593e:	681a      	ldr	r2, [r3, #0]
 8005940:	68fb      	ldr	r3, [r7, #12]
 8005942:	681b      	ldr	r3, [r3, #0]
 8005944:	2101      	movs	r1, #1
 8005946:	430a      	orrs	r2, r1
 8005948:	601a      	str	r2, [r3, #0]
 800594a:	68fb      	ldr	r3, [r7, #12]
 800594c:	0018      	movs	r0, r3
 800594e:	f7ff fe23 	bl	8005598 <UART_CheckIdleState>
 8005952:	0003      	movs	r3, r0
 8005954:	0018      	movs	r0, r3
 8005956:	46bd      	mov	sp, r7
 8005958:	b006      	add	sp, #24
 800595a:	bd80      	pop	{r7, pc}
 800595c:	ffff7fff 	.word	0xffff7fff
 8005960:	fc00ffff 	.word	0xfc00ffff

08005964 <siprintf>:
 8005964:	b40e      	push	{r1, r2, r3}
 8005966:	b500      	push	{lr}
 8005968:	490b      	ldr	r1, [pc, #44]	; (8005998 <siprintf+0x34>)
 800596a:	b09c      	sub	sp, #112	; 0x70
 800596c:	ab1d      	add	r3, sp, #116	; 0x74
 800596e:	9002      	str	r0, [sp, #8]
 8005970:	9006      	str	r0, [sp, #24]
 8005972:	9107      	str	r1, [sp, #28]
 8005974:	9104      	str	r1, [sp, #16]
 8005976:	4809      	ldr	r0, [pc, #36]	; (800599c <siprintf+0x38>)
 8005978:	4909      	ldr	r1, [pc, #36]	; (80059a0 <siprintf+0x3c>)
 800597a:	cb04      	ldmia	r3!, {r2}
 800597c:	9105      	str	r1, [sp, #20]
 800597e:	6800      	ldr	r0, [r0, #0]
 8005980:	a902      	add	r1, sp, #8
 8005982:	9301      	str	r3, [sp, #4]
 8005984:	f000 f9a2 	bl	8005ccc <_svfiprintf_r>
 8005988:	2200      	movs	r2, #0
 800598a:	9b02      	ldr	r3, [sp, #8]
 800598c:	701a      	strb	r2, [r3, #0]
 800598e:	b01c      	add	sp, #112	; 0x70
 8005990:	bc08      	pop	{r3}
 8005992:	b003      	add	sp, #12
 8005994:	4718      	bx	r3
 8005996:	46c0      	nop			; (mov r8, r8)
 8005998:	7fffffff 	.word	0x7fffffff
 800599c:	20000064 	.word	0x20000064
 80059a0:	ffff0208 	.word	0xffff0208

080059a4 <memset>:
 80059a4:	0003      	movs	r3, r0
 80059a6:	1882      	adds	r2, r0, r2
 80059a8:	4293      	cmp	r3, r2
 80059aa:	d100      	bne.n	80059ae <memset+0xa>
 80059ac:	4770      	bx	lr
 80059ae:	7019      	strb	r1, [r3, #0]
 80059b0:	3301      	adds	r3, #1
 80059b2:	e7f9      	b.n	80059a8 <memset+0x4>

080059b4 <__errno>:
 80059b4:	4b01      	ldr	r3, [pc, #4]	; (80059bc <__errno+0x8>)
 80059b6:	6818      	ldr	r0, [r3, #0]
 80059b8:	4770      	bx	lr
 80059ba:	46c0      	nop			; (mov r8, r8)
 80059bc:	20000064 	.word	0x20000064

080059c0 <__libc_init_array>:
 80059c0:	b570      	push	{r4, r5, r6, lr}
 80059c2:	2600      	movs	r6, #0
 80059c4:	4c0c      	ldr	r4, [pc, #48]	; (80059f8 <__libc_init_array+0x38>)
 80059c6:	4d0d      	ldr	r5, [pc, #52]	; (80059fc <__libc_init_array+0x3c>)
 80059c8:	1b64      	subs	r4, r4, r5
 80059ca:	10a4      	asrs	r4, r4, #2
 80059cc:	42a6      	cmp	r6, r4
 80059ce:	d109      	bne.n	80059e4 <__libc_init_array+0x24>
 80059d0:	2600      	movs	r6, #0
 80059d2:	f000 fc6d 	bl	80062b0 <_init>
 80059d6:	4c0a      	ldr	r4, [pc, #40]	; (8005a00 <__libc_init_array+0x40>)
 80059d8:	4d0a      	ldr	r5, [pc, #40]	; (8005a04 <__libc_init_array+0x44>)
 80059da:	1b64      	subs	r4, r4, r5
 80059dc:	10a4      	asrs	r4, r4, #2
 80059de:	42a6      	cmp	r6, r4
 80059e0:	d105      	bne.n	80059ee <__libc_init_array+0x2e>
 80059e2:	bd70      	pop	{r4, r5, r6, pc}
 80059e4:	00b3      	lsls	r3, r6, #2
 80059e6:	58eb      	ldr	r3, [r5, r3]
 80059e8:	4798      	blx	r3
 80059ea:	3601      	adds	r6, #1
 80059ec:	e7ee      	b.n	80059cc <__libc_init_array+0xc>
 80059ee:	00b3      	lsls	r3, r6, #2
 80059f0:	58eb      	ldr	r3, [r5, r3]
 80059f2:	4798      	blx	r3
 80059f4:	3601      	adds	r6, #1
 80059f6:	e7f2      	b.n	80059de <__libc_init_array+0x1e>
 80059f8:	08006570 	.word	0x08006570
 80059fc:	08006570 	.word	0x08006570
 8005a00:	08006574 	.word	0x08006574
 8005a04:	08006570 	.word	0x08006570

08005a08 <__retarget_lock_acquire_recursive>:
 8005a08:	4770      	bx	lr

08005a0a <__retarget_lock_release_recursive>:
 8005a0a:	4770      	bx	lr

08005a0c <_free_r>:
 8005a0c:	b570      	push	{r4, r5, r6, lr}
 8005a0e:	0005      	movs	r5, r0
 8005a10:	2900      	cmp	r1, #0
 8005a12:	d010      	beq.n	8005a36 <_free_r+0x2a>
 8005a14:	1f0c      	subs	r4, r1, #4
 8005a16:	6823      	ldr	r3, [r4, #0]
 8005a18:	2b00      	cmp	r3, #0
 8005a1a:	da00      	bge.n	8005a1e <_free_r+0x12>
 8005a1c:	18e4      	adds	r4, r4, r3
 8005a1e:	0028      	movs	r0, r5
 8005a20:	f000 f8e2 	bl	8005be8 <__malloc_lock>
 8005a24:	4a1d      	ldr	r2, [pc, #116]	; (8005a9c <_free_r+0x90>)
 8005a26:	6813      	ldr	r3, [r2, #0]
 8005a28:	2b00      	cmp	r3, #0
 8005a2a:	d105      	bne.n	8005a38 <_free_r+0x2c>
 8005a2c:	6063      	str	r3, [r4, #4]
 8005a2e:	6014      	str	r4, [r2, #0]
 8005a30:	0028      	movs	r0, r5
 8005a32:	f000 f8e1 	bl	8005bf8 <__malloc_unlock>
 8005a36:	bd70      	pop	{r4, r5, r6, pc}
 8005a38:	42a3      	cmp	r3, r4
 8005a3a:	d908      	bls.n	8005a4e <_free_r+0x42>
 8005a3c:	6820      	ldr	r0, [r4, #0]
 8005a3e:	1821      	adds	r1, r4, r0
 8005a40:	428b      	cmp	r3, r1
 8005a42:	d1f3      	bne.n	8005a2c <_free_r+0x20>
 8005a44:	6819      	ldr	r1, [r3, #0]
 8005a46:	685b      	ldr	r3, [r3, #4]
 8005a48:	1809      	adds	r1, r1, r0
 8005a4a:	6021      	str	r1, [r4, #0]
 8005a4c:	e7ee      	b.n	8005a2c <_free_r+0x20>
 8005a4e:	001a      	movs	r2, r3
 8005a50:	685b      	ldr	r3, [r3, #4]
 8005a52:	2b00      	cmp	r3, #0
 8005a54:	d001      	beq.n	8005a5a <_free_r+0x4e>
 8005a56:	42a3      	cmp	r3, r4
 8005a58:	d9f9      	bls.n	8005a4e <_free_r+0x42>
 8005a5a:	6811      	ldr	r1, [r2, #0]
 8005a5c:	1850      	adds	r0, r2, r1
 8005a5e:	42a0      	cmp	r0, r4
 8005a60:	d10b      	bne.n	8005a7a <_free_r+0x6e>
 8005a62:	6820      	ldr	r0, [r4, #0]
 8005a64:	1809      	adds	r1, r1, r0
 8005a66:	1850      	adds	r0, r2, r1
 8005a68:	6011      	str	r1, [r2, #0]
 8005a6a:	4283      	cmp	r3, r0
 8005a6c:	d1e0      	bne.n	8005a30 <_free_r+0x24>
 8005a6e:	6818      	ldr	r0, [r3, #0]
 8005a70:	685b      	ldr	r3, [r3, #4]
 8005a72:	1841      	adds	r1, r0, r1
 8005a74:	6011      	str	r1, [r2, #0]
 8005a76:	6053      	str	r3, [r2, #4]
 8005a78:	e7da      	b.n	8005a30 <_free_r+0x24>
 8005a7a:	42a0      	cmp	r0, r4
 8005a7c:	d902      	bls.n	8005a84 <_free_r+0x78>
 8005a7e:	230c      	movs	r3, #12
 8005a80:	602b      	str	r3, [r5, #0]
 8005a82:	e7d5      	b.n	8005a30 <_free_r+0x24>
 8005a84:	6820      	ldr	r0, [r4, #0]
 8005a86:	1821      	adds	r1, r4, r0
 8005a88:	428b      	cmp	r3, r1
 8005a8a:	d103      	bne.n	8005a94 <_free_r+0x88>
 8005a8c:	6819      	ldr	r1, [r3, #0]
 8005a8e:	685b      	ldr	r3, [r3, #4]
 8005a90:	1809      	adds	r1, r1, r0
 8005a92:	6021      	str	r1, [r4, #0]
 8005a94:	6063      	str	r3, [r4, #4]
 8005a96:	6054      	str	r4, [r2, #4]
 8005a98:	e7ca      	b.n	8005a30 <_free_r+0x24>
 8005a9a:	46c0      	nop			; (mov r8, r8)
 8005a9c:	20000370 	.word	0x20000370

08005aa0 <sbrk_aligned>:
 8005aa0:	b570      	push	{r4, r5, r6, lr}
 8005aa2:	4e0f      	ldr	r6, [pc, #60]	; (8005ae0 <sbrk_aligned+0x40>)
 8005aa4:	000d      	movs	r5, r1
 8005aa6:	6831      	ldr	r1, [r6, #0]
 8005aa8:	0004      	movs	r4, r0
 8005aaa:	2900      	cmp	r1, #0
 8005aac:	d102      	bne.n	8005ab4 <sbrk_aligned+0x14>
 8005aae:	f000 fba1 	bl	80061f4 <_sbrk_r>
 8005ab2:	6030      	str	r0, [r6, #0]
 8005ab4:	0029      	movs	r1, r5
 8005ab6:	0020      	movs	r0, r4
 8005ab8:	f000 fb9c 	bl	80061f4 <_sbrk_r>
 8005abc:	1c43      	adds	r3, r0, #1
 8005abe:	d00a      	beq.n	8005ad6 <sbrk_aligned+0x36>
 8005ac0:	2303      	movs	r3, #3
 8005ac2:	1cc5      	adds	r5, r0, #3
 8005ac4:	439d      	bics	r5, r3
 8005ac6:	42a8      	cmp	r0, r5
 8005ac8:	d007      	beq.n	8005ada <sbrk_aligned+0x3a>
 8005aca:	1a29      	subs	r1, r5, r0
 8005acc:	0020      	movs	r0, r4
 8005ace:	f000 fb91 	bl	80061f4 <_sbrk_r>
 8005ad2:	3001      	adds	r0, #1
 8005ad4:	d101      	bne.n	8005ada <sbrk_aligned+0x3a>
 8005ad6:	2501      	movs	r5, #1
 8005ad8:	426d      	negs	r5, r5
 8005ada:	0028      	movs	r0, r5
 8005adc:	bd70      	pop	{r4, r5, r6, pc}
 8005ade:	46c0      	nop			; (mov r8, r8)
 8005ae0:	20000374 	.word	0x20000374

08005ae4 <_malloc_r>:
 8005ae4:	b5f7      	push	{r0, r1, r2, r4, r5, r6, r7, lr}
 8005ae6:	2203      	movs	r2, #3
 8005ae8:	1ccb      	adds	r3, r1, #3
 8005aea:	4393      	bics	r3, r2
 8005aec:	3308      	adds	r3, #8
 8005aee:	0006      	movs	r6, r0
 8005af0:	001f      	movs	r7, r3
 8005af2:	2b0c      	cmp	r3, #12
 8005af4:	d238      	bcs.n	8005b68 <_malloc_r+0x84>
 8005af6:	270c      	movs	r7, #12
 8005af8:	42b9      	cmp	r1, r7
 8005afa:	d837      	bhi.n	8005b6c <_malloc_r+0x88>
 8005afc:	0030      	movs	r0, r6
 8005afe:	f000 f873 	bl	8005be8 <__malloc_lock>
 8005b02:	4b38      	ldr	r3, [pc, #224]	; (8005be4 <_malloc_r+0x100>)
 8005b04:	9300      	str	r3, [sp, #0]
 8005b06:	681b      	ldr	r3, [r3, #0]
 8005b08:	001c      	movs	r4, r3
 8005b0a:	2c00      	cmp	r4, #0
 8005b0c:	d133      	bne.n	8005b76 <_malloc_r+0x92>
 8005b0e:	0039      	movs	r1, r7
 8005b10:	0030      	movs	r0, r6
 8005b12:	f7ff ffc5 	bl	8005aa0 <sbrk_aligned>
 8005b16:	0004      	movs	r4, r0
 8005b18:	1c43      	adds	r3, r0, #1
 8005b1a:	d15e      	bne.n	8005bda <_malloc_r+0xf6>
 8005b1c:	9b00      	ldr	r3, [sp, #0]
 8005b1e:	681c      	ldr	r4, [r3, #0]
 8005b20:	0025      	movs	r5, r4
 8005b22:	2d00      	cmp	r5, #0
 8005b24:	d14e      	bne.n	8005bc4 <_malloc_r+0xe0>
 8005b26:	2c00      	cmp	r4, #0
 8005b28:	d051      	beq.n	8005bce <_malloc_r+0xea>
 8005b2a:	6823      	ldr	r3, [r4, #0]
 8005b2c:	0029      	movs	r1, r5
 8005b2e:	18e3      	adds	r3, r4, r3
 8005b30:	0030      	movs	r0, r6
 8005b32:	9301      	str	r3, [sp, #4]
 8005b34:	f000 fb5e 	bl	80061f4 <_sbrk_r>
 8005b38:	9b01      	ldr	r3, [sp, #4]
 8005b3a:	4283      	cmp	r3, r0
 8005b3c:	d147      	bne.n	8005bce <_malloc_r+0xea>
 8005b3e:	6823      	ldr	r3, [r4, #0]
 8005b40:	0030      	movs	r0, r6
 8005b42:	1aff      	subs	r7, r7, r3
 8005b44:	0039      	movs	r1, r7
 8005b46:	f7ff ffab 	bl	8005aa0 <sbrk_aligned>
 8005b4a:	3001      	adds	r0, #1
 8005b4c:	d03f      	beq.n	8005bce <_malloc_r+0xea>
 8005b4e:	6823      	ldr	r3, [r4, #0]
 8005b50:	19db      	adds	r3, r3, r7
 8005b52:	6023      	str	r3, [r4, #0]
 8005b54:	9b00      	ldr	r3, [sp, #0]
 8005b56:	681b      	ldr	r3, [r3, #0]
 8005b58:	2b00      	cmp	r3, #0
 8005b5a:	d040      	beq.n	8005bde <_malloc_r+0xfa>
 8005b5c:	685a      	ldr	r2, [r3, #4]
 8005b5e:	42a2      	cmp	r2, r4
 8005b60:	d133      	bne.n	8005bca <_malloc_r+0xe6>
 8005b62:	2200      	movs	r2, #0
 8005b64:	605a      	str	r2, [r3, #4]
 8005b66:	e014      	b.n	8005b92 <_malloc_r+0xae>
 8005b68:	2b00      	cmp	r3, #0
 8005b6a:	dac5      	bge.n	8005af8 <_malloc_r+0x14>
 8005b6c:	230c      	movs	r3, #12
 8005b6e:	2500      	movs	r5, #0
 8005b70:	6033      	str	r3, [r6, #0]
 8005b72:	0028      	movs	r0, r5
 8005b74:	bdfe      	pop	{r1, r2, r3, r4, r5, r6, r7, pc}
 8005b76:	6821      	ldr	r1, [r4, #0]
 8005b78:	1bc9      	subs	r1, r1, r7
 8005b7a:	d420      	bmi.n	8005bbe <_malloc_r+0xda>
 8005b7c:	290b      	cmp	r1, #11
 8005b7e:	d918      	bls.n	8005bb2 <_malloc_r+0xce>
 8005b80:	19e2      	adds	r2, r4, r7
 8005b82:	6027      	str	r7, [r4, #0]
 8005b84:	42a3      	cmp	r3, r4
 8005b86:	d112      	bne.n	8005bae <_malloc_r+0xca>
 8005b88:	9b00      	ldr	r3, [sp, #0]
 8005b8a:	601a      	str	r2, [r3, #0]
 8005b8c:	6863      	ldr	r3, [r4, #4]
 8005b8e:	6011      	str	r1, [r2, #0]
 8005b90:	6053      	str	r3, [r2, #4]
 8005b92:	0030      	movs	r0, r6
 8005b94:	0025      	movs	r5, r4
 8005b96:	f000 f82f 	bl	8005bf8 <__malloc_unlock>
 8005b9a:	2207      	movs	r2, #7
 8005b9c:	350b      	adds	r5, #11
 8005b9e:	1d23      	adds	r3, r4, #4
 8005ba0:	4395      	bics	r5, r2
 8005ba2:	1aea      	subs	r2, r5, r3
 8005ba4:	429d      	cmp	r5, r3
 8005ba6:	d0e4      	beq.n	8005b72 <_malloc_r+0x8e>
 8005ba8:	1b5b      	subs	r3, r3, r5
 8005baa:	50a3      	str	r3, [r4, r2]
 8005bac:	e7e1      	b.n	8005b72 <_malloc_r+0x8e>
 8005bae:	605a      	str	r2, [r3, #4]
 8005bb0:	e7ec      	b.n	8005b8c <_malloc_r+0xa8>
 8005bb2:	6862      	ldr	r2, [r4, #4]
 8005bb4:	42a3      	cmp	r3, r4
 8005bb6:	d1d5      	bne.n	8005b64 <_malloc_r+0x80>
 8005bb8:	9b00      	ldr	r3, [sp, #0]
 8005bba:	601a      	str	r2, [r3, #0]
 8005bbc:	e7e9      	b.n	8005b92 <_malloc_r+0xae>
 8005bbe:	0023      	movs	r3, r4
 8005bc0:	6864      	ldr	r4, [r4, #4]
 8005bc2:	e7a2      	b.n	8005b0a <_malloc_r+0x26>
 8005bc4:	002c      	movs	r4, r5
 8005bc6:	686d      	ldr	r5, [r5, #4]
 8005bc8:	e7ab      	b.n	8005b22 <_malloc_r+0x3e>
 8005bca:	0013      	movs	r3, r2
 8005bcc:	e7c4      	b.n	8005b58 <_malloc_r+0x74>
 8005bce:	230c      	movs	r3, #12
 8005bd0:	0030      	movs	r0, r6
 8005bd2:	6033      	str	r3, [r6, #0]
 8005bd4:	f000 f810 	bl	8005bf8 <__malloc_unlock>
 8005bd8:	e7cb      	b.n	8005b72 <_malloc_r+0x8e>
 8005bda:	6027      	str	r7, [r4, #0]
 8005bdc:	e7d9      	b.n	8005b92 <_malloc_r+0xae>
 8005bde:	605b      	str	r3, [r3, #4]
 8005be0:	deff      	udf	#255	; 0xff
 8005be2:	46c0      	nop			; (mov r8, r8)
 8005be4:	20000370 	.word	0x20000370

08005be8 <__malloc_lock>:
 8005be8:	b510      	push	{r4, lr}
 8005bea:	4802      	ldr	r0, [pc, #8]	; (8005bf4 <__malloc_lock+0xc>)
 8005bec:	f7ff ff0c 	bl	8005a08 <__retarget_lock_acquire_recursive>
 8005bf0:	bd10      	pop	{r4, pc}
 8005bf2:	46c0      	nop			; (mov r8, r8)
 8005bf4:	2000036c 	.word	0x2000036c

08005bf8 <__malloc_unlock>:
 8005bf8:	b510      	push	{r4, lr}
 8005bfa:	4802      	ldr	r0, [pc, #8]	; (8005c04 <__malloc_unlock+0xc>)
 8005bfc:	f7ff ff05 	bl	8005a0a <__retarget_lock_release_recursive>
 8005c00:	bd10      	pop	{r4, pc}
 8005c02:	46c0      	nop			; (mov r8, r8)
 8005c04:	2000036c 	.word	0x2000036c

08005c08 <__ssputs_r>:
 8005c08:	b5f0      	push	{r4, r5, r6, r7, lr}
 8005c0a:	b085      	sub	sp, #20
 8005c0c:	9301      	str	r3, [sp, #4]
 8005c0e:	9203      	str	r2, [sp, #12]
 8005c10:	688e      	ldr	r6, [r1, #8]
 8005c12:	9a01      	ldr	r2, [sp, #4]
 8005c14:	0007      	movs	r7, r0
 8005c16:	000c      	movs	r4, r1
 8005c18:	680b      	ldr	r3, [r1, #0]
 8005c1a:	4296      	cmp	r6, r2
 8005c1c:	d831      	bhi.n	8005c82 <__ssputs_r+0x7a>
 8005c1e:	898a      	ldrh	r2, [r1, #12]
 8005c20:	2190      	movs	r1, #144	; 0x90
 8005c22:	00c9      	lsls	r1, r1, #3
 8005c24:	420a      	tst	r2, r1
 8005c26:	d029      	beq.n	8005c7c <__ssputs_r+0x74>
 8005c28:	2003      	movs	r0, #3
 8005c2a:	6921      	ldr	r1, [r4, #16]
 8005c2c:	1a5b      	subs	r3, r3, r1
 8005c2e:	9302      	str	r3, [sp, #8]
 8005c30:	6963      	ldr	r3, [r4, #20]
 8005c32:	4343      	muls	r3, r0
 8005c34:	0fdd      	lsrs	r5, r3, #31
 8005c36:	18ed      	adds	r5, r5, r3
 8005c38:	9b01      	ldr	r3, [sp, #4]
 8005c3a:	9802      	ldr	r0, [sp, #8]
 8005c3c:	3301      	adds	r3, #1
 8005c3e:	181b      	adds	r3, r3, r0
 8005c40:	106d      	asrs	r5, r5, #1
 8005c42:	42ab      	cmp	r3, r5
 8005c44:	d900      	bls.n	8005c48 <__ssputs_r+0x40>
 8005c46:	001d      	movs	r5, r3
 8005c48:	0552      	lsls	r2, r2, #21
 8005c4a:	d529      	bpl.n	8005ca0 <__ssputs_r+0x98>
 8005c4c:	0029      	movs	r1, r5
 8005c4e:	0038      	movs	r0, r7
 8005c50:	f7ff ff48 	bl	8005ae4 <_malloc_r>
 8005c54:	1e06      	subs	r6, r0, #0
 8005c56:	d02d      	beq.n	8005cb4 <__ssputs_r+0xac>
 8005c58:	9a02      	ldr	r2, [sp, #8]
 8005c5a:	6921      	ldr	r1, [r4, #16]
 8005c5c:	f000 fae7 	bl	800622e <memcpy>
 8005c60:	89a2      	ldrh	r2, [r4, #12]
 8005c62:	4b19      	ldr	r3, [pc, #100]	; (8005cc8 <__ssputs_r+0xc0>)
 8005c64:	401a      	ands	r2, r3
 8005c66:	2380      	movs	r3, #128	; 0x80
 8005c68:	4313      	orrs	r3, r2
 8005c6a:	81a3      	strh	r3, [r4, #12]
 8005c6c:	9b02      	ldr	r3, [sp, #8]
 8005c6e:	6126      	str	r6, [r4, #16]
 8005c70:	18f6      	adds	r6, r6, r3
 8005c72:	6026      	str	r6, [r4, #0]
 8005c74:	6165      	str	r5, [r4, #20]
 8005c76:	9e01      	ldr	r6, [sp, #4]
 8005c78:	1aed      	subs	r5, r5, r3
 8005c7a:	60a5      	str	r5, [r4, #8]
 8005c7c:	9b01      	ldr	r3, [sp, #4]
 8005c7e:	429e      	cmp	r6, r3
 8005c80:	d900      	bls.n	8005c84 <__ssputs_r+0x7c>
 8005c82:	9e01      	ldr	r6, [sp, #4]
 8005c84:	0032      	movs	r2, r6
 8005c86:	9903      	ldr	r1, [sp, #12]
 8005c88:	6820      	ldr	r0, [r4, #0]
 8005c8a:	f000 fa9f 	bl	80061cc <memmove>
 8005c8e:	2000      	movs	r0, #0
 8005c90:	68a3      	ldr	r3, [r4, #8]
 8005c92:	1b9b      	subs	r3, r3, r6
 8005c94:	60a3      	str	r3, [r4, #8]
 8005c96:	6823      	ldr	r3, [r4, #0]
 8005c98:	199b      	adds	r3, r3, r6
 8005c9a:	6023      	str	r3, [r4, #0]
 8005c9c:	b005      	add	sp, #20
 8005c9e:	bdf0      	pop	{r4, r5, r6, r7, pc}
 8005ca0:	002a      	movs	r2, r5
 8005ca2:	0038      	movs	r0, r7
 8005ca4:	f000 facc 	bl	8006240 <_realloc_r>
 8005ca8:	1e06      	subs	r6, r0, #0
 8005caa:	d1df      	bne.n	8005c6c <__ssputs_r+0x64>
 8005cac:	0038      	movs	r0, r7
 8005cae:	6921      	ldr	r1, [r4, #16]
 8005cb0:	f7ff feac 	bl	8005a0c <_free_r>
 8005cb4:	230c      	movs	r3, #12
 8005cb6:	2001      	movs	r0, #1
 8005cb8:	603b      	str	r3, [r7, #0]
 8005cba:	89a2      	ldrh	r2, [r4, #12]
 8005cbc:	3334      	adds	r3, #52	; 0x34
 8005cbe:	4313      	orrs	r3, r2
 8005cc0:	81a3      	strh	r3, [r4, #12]
 8005cc2:	4240      	negs	r0, r0
 8005cc4:	e7ea      	b.n	8005c9c <__ssputs_r+0x94>
 8005cc6:	46c0      	nop			; (mov r8, r8)
 8005cc8:	fffffb7f 	.word	0xfffffb7f

08005ccc <_svfiprintf_r>:
 8005ccc:	b5f0      	push	{r4, r5, r6, r7, lr}
 8005cce:	b0a1      	sub	sp, #132	; 0x84
 8005cd0:	9003      	str	r0, [sp, #12]
 8005cd2:	001d      	movs	r5, r3
 8005cd4:	898b      	ldrh	r3, [r1, #12]
 8005cd6:	000f      	movs	r7, r1
 8005cd8:	0016      	movs	r6, r2
 8005cda:	061b      	lsls	r3, r3, #24
 8005cdc:	d511      	bpl.n	8005d02 <_svfiprintf_r+0x36>
 8005cde:	690b      	ldr	r3, [r1, #16]
 8005ce0:	2b00      	cmp	r3, #0
 8005ce2:	d10e      	bne.n	8005d02 <_svfiprintf_r+0x36>
 8005ce4:	2140      	movs	r1, #64	; 0x40
 8005ce6:	f7ff fefd 	bl	8005ae4 <_malloc_r>
 8005cea:	6038      	str	r0, [r7, #0]
 8005cec:	6138      	str	r0, [r7, #16]
 8005cee:	2800      	cmp	r0, #0
 8005cf0:	d105      	bne.n	8005cfe <_svfiprintf_r+0x32>
 8005cf2:	230c      	movs	r3, #12
 8005cf4:	9a03      	ldr	r2, [sp, #12]
 8005cf6:	3801      	subs	r0, #1
 8005cf8:	6013      	str	r3, [r2, #0]
 8005cfa:	b021      	add	sp, #132	; 0x84
 8005cfc:	bdf0      	pop	{r4, r5, r6, r7, pc}
 8005cfe:	2340      	movs	r3, #64	; 0x40
 8005d00:	617b      	str	r3, [r7, #20]
 8005d02:	2300      	movs	r3, #0
 8005d04:	ac08      	add	r4, sp, #32
 8005d06:	6163      	str	r3, [r4, #20]
 8005d08:	3320      	adds	r3, #32
 8005d0a:	7663      	strb	r3, [r4, #25]
 8005d0c:	3310      	adds	r3, #16
 8005d0e:	76a3      	strb	r3, [r4, #26]
 8005d10:	9507      	str	r5, [sp, #28]
 8005d12:	0035      	movs	r5, r6
 8005d14:	782b      	ldrb	r3, [r5, #0]
 8005d16:	2b00      	cmp	r3, #0
 8005d18:	d001      	beq.n	8005d1e <_svfiprintf_r+0x52>
 8005d1a:	2b25      	cmp	r3, #37	; 0x25
 8005d1c:	d148      	bne.n	8005db0 <_svfiprintf_r+0xe4>
 8005d1e:	1bab      	subs	r3, r5, r6
 8005d20:	9305      	str	r3, [sp, #20]
 8005d22:	42b5      	cmp	r5, r6
 8005d24:	d00b      	beq.n	8005d3e <_svfiprintf_r+0x72>
 8005d26:	0032      	movs	r2, r6
 8005d28:	0039      	movs	r1, r7
 8005d2a:	9803      	ldr	r0, [sp, #12]
 8005d2c:	f7ff ff6c 	bl	8005c08 <__ssputs_r>
 8005d30:	3001      	adds	r0, #1
 8005d32:	d100      	bne.n	8005d36 <_svfiprintf_r+0x6a>
 8005d34:	e0af      	b.n	8005e96 <_svfiprintf_r+0x1ca>
 8005d36:	6963      	ldr	r3, [r4, #20]
 8005d38:	9a05      	ldr	r2, [sp, #20]
 8005d3a:	189b      	adds	r3, r3, r2
 8005d3c:	6163      	str	r3, [r4, #20]
 8005d3e:	782b      	ldrb	r3, [r5, #0]
 8005d40:	2b00      	cmp	r3, #0
 8005d42:	d100      	bne.n	8005d46 <_svfiprintf_r+0x7a>
 8005d44:	e0a7      	b.n	8005e96 <_svfiprintf_r+0x1ca>
 8005d46:	2201      	movs	r2, #1
 8005d48:	2300      	movs	r3, #0
 8005d4a:	4252      	negs	r2, r2
 8005d4c:	6062      	str	r2, [r4, #4]
 8005d4e:	a904      	add	r1, sp, #16
 8005d50:	3254      	adds	r2, #84	; 0x54
 8005d52:	1852      	adds	r2, r2, r1
 8005d54:	1c6e      	adds	r6, r5, #1
 8005d56:	6023      	str	r3, [r4, #0]
 8005d58:	60e3      	str	r3, [r4, #12]
 8005d5a:	60a3      	str	r3, [r4, #8]
 8005d5c:	7013      	strb	r3, [r2, #0]
 8005d5e:	65a3      	str	r3, [r4, #88]	; 0x58
 8005d60:	4b55      	ldr	r3, [pc, #340]	; (8005eb8 <_svfiprintf_r+0x1ec>)
 8005d62:	2205      	movs	r2, #5
 8005d64:	0018      	movs	r0, r3
 8005d66:	7831      	ldrb	r1, [r6, #0]
 8005d68:	9305      	str	r3, [sp, #20]
 8005d6a:	f000 fa55 	bl	8006218 <memchr>
 8005d6e:	1c75      	adds	r5, r6, #1
 8005d70:	2800      	cmp	r0, #0
 8005d72:	d11f      	bne.n	8005db4 <_svfiprintf_r+0xe8>
 8005d74:	6822      	ldr	r2, [r4, #0]
 8005d76:	06d3      	lsls	r3, r2, #27
 8005d78:	d504      	bpl.n	8005d84 <_svfiprintf_r+0xb8>
 8005d7a:	2353      	movs	r3, #83	; 0x53
 8005d7c:	a904      	add	r1, sp, #16
 8005d7e:	185b      	adds	r3, r3, r1
 8005d80:	2120      	movs	r1, #32
 8005d82:	7019      	strb	r1, [r3, #0]
 8005d84:	0713      	lsls	r3, r2, #28
 8005d86:	d504      	bpl.n	8005d92 <_svfiprintf_r+0xc6>
 8005d88:	2353      	movs	r3, #83	; 0x53
 8005d8a:	a904      	add	r1, sp, #16
 8005d8c:	185b      	adds	r3, r3, r1
 8005d8e:	212b      	movs	r1, #43	; 0x2b
 8005d90:	7019      	strb	r1, [r3, #0]
 8005d92:	7833      	ldrb	r3, [r6, #0]
 8005d94:	2b2a      	cmp	r3, #42	; 0x2a
 8005d96:	d016      	beq.n	8005dc6 <_svfiprintf_r+0xfa>
 8005d98:	0035      	movs	r5, r6
 8005d9a:	2100      	movs	r1, #0
 8005d9c:	200a      	movs	r0, #10
 8005d9e:	68e3      	ldr	r3, [r4, #12]
 8005da0:	782a      	ldrb	r2, [r5, #0]
 8005da2:	1c6e      	adds	r6, r5, #1
 8005da4:	3a30      	subs	r2, #48	; 0x30
 8005da6:	2a09      	cmp	r2, #9
 8005da8:	d94e      	bls.n	8005e48 <_svfiprintf_r+0x17c>
 8005daa:	2900      	cmp	r1, #0
 8005dac:	d111      	bne.n	8005dd2 <_svfiprintf_r+0x106>
 8005dae:	e017      	b.n	8005de0 <_svfiprintf_r+0x114>
 8005db0:	3501      	adds	r5, #1
 8005db2:	e7af      	b.n	8005d14 <_svfiprintf_r+0x48>
 8005db4:	9b05      	ldr	r3, [sp, #20]
 8005db6:	6822      	ldr	r2, [r4, #0]
 8005db8:	1ac0      	subs	r0, r0, r3
 8005dba:	2301      	movs	r3, #1
 8005dbc:	4083      	lsls	r3, r0
 8005dbe:	4313      	orrs	r3, r2
 8005dc0:	002e      	movs	r6, r5
 8005dc2:	6023      	str	r3, [r4, #0]
 8005dc4:	e7cc      	b.n	8005d60 <_svfiprintf_r+0x94>
 8005dc6:	9b07      	ldr	r3, [sp, #28]
 8005dc8:	1d19      	adds	r1, r3, #4
 8005dca:	681b      	ldr	r3, [r3, #0]
 8005dcc:	9107      	str	r1, [sp, #28]
 8005dce:	2b00      	cmp	r3, #0
 8005dd0:	db01      	blt.n	8005dd6 <_svfiprintf_r+0x10a>
 8005dd2:	930b      	str	r3, [sp, #44]	; 0x2c
 8005dd4:	e004      	b.n	8005de0 <_svfiprintf_r+0x114>
 8005dd6:	425b      	negs	r3, r3
 8005dd8:	60e3      	str	r3, [r4, #12]
 8005dda:	2302      	movs	r3, #2
 8005ddc:	4313      	orrs	r3, r2
 8005dde:	6023      	str	r3, [r4, #0]
 8005de0:	782b      	ldrb	r3, [r5, #0]
 8005de2:	2b2e      	cmp	r3, #46	; 0x2e
 8005de4:	d10a      	bne.n	8005dfc <_svfiprintf_r+0x130>
 8005de6:	786b      	ldrb	r3, [r5, #1]
 8005de8:	2b2a      	cmp	r3, #42	; 0x2a
 8005dea:	d135      	bne.n	8005e58 <_svfiprintf_r+0x18c>
 8005dec:	9b07      	ldr	r3, [sp, #28]
 8005dee:	3502      	adds	r5, #2
 8005df0:	1d1a      	adds	r2, r3, #4
 8005df2:	681b      	ldr	r3, [r3, #0]
 8005df4:	9207      	str	r2, [sp, #28]
 8005df6:	2b00      	cmp	r3, #0
 8005df8:	db2b      	blt.n	8005e52 <_svfiprintf_r+0x186>
 8005dfa:	9309      	str	r3, [sp, #36]	; 0x24
 8005dfc:	4e2f      	ldr	r6, [pc, #188]	; (8005ebc <_svfiprintf_r+0x1f0>)
 8005dfe:	2203      	movs	r2, #3
 8005e00:	0030      	movs	r0, r6
 8005e02:	7829      	ldrb	r1, [r5, #0]
 8005e04:	f000 fa08 	bl	8006218 <memchr>
 8005e08:	2800      	cmp	r0, #0
 8005e0a:	d006      	beq.n	8005e1a <_svfiprintf_r+0x14e>
 8005e0c:	2340      	movs	r3, #64	; 0x40
 8005e0e:	1b80      	subs	r0, r0, r6
 8005e10:	4083      	lsls	r3, r0
 8005e12:	6822      	ldr	r2, [r4, #0]
 8005e14:	3501      	adds	r5, #1
 8005e16:	4313      	orrs	r3, r2
 8005e18:	6023      	str	r3, [r4, #0]
 8005e1a:	7829      	ldrb	r1, [r5, #0]
 8005e1c:	2206      	movs	r2, #6
 8005e1e:	4828      	ldr	r0, [pc, #160]	; (8005ec0 <_svfiprintf_r+0x1f4>)
 8005e20:	1c6e      	adds	r6, r5, #1
 8005e22:	7621      	strb	r1, [r4, #24]
 8005e24:	f000 f9f8 	bl	8006218 <memchr>
 8005e28:	2800      	cmp	r0, #0
 8005e2a:	d03c      	beq.n	8005ea6 <_svfiprintf_r+0x1da>
 8005e2c:	4b25      	ldr	r3, [pc, #148]	; (8005ec4 <_svfiprintf_r+0x1f8>)
 8005e2e:	2b00      	cmp	r3, #0
 8005e30:	d125      	bne.n	8005e7e <_svfiprintf_r+0x1b2>
 8005e32:	2207      	movs	r2, #7
 8005e34:	9b07      	ldr	r3, [sp, #28]
 8005e36:	3307      	adds	r3, #7
 8005e38:	4393      	bics	r3, r2
 8005e3a:	3308      	adds	r3, #8
 8005e3c:	9307      	str	r3, [sp, #28]
 8005e3e:	6963      	ldr	r3, [r4, #20]
 8005e40:	9a04      	ldr	r2, [sp, #16]
 8005e42:	189b      	adds	r3, r3, r2
 8005e44:	6163      	str	r3, [r4, #20]
 8005e46:	e764      	b.n	8005d12 <_svfiprintf_r+0x46>
 8005e48:	4343      	muls	r3, r0
 8005e4a:	0035      	movs	r5, r6
 8005e4c:	2101      	movs	r1, #1
 8005e4e:	189b      	adds	r3, r3, r2
 8005e50:	e7a6      	b.n	8005da0 <_svfiprintf_r+0xd4>
 8005e52:	2301      	movs	r3, #1
 8005e54:	425b      	negs	r3, r3
 8005e56:	e7d0      	b.n	8005dfa <_svfiprintf_r+0x12e>
 8005e58:	2300      	movs	r3, #0
 8005e5a:	200a      	movs	r0, #10
 8005e5c:	001a      	movs	r2, r3
 8005e5e:	3501      	adds	r5, #1
 8005e60:	6063      	str	r3, [r4, #4]
 8005e62:	7829      	ldrb	r1, [r5, #0]
 8005e64:	1c6e      	adds	r6, r5, #1
 8005e66:	3930      	subs	r1, #48	; 0x30
 8005e68:	2909      	cmp	r1, #9
 8005e6a:	d903      	bls.n	8005e74 <_svfiprintf_r+0x1a8>
 8005e6c:	2b00      	cmp	r3, #0
 8005e6e:	d0c5      	beq.n	8005dfc <_svfiprintf_r+0x130>
 8005e70:	9209      	str	r2, [sp, #36]	; 0x24
 8005e72:	e7c3      	b.n	8005dfc <_svfiprintf_r+0x130>
 8005e74:	4342      	muls	r2, r0
 8005e76:	0035      	movs	r5, r6
 8005e78:	2301      	movs	r3, #1
 8005e7a:	1852      	adds	r2, r2, r1
 8005e7c:	e7f1      	b.n	8005e62 <_svfiprintf_r+0x196>
 8005e7e:	aa07      	add	r2, sp, #28
 8005e80:	9200      	str	r2, [sp, #0]
 8005e82:	0021      	movs	r1, r4
 8005e84:	003a      	movs	r2, r7
 8005e86:	4b10      	ldr	r3, [pc, #64]	; (8005ec8 <_svfiprintf_r+0x1fc>)
 8005e88:	9803      	ldr	r0, [sp, #12]
 8005e8a:	e000      	b.n	8005e8e <_svfiprintf_r+0x1c2>
 8005e8c:	bf00      	nop
 8005e8e:	9004      	str	r0, [sp, #16]
 8005e90:	9b04      	ldr	r3, [sp, #16]
 8005e92:	3301      	adds	r3, #1
 8005e94:	d1d3      	bne.n	8005e3e <_svfiprintf_r+0x172>
 8005e96:	89bb      	ldrh	r3, [r7, #12]
 8005e98:	980d      	ldr	r0, [sp, #52]	; 0x34
 8005e9a:	065b      	lsls	r3, r3, #25
 8005e9c:	d400      	bmi.n	8005ea0 <_svfiprintf_r+0x1d4>
 8005e9e:	e72c      	b.n	8005cfa <_svfiprintf_r+0x2e>
 8005ea0:	2001      	movs	r0, #1
 8005ea2:	4240      	negs	r0, r0
 8005ea4:	e729      	b.n	8005cfa <_svfiprintf_r+0x2e>
 8005ea6:	aa07      	add	r2, sp, #28
 8005ea8:	9200      	str	r2, [sp, #0]
 8005eaa:	0021      	movs	r1, r4
 8005eac:	003a      	movs	r2, r7
 8005eae:	4b06      	ldr	r3, [pc, #24]	; (8005ec8 <_svfiprintf_r+0x1fc>)
 8005eb0:	9803      	ldr	r0, [sp, #12]
 8005eb2:	f000 f87b 	bl	8005fac <_printf_i>
 8005eb6:	e7ea      	b.n	8005e8e <_svfiprintf_r+0x1c2>
 8005eb8:	0800653c 	.word	0x0800653c
 8005ebc:	08006542 	.word	0x08006542
 8005ec0:	08006546 	.word	0x08006546
 8005ec4:	00000000 	.word	0x00000000
 8005ec8:	08005c09 	.word	0x08005c09

08005ecc <_printf_common>:
 8005ecc:	b5f7      	push	{r0, r1, r2, r4, r5, r6, r7, lr}
 8005ece:	0016      	movs	r6, r2
 8005ed0:	9301      	str	r3, [sp, #4]
 8005ed2:	688a      	ldr	r2, [r1, #8]
 8005ed4:	690b      	ldr	r3, [r1, #16]
 8005ed6:	000c      	movs	r4, r1
 8005ed8:	9000      	str	r0, [sp, #0]
 8005eda:	4293      	cmp	r3, r2
 8005edc:	da00      	bge.n	8005ee0 <_printf_common+0x14>
 8005ede:	0013      	movs	r3, r2
 8005ee0:	0022      	movs	r2, r4
 8005ee2:	6033      	str	r3, [r6, #0]
 8005ee4:	3243      	adds	r2, #67	; 0x43
 8005ee6:	7812      	ldrb	r2, [r2, #0]
 8005ee8:	2a00      	cmp	r2, #0
 8005eea:	d001      	beq.n	8005ef0 <_printf_common+0x24>
 8005eec:	3301      	adds	r3, #1
 8005eee:	6033      	str	r3, [r6, #0]
 8005ef0:	6823      	ldr	r3, [r4, #0]
 8005ef2:	069b      	lsls	r3, r3, #26
 8005ef4:	d502      	bpl.n	8005efc <_printf_common+0x30>
 8005ef6:	6833      	ldr	r3, [r6, #0]
 8005ef8:	3302      	adds	r3, #2
 8005efa:	6033      	str	r3, [r6, #0]
 8005efc:	6822      	ldr	r2, [r4, #0]
 8005efe:	2306      	movs	r3, #6
 8005f00:	0015      	movs	r5, r2
 8005f02:	401d      	ands	r5, r3
 8005f04:	421a      	tst	r2, r3
 8005f06:	d027      	beq.n	8005f58 <_printf_common+0x8c>
 8005f08:	0023      	movs	r3, r4
 8005f0a:	3343      	adds	r3, #67	; 0x43
 8005f0c:	781b      	ldrb	r3, [r3, #0]
 8005f0e:	1e5a      	subs	r2, r3, #1
 8005f10:	4193      	sbcs	r3, r2
 8005f12:	6822      	ldr	r2, [r4, #0]
 8005f14:	0692      	lsls	r2, r2, #26
 8005f16:	d430      	bmi.n	8005f7a <_printf_common+0xae>
 8005f18:	0022      	movs	r2, r4
 8005f1a:	9901      	ldr	r1, [sp, #4]
 8005f1c:	9800      	ldr	r0, [sp, #0]
 8005f1e:	9d08      	ldr	r5, [sp, #32]
 8005f20:	3243      	adds	r2, #67	; 0x43
 8005f22:	47a8      	blx	r5
 8005f24:	3001      	adds	r0, #1
 8005f26:	d025      	beq.n	8005f74 <_printf_common+0xa8>
 8005f28:	2206      	movs	r2, #6
 8005f2a:	6823      	ldr	r3, [r4, #0]
 8005f2c:	2500      	movs	r5, #0
 8005f2e:	4013      	ands	r3, r2
 8005f30:	2b04      	cmp	r3, #4
 8005f32:	d105      	bne.n	8005f40 <_printf_common+0x74>
 8005f34:	6833      	ldr	r3, [r6, #0]
 8005f36:	68e5      	ldr	r5, [r4, #12]
 8005f38:	1aed      	subs	r5, r5, r3
 8005f3a:	43eb      	mvns	r3, r5
 8005f3c:	17db      	asrs	r3, r3, #31
 8005f3e:	401d      	ands	r5, r3
 8005f40:	68a3      	ldr	r3, [r4, #8]
 8005f42:	6922      	ldr	r2, [r4, #16]
 8005f44:	4293      	cmp	r3, r2
 8005f46:	dd01      	ble.n	8005f4c <_printf_common+0x80>
 8005f48:	1a9b      	subs	r3, r3, r2
 8005f4a:	18ed      	adds	r5, r5, r3
 8005f4c:	2600      	movs	r6, #0
 8005f4e:	42b5      	cmp	r5, r6
 8005f50:	d120      	bne.n	8005f94 <_printf_common+0xc8>
 8005f52:	2000      	movs	r0, #0
 8005f54:	e010      	b.n	8005f78 <_printf_common+0xac>
 8005f56:	3501      	adds	r5, #1
 8005f58:	68e3      	ldr	r3, [r4, #12]
 8005f5a:	6832      	ldr	r2, [r6, #0]
 8005f5c:	1a9b      	subs	r3, r3, r2
 8005f5e:	42ab      	cmp	r3, r5
 8005f60:	ddd2      	ble.n	8005f08 <_printf_common+0x3c>
 8005f62:	0022      	movs	r2, r4
 8005f64:	2301      	movs	r3, #1
 8005f66:	9901      	ldr	r1, [sp, #4]
 8005f68:	9800      	ldr	r0, [sp, #0]
 8005f6a:	9f08      	ldr	r7, [sp, #32]
 8005f6c:	3219      	adds	r2, #25
 8005f6e:	47b8      	blx	r7
 8005f70:	3001      	adds	r0, #1
 8005f72:	d1f0      	bne.n	8005f56 <_printf_common+0x8a>
 8005f74:	2001      	movs	r0, #1
 8005f76:	4240      	negs	r0, r0
 8005f78:	bdfe      	pop	{r1, r2, r3, r4, r5, r6, r7, pc}
 8005f7a:	2030      	movs	r0, #48	; 0x30
 8005f7c:	18e1      	adds	r1, r4, r3
 8005f7e:	3143      	adds	r1, #67	; 0x43
 8005f80:	7008      	strb	r0, [r1, #0]
 8005f82:	0021      	movs	r1, r4
 8005f84:	1c5a      	adds	r2, r3, #1
 8005f86:	3145      	adds	r1, #69	; 0x45
 8005f88:	7809      	ldrb	r1, [r1, #0]
 8005f8a:	18a2      	adds	r2, r4, r2
 8005f8c:	3243      	adds	r2, #67	; 0x43
 8005f8e:	3302      	adds	r3, #2
 8005f90:	7011      	strb	r1, [r2, #0]
 8005f92:	e7c1      	b.n	8005f18 <_printf_common+0x4c>
 8005f94:	0022      	movs	r2, r4
 8005f96:	2301      	movs	r3, #1
 8005f98:	9901      	ldr	r1, [sp, #4]
 8005f9a:	9800      	ldr	r0, [sp, #0]
 8005f9c:	9f08      	ldr	r7, [sp, #32]
 8005f9e:	321a      	adds	r2, #26
 8005fa0:	47b8      	blx	r7
 8005fa2:	3001      	adds	r0, #1
 8005fa4:	d0e6      	beq.n	8005f74 <_printf_common+0xa8>
 8005fa6:	3601      	adds	r6, #1
 8005fa8:	e7d1      	b.n	8005f4e <_printf_common+0x82>
	...

08005fac <_printf_i>:
 8005fac:	b5f0      	push	{r4, r5, r6, r7, lr}
 8005fae:	b08b      	sub	sp, #44	; 0x2c
 8005fb0:	9206      	str	r2, [sp, #24]
 8005fb2:	000a      	movs	r2, r1
 8005fb4:	3243      	adds	r2, #67	; 0x43
 8005fb6:	9307      	str	r3, [sp, #28]
 8005fb8:	9005      	str	r0, [sp, #20]
 8005fba:	9204      	str	r2, [sp, #16]
 8005fbc:	7e0a      	ldrb	r2, [r1, #24]
 8005fbe:	000c      	movs	r4, r1
 8005fc0:	9b10      	ldr	r3, [sp, #64]	; 0x40
 8005fc2:	2a78      	cmp	r2, #120	; 0x78
 8005fc4:	d809      	bhi.n	8005fda <_printf_i+0x2e>
 8005fc6:	2a62      	cmp	r2, #98	; 0x62
 8005fc8:	d80b      	bhi.n	8005fe2 <_printf_i+0x36>
 8005fca:	2a00      	cmp	r2, #0
 8005fcc:	d100      	bne.n	8005fd0 <_printf_i+0x24>
 8005fce:	e0be      	b.n	800614e <_printf_i+0x1a2>
 8005fd0:	497c      	ldr	r1, [pc, #496]	; (80061c4 <_printf_i+0x218>)
 8005fd2:	9103      	str	r1, [sp, #12]
 8005fd4:	2a58      	cmp	r2, #88	; 0x58
 8005fd6:	d100      	bne.n	8005fda <_printf_i+0x2e>
 8005fd8:	e093      	b.n	8006102 <_printf_i+0x156>
 8005fda:	0026      	movs	r6, r4
 8005fdc:	3642      	adds	r6, #66	; 0x42
 8005fde:	7032      	strb	r2, [r6, #0]
 8005fe0:	e022      	b.n	8006028 <_printf_i+0x7c>
 8005fe2:	0010      	movs	r0, r2
 8005fe4:	3863      	subs	r0, #99	; 0x63
 8005fe6:	2815      	cmp	r0, #21
 8005fe8:	d8f7      	bhi.n	8005fda <_printf_i+0x2e>
 8005fea:	f7fa f88d 	bl	8000108 <__gnu_thumb1_case_shi>
 8005fee:	0016      	.short	0x0016
 8005ff0:	fff6001f 	.word	0xfff6001f
 8005ff4:	fff6fff6 	.word	0xfff6fff6
 8005ff8:	001ffff6 	.word	0x001ffff6
 8005ffc:	fff6fff6 	.word	0xfff6fff6
 8006000:	fff6fff6 	.word	0xfff6fff6
 8006004:	003600a3 	.word	0x003600a3
 8006008:	fff60083 	.word	0xfff60083
 800600c:	00b4fff6 	.word	0x00b4fff6
 8006010:	0036fff6 	.word	0x0036fff6
 8006014:	fff6fff6 	.word	0xfff6fff6
 8006018:	0087      	.short	0x0087
 800601a:	0026      	movs	r6, r4
 800601c:	681a      	ldr	r2, [r3, #0]
 800601e:	3642      	adds	r6, #66	; 0x42
 8006020:	1d11      	adds	r1, r2, #4
 8006022:	6019      	str	r1, [r3, #0]
 8006024:	6813      	ldr	r3, [r2, #0]
 8006026:	7033      	strb	r3, [r6, #0]
 8006028:	2301      	movs	r3, #1
 800602a:	e0a2      	b.n	8006172 <_printf_i+0x1c6>
 800602c:	6818      	ldr	r0, [r3, #0]
 800602e:	6809      	ldr	r1, [r1, #0]
 8006030:	1d02      	adds	r2, r0, #4
 8006032:	060d      	lsls	r5, r1, #24
 8006034:	d50b      	bpl.n	800604e <_printf_i+0xa2>
 8006036:	6805      	ldr	r5, [r0, #0]
 8006038:	601a      	str	r2, [r3, #0]
 800603a:	2d00      	cmp	r5, #0
 800603c:	da03      	bge.n	8006046 <_printf_i+0x9a>
 800603e:	232d      	movs	r3, #45	; 0x2d
 8006040:	9a04      	ldr	r2, [sp, #16]
 8006042:	426d      	negs	r5, r5
 8006044:	7013      	strb	r3, [r2, #0]
 8006046:	4b5f      	ldr	r3, [pc, #380]	; (80061c4 <_printf_i+0x218>)
 8006048:	270a      	movs	r7, #10
 800604a:	9303      	str	r3, [sp, #12]
 800604c:	e01b      	b.n	8006086 <_printf_i+0xda>
 800604e:	6805      	ldr	r5, [r0, #0]
 8006050:	601a      	str	r2, [r3, #0]
 8006052:	0649      	lsls	r1, r1, #25
 8006054:	d5f1      	bpl.n	800603a <_printf_i+0x8e>
 8006056:	b22d      	sxth	r5, r5
 8006058:	e7ef      	b.n	800603a <_printf_i+0x8e>
 800605a:	680d      	ldr	r5, [r1, #0]
 800605c:	6819      	ldr	r1, [r3, #0]
 800605e:	1d08      	adds	r0, r1, #4
 8006060:	6018      	str	r0, [r3, #0]
 8006062:	062e      	lsls	r6, r5, #24
 8006064:	d501      	bpl.n	800606a <_printf_i+0xbe>
 8006066:	680d      	ldr	r5, [r1, #0]
 8006068:	e003      	b.n	8006072 <_printf_i+0xc6>
 800606a:	066d      	lsls	r5, r5, #25
 800606c:	d5fb      	bpl.n	8006066 <_printf_i+0xba>
 800606e:	680d      	ldr	r5, [r1, #0]
 8006070:	b2ad      	uxth	r5, r5
 8006072:	4b54      	ldr	r3, [pc, #336]	; (80061c4 <_printf_i+0x218>)
 8006074:	2708      	movs	r7, #8
 8006076:	9303      	str	r3, [sp, #12]
 8006078:	2a6f      	cmp	r2, #111	; 0x6f
 800607a:	d000      	beq.n	800607e <_printf_i+0xd2>
 800607c:	3702      	adds	r7, #2
 800607e:	0023      	movs	r3, r4
 8006080:	2200      	movs	r2, #0
 8006082:	3343      	adds	r3, #67	; 0x43
 8006084:	701a      	strb	r2, [r3, #0]
 8006086:	6863      	ldr	r3, [r4, #4]
 8006088:	60a3      	str	r3, [r4, #8]
 800608a:	2b00      	cmp	r3, #0
 800608c:	db03      	blt.n	8006096 <_printf_i+0xea>
 800608e:	2104      	movs	r1, #4
 8006090:	6822      	ldr	r2, [r4, #0]
 8006092:	438a      	bics	r2, r1
 8006094:	6022      	str	r2, [r4, #0]
 8006096:	2d00      	cmp	r5, #0
 8006098:	d102      	bne.n	80060a0 <_printf_i+0xf4>
 800609a:	9e04      	ldr	r6, [sp, #16]
 800609c:	2b00      	cmp	r3, #0
 800609e:	d00c      	beq.n	80060ba <_printf_i+0x10e>
 80060a0:	9e04      	ldr	r6, [sp, #16]
 80060a2:	0028      	movs	r0, r5
 80060a4:	0039      	movs	r1, r7
 80060a6:	f7fa f8bf 	bl	8000228 <__aeabi_uidivmod>
 80060aa:	9b03      	ldr	r3, [sp, #12]
 80060ac:	3e01      	subs	r6, #1
 80060ae:	5c5b      	ldrb	r3, [r3, r1]
 80060b0:	7033      	strb	r3, [r6, #0]
 80060b2:	002b      	movs	r3, r5
 80060b4:	0005      	movs	r5, r0
 80060b6:	429f      	cmp	r7, r3
 80060b8:	d9f3      	bls.n	80060a2 <_printf_i+0xf6>
 80060ba:	2f08      	cmp	r7, #8
 80060bc:	d109      	bne.n	80060d2 <_printf_i+0x126>
 80060be:	6823      	ldr	r3, [r4, #0]
 80060c0:	07db      	lsls	r3, r3, #31
 80060c2:	d506      	bpl.n	80060d2 <_printf_i+0x126>
 80060c4:	6862      	ldr	r2, [r4, #4]
 80060c6:	6923      	ldr	r3, [r4, #16]
 80060c8:	429a      	cmp	r2, r3
 80060ca:	dc02      	bgt.n	80060d2 <_printf_i+0x126>
 80060cc:	2330      	movs	r3, #48	; 0x30
 80060ce:	3e01      	subs	r6, #1
 80060d0:	7033      	strb	r3, [r6, #0]
 80060d2:	9b04      	ldr	r3, [sp, #16]
 80060d4:	1b9b      	subs	r3, r3, r6
 80060d6:	6123      	str	r3, [r4, #16]
 80060d8:	9b07      	ldr	r3, [sp, #28]
 80060da:	0021      	movs	r1, r4
 80060dc:	9300      	str	r3, [sp, #0]
 80060de:	9805      	ldr	r0, [sp, #20]
 80060e0:	9b06      	ldr	r3, [sp, #24]
 80060e2:	aa09      	add	r2, sp, #36	; 0x24
 80060e4:	f7ff fef2 	bl	8005ecc <_printf_common>
 80060e8:	3001      	adds	r0, #1
 80060ea:	d147      	bne.n	800617c <_printf_i+0x1d0>
 80060ec:	2001      	movs	r0, #1
 80060ee:	4240      	negs	r0, r0
 80060f0:	b00b      	add	sp, #44	; 0x2c
 80060f2:	bdf0      	pop	{r4, r5, r6, r7, pc}
 80060f4:	2220      	movs	r2, #32
 80060f6:	6809      	ldr	r1, [r1, #0]
 80060f8:	430a      	orrs	r2, r1
 80060fa:	6022      	str	r2, [r4, #0]
 80060fc:	2278      	movs	r2, #120	; 0x78
 80060fe:	4932      	ldr	r1, [pc, #200]	; (80061c8 <_printf_i+0x21c>)
 8006100:	9103      	str	r1, [sp, #12]
 8006102:	0021      	movs	r1, r4
 8006104:	3145      	adds	r1, #69	; 0x45
 8006106:	700a      	strb	r2, [r1, #0]
 8006108:	6819      	ldr	r1, [r3, #0]
 800610a:	6822      	ldr	r2, [r4, #0]
 800610c:	c920      	ldmia	r1!, {r5}
 800610e:	0610      	lsls	r0, r2, #24
 8006110:	d402      	bmi.n	8006118 <_printf_i+0x16c>
 8006112:	0650      	lsls	r0, r2, #25
 8006114:	d500      	bpl.n	8006118 <_printf_i+0x16c>
 8006116:	b2ad      	uxth	r5, r5
 8006118:	6019      	str	r1, [r3, #0]
 800611a:	07d3      	lsls	r3, r2, #31
 800611c:	d502      	bpl.n	8006124 <_printf_i+0x178>
 800611e:	2320      	movs	r3, #32
 8006120:	4313      	orrs	r3, r2
 8006122:	6023      	str	r3, [r4, #0]
 8006124:	2710      	movs	r7, #16
 8006126:	2d00      	cmp	r5, #0
 8006128:	d1a9      	bne.n	800607e <_printf_i+0xd2>
 800612a:	2220      	movs	r2, #32
 800612c:	6823      	ldr	r3, [r4, #0]
 800612e:	4393      	bics	r3, r2
 8006130:	6023      	str	r3, [r4, #0]
 8006132:	e7a4      	b.n	800607e <_printf_i+0xd2>
 8006134:	681a      	ldr	r2, [r3, #0]
 8006136:	680d      	ldr	r5, [r1, #0]
 8006138:	1d10      	adds	r0, r2, #4
 800613a:	6949      	ldr	r1, [r1, #20]
 800613c:	6018      	str	r0, [r3, #0]
 800613e:	6813      	ldr	r3, [r2, #0]
 8006140:	062e      	lsls	r6, r5, #24
 8006142:	d501      	bpl.n	8006148 <_printf_i+0x19c>
 8006144:	6019      	str	r1, [r3, #0]
 8006146:	e002      	b.n	800614e <_printf_i+0x1a2>
 8006148:	066d      	lsls	r5, r5, #25
 800614a:	d5fb      	bpl.n	8006144 <_printf_i+0x198>
 800614c:	8019      	strh	r1, [r3, #0]
 800614e:	2300      	movs	r3, #0
 8006150:	9e04      	ldr	r6, [sp, #16]
 8006152:	6123      	str	r3, [r4, #16]
 8006154:	e7c0      	b.n	80060d8 <_printf_i+0x12c>
 8006156:	681a      	ldr	r2, [r3, #0]
 8006158:	1d11      	adds	r1, r2, #4
 800615a:	6019      	str	r1, [r3, #0]
 800615c:	6816      	ldr	r6, [r2, #0]
 800615e:	2100      	movs	r1, #0
 8006160:	0030      	movs	r0, r6
 8006162:	6862      	ldr	r2, [r4, #4]
 8006164:	f000 f858 	bl	8006218 <memchr>
 8006168:	2800      	cmp	r0, #0
 800616a:	d001      	beq.n	8006170 <_printf_i+0x1c4>
 800616c:	1b80      	subs	r0, r0, r6
 800616e:	6060      	str	r0, [r4, #4]
 8006170:	6863      	ldr	r3, [r4, #4]
 8006172:	6123      	str	r3, [r4, #16]
 8006174:	2300      	movs	r3, #0
 8006176:	9a04      	ldr	r2, [sp, #16]
 8006178:	7013      	strb	r3, [r2, #0]
 800617a:	e7ad      	b.n	80060d8 <_printf_i+0x12c>
 800617c:	0032      	movs	r2, r6
 800617e:	6923      	ldr	r3, [r4, #16]
 8006180:	9906      	ldr	r1, [sp, #24]
 8006182:	9805      	ldr	r0, [sp, #20]
 8006184:	9d07      	ldr	r5, [sp, #28]
 8006186:	47a8      	blx	r5
 8006188:	3001      	adds	r0, #1
 800618a:	d0af      	beq.n	80060ec <_printf_i+0x140>
 800618c:	6823      	ldr	r3, [r4, #0]
 800618e:	079b      	lsls	r3, r3, #30
 8006190:	d415      	bmi.n	80061be <_printf_i+0x212>
 8006192:	9b09      	ldr	r3, [sp, #36]	; 0x24
 8006194:	68e0      	ldr	r0, [r4, #12]
 8006196:	4298      	cmp	r0, r3
 8006198:	daaa      	bge.n	80060f0 <_printf_i+0x144>
 800619a:	0018      	movs	r0, r3
 800619c:	e7a8      	b.n	80060f0 <_printf_i+0x144>
 800619e:	0022      	movs	r2, r4
 80061a0:	2301      	movs	r3, #1
 80061a2:	9906      	ldr	r1, [sp, #24]
 80061a4:	9805      	ldr	r0, [sp, #20]
 80061a6:	9e07      	ldr	r6, [sp, #28]
 80061a8:	3219      	adds	r2, #25
 80061aa:	47b0      	blx	r6
 80061ac:	3001      	adds	r0, #1
 80061ae:	d09d      	beq.n	80060ec <_printf_i+0x140>
 80061b0:	3501      	adds	r5, #1
 80061b2:	68e3      	ldr	r3, [r4, #12]
 80061b4:	9a09      	ldr	r2, [sp, #36]	; 0x24
 80061b6:	1a9b      	subs	r3, r3, r2
 80061b8:	42ab      	cmp	r3, r5
 80061ba:	dcf0      	bgt.n	800619e <_printf_i+0x1f2>
 80061bc:	e7e9      	b.n	8006192 <_printf_i+0x1e6>
 80061be:	2500      	movs	r5, #0
 80061c0:	e7f7      	b.n	80061b2 <_printf_i+0x206>
 80061c2:	46c0      	nop			; (mov r8, r8)
 80061c4:	0800654d 	.word	0x0800654d
 80061c8:	0800655e 	.word	0x0800655e

080061cc <memmove>:
 80061cc:	b510      	push	{r4, lr}
 80061ce:	4288      	cmp	r0, r1
 80061d0:	d902      	bls.n	80061d8 <memmove+0xc>
 80061d2:	188b      	adds	r3, r1, r2
 80061d4:	4298      	cmp	r0, r3
 80061d6:	d303      	bcc.n	80061e0 <memmove+0x14>
 80061d8:	2300      	movs	r3, #0
 80061da:	e007      	b.n	80061ec <memmove+0x20>
 80061dc:	5c8b      	ldrb	r3, [r1, r2]
 80061de:	5483      	strb	r3, [r0, r2]
 80061e0:	3a01      	subs	r2, #1
 80061e2:	d2fb      	bcs.n	80061dc <memmove+0x10>
 80061e4:	bd10      	pop	{r4, pc}
 80061e6:	5ccc      	ldrb	r4, [r1, r3]
 80061e8:	54c4      	strb	r4, [r0, r3]
 80061ea:	3301      	adds	r3, #1
 80061ec:	429a      	cmp	r2, r3
 80061ee:	d1fa      	bne.n	80061e6 <memmove+0x1a>
 80061f0:	e7f8      	b.n	80061e4 <memmove+0x18>
	...

080061f4 <_sbrk_r>:
 80061f4:	2300      	movs	r3, #0
 80061f6:	b570      	push	{r4, r5, r6, lr}
 80061f8:	4d06      	ldr	r5, [pc, #24]	; (8006214 <_sbrk_r+0x20>)
 80061fa:	0004      	movs	r4, r0
 80061fc:	0008      	movs	r0, r1
 80061fe:	602b      	str	r3, [r5, #0]
 8006200:	f7fc fd68 	bl	8002cd4 <_sbrk>
 8006204:	1c43      	adds	r3, r0, #1
 8006206:	d103      	bne.n	8006210 <_sbrk_r+0x1c>
 8006208:	682b      	ldr	r3, [r5, #0]
 800620a:	2b00      	cmp	r3, #0
 800620c:	d000      	beq.n	8006210 <_sbrk_r+0x1c>
 800620e:	6023      	str	r3, [r4, #0]
 8006210:	bd70      	pop	{r4, r5, r6, pc}
 8006212:	46c0      	nop			; (mov r8, r8)
 8006214:	20000368 	.word	0x20000368

08006218 <memchr>:
 8006218:	b2c9      	uxtb	r1, r1
 800621a:	1882      	adds	r2, r0, r2
 800621c:	4290      	cmp	r0, r2
 800621e:	d101      	bne.n	8006224 <memchr+0xc>
 8006220:	2000      	movs	r0, #0
 8006222:	4770      	bx	lr
 8006224:	7803      	ldrb	r3, [r0, #0]
 8006226:	428b      	cmp	r3, r1
 8006228:	d0fb      	beq.n	8006222 <memchr+0xa>
 800622a:	3001      	adds	r0, #1
 800622c:	e7f6      	b.n	800621c <memchr+0x4>

0800622e <memcpy>:
 800622e:	2300      	movs	r3, #0
 8006230:	b510      	push	{r4, lr}
 8006232:	429a      	cmp	r2, r3
 8006234:	d100      	bne.n	8006238 <memcpy+0xa>
 8006236:	bd10      	pop	{r4, pc}
 8006238:	5ccc      	ldrb	r4, [r1, r3]
 800623a:	54c4      	strb	r4, [r0, r3]
 800623c:	3301      	adds	r3, #1
 800623e:	e7f8      	b.n	8006232 <memcpy+0x4>

08006240 <_realloc_r>:
 8006240:	b5f7      	push	{r0, r1, r2, r4, r5, r6, r7, lr}
 8006242:	0007      	movs	r7, r0
 8006244:	000e      	movs	r6, r1
 8006246:	0014      	movs	r4, r2
 8006248:	2900      	cmp	r1, #0
 800624a:	d105      	bne.n	8006258 <_realloc_r+0x18>
 800624c:	0011      	movs	r1, r2
 800624e:	f7ff fc49 	bl	8005ae4 <_malloc_r>
 8006252:	0005      	movs	r5, r0
 8006254:	0028      	movs	r0, r5
 8006256:	bdfe      	pop	{r1, r2, r3, r4, r5, r6, r7, pc}
 8006258:	2a00      	cmp	r2, #0
 800625a:	d103      	bne.n	8006264 <_realloc_r+0x24>
 800625c:	f7ff fbd6 	bl	8005a0c <_free_r>
 8006260:	0025      	movs	r5, r4
 8006262:	e7f7      	b.n	8006254 <_realloc_r+0x14>
 8006264:	f000 f81b 	bl	800629e <_malloc_usable_size_r>
 8006268:	9001      	str	r0, [sp, #4]
 800626a:	4284      	cmp	r4, r0
 800626c:	d803      	bhi.n	8006276 <_realloc_r+0x36>
 800626e:	0035      	movs	r5, r6
 8006270:	0843      	lsrs	r3, r0, #1
 8006272:	42a3      	cmp	r3, r4
 8006274:	d3ee      	bcc.n	8006254 <_realloc_r+0x14>
 8006276:	0021      	movs	r1, r4
 8006278:	0038      	movs	r0, r7
 800627a:	f7ff fc33 	bl	8005ae4 <_malloc_r>
 800627e:	1e05      	subs	r5, r0, #0
 8006280:	d0e8      	beq.n	8006254 <_realloc_r+0x14>
 8006282:	9b01      	ldr	r3, [sp, #4]
 8006284:	0022      	movs	r2, r4
 8006286:	429c      	cmp	r4, r3
 8006288:	d900      	bls.n	800628c <_realloc_r+0x4c>
 800628a:	001a      	movs	r2, r3
 800628c:	0031      	movs	r1, r6
 800628e:	0028      	movs	r0, r5
 8006290:	f7ff ffcd 	bl	800622e <memcpy>
 8006294:	0031      	movs	r1, r6
 8006296:	0038      	movs	r0, r7
 8006298:	f7ff fbb8 	bl	8005a0c <_free_r>
 800629c:	e7da      	b.n	8006254 <_realloc_r+0x14>

0800629e <_malloc_usable_size_r>:
 800629e:	1f0b      	subs	r3, r1, #4
 80062a0:	681b      	ldr	r3, [r3, #0]
 80062a2:	1f18      	subs	r0, r3, #4
 80062a4:	2b00      	cmp	r3, #0
 80062a6:	da01      	bge.n	80062ac <_malloc_usable_size_r+0xe>
 80062a8:	580b      	ldr	r3, [r1, r0]
 80062aa:	18c0      	adds	r0, r0, r3
 80062ac:	4770      	bx	lr
	...

080062b0 <_init>:
 80062b0:	b5f8      	push	{r3, r4, r5, r6, r7, lr}
 80062b2:	46c0      	nop			; (mov r8, r8)
 80062b4:	bcf8      	pop	{r3, r4, r5, r6, r7}
 80062b6:	bc08      	pop	{r3}
 80062b8:	469e      	mov	lr, r3
 80062ba:	4770      	bx	lr

080062bc <_fini>:
 80062bc:	b5f8      	push	{r3, r4, r5, r6, r7, lr}
 80062be:	46c0      	nop			; (mov r8, r8)
 80062c0:	bcf8      	pop	{r3, r4, r5, r6, r7}
 80062c2:	bc08      	pop	{r3}
 80062c4:	469e      	mov	lr, r3
 80062c6:	4770      	bx	lr
